
examinationsprojekt1.elf:     file format elf32-littlearm

Sections:
Idx Name          Size      VMA       LMA       File off  Algn
  0 .text         00007f84  00080000  00080000  00008000  2**2
                  CONTENTS, ALLOC, LOAD, READONLY, CODE
  1 .ARM.exidx    00000008  00087f84  00087f84  0000ff84  2**2
                  CONTENTS, ALLOC, LOAD, READONLY, DATA
  2 .relocate     000008d8  20070000  00087f8c  00010000  2**3
                  CONTENTS, ALLOC, LOAD, DATA
  3 .bss          000082d4  200708d8  00088868  000108d8  2**3
                  ALLOC
  4 .stack        00002004  20078bac  00090b3c  000108d8  2**0
                  ALLOC
  5 .ARM.attributes 00000029  00000000  00000000  000108d8  2**0
                  CONTENTS, READONLY
  6 .comment      00000071  00000000  00000000  00010901  2**0
                  CONTENTS, READONLY
  7 .debug_info   0003214c  00000000  00000000  00010972  2**0
                  CONTENTS, READONLY, DEBUGGING
  8 .debug_abbrev 0000931f  00000000  00000000  00042abe  2**0
                  CONTENTS, READONLY, DEBUGGING
  9 .debug_loc    00010890  00000000  00000000  0004bddd  2**0
                  CONTENTS, READONLY, DEBUGGING
 10 .debug_aranges 00001718  00000000  00000000  0005c670  2**3
                  CONTENTS, READONLY, DEBUGGING
 11 .debug_ranges 00001340  00000000  00000000  0005dd88  2**0
                  CONTENTS, READONLY, DEBUGGING
 12 .debug_macro  0001b772  00000000  00000000  0005f0c8  2**0
                  CONTENTS, READONLY, DEBUGGING
 13 .debug_line   0001f222  00000000  00000000  0007a83a  2**0
                  CONTENTS, READONLY, DEBUGGING
 14 .debug_str    0006979d  00000000  00000000  00099a5c  2**0
                  CONTENTS, READONLY, DEBUGGING
 15 .debug_frame  00002fc0  00000000  00000000  001031fc  2**2
                  CONTENTS, READONLY, DEBUGGING

Disassembly of section .text:

00080000 <_sfixed>:
   80000:	2007abb0 	.word	0x2007abb0
   80004:	00082fbd 	.word	0x00082fbd
   80008:	00082fb9 	.word	0x00082fb9
   8000c:	00082fb9 	.word	0x00082fb9
   80010:	00082fb9 	.word	0x00082fb9
   80014:	00082fb9 	.word	0x00082fb9
   80018:	00082fb9 	.word	0x00082fb9
	...
   8002c:	00080731 	.word	0x00080731
   80030:	00082fb9 	.word	0x00082fb9
   80034:	00000000 	.word	0x00000000
   80038:	000807c1 	.word	0x000807c1
   8003c:	000807fd 	.word	0x000807fd
   80040:	00082fb9 	.word	0x00082fb9
   80044:	00082fb9 	.word	0x00082fb9
   80048:	00082fb9 	.word	0x00082fb9
   8004c:	00082fb9 	.word	0x00082fb9
   80050:	00082fb9 	.word	0x00082fb9
   80054:	00082fb9 	.word	0x00082fb9
   80058:	00082fb9 	.word	0x00082fb9
   8005c:	00082fb9 	.word	0x00082fb9
   80060:	00082fb9 	.word	0x00082fb9
   80064:	00082fb9 	.word	0x00082fb9
   80068:	00000000 	.word	0x00000000
   8006c:	00082d85 	.word	0x00082d85
   80070:	00082da1 	.word	0x00082da1
   80074:	00082dbd 	.word	0x00082dbd
   80078:	00082dd9 	.word	0x00082dd9
	...
   80084:	00082fb9 	.word	0x00082fb9
   80088:	00082fb9 	.word	0x00082fb9
   8008c:	00082fb9 	.word	0x00082fb9
   80090:	00082fb9 	.word	0x00082fb9
   80094:	00082fb9 	.word	0x00082fb9
   80098:	00082fb9 	.word	0x00082fb9
   8009c:	00082fb9 	.word	0x00082fb9
   800a0:	00082fb9 	.word	0x00082fb9
   800a4:	00000000 	.word	0x00000000
   800a8:	00082fb9 	.word	0x00082fb9
   800ac:	00082fb9 	.word	0x00082fb9
   800b0:	00082fb9 	.word	0x00082fb9
   800b4:	00082fb9 	.word	0x00082fb9
   800b8:	00082fb9 	.word	0x00082fb9
   800bc:	00082fb9 	.word	0x00082fb9
   800c0:	00082fb9 	.word	0x00082fb9
   800c4:	00082fb9 	.word	0x00082fb9
   800c8:	00082fb9 	.word	0x00082fb9
   800cc:	00082fb9 	.word	0x00082fb9
   800d0:	00082fb9 	.word	0x00082fb9
   800d4:	00082fb9 	.word	0x00082fb9
   800d8:	00082fb9 	.word	0x00082fb9
   800dc:	00082fb9 	.word	0x00082fb9
   800e0:	00082fb9 	.word	0x00082fb9
   800e4:	00082fb9 	.word	0x00082fb9
   800e8:	00082fb9 	.word	0x00082fb9
   800ec:	00082fb9 	.word	0x00082fb9
   800f0:	00082fb9 	.word	0x00082fb9

000800f4 <deregister_tm_clones>:
   800f4:	b508      	push	{r3, lr}
   800f6:	4805      	ldr	r0, [pc, #20]	; (8010c <deregister_tm_clones+0x18>)
   800f8:	4b05      	ldr	r3, [pc, #20]	; (80110 <deregister_tm_clones+0x1c>)
   800fa:	1a19      	subs	r1, r3, r0
   800fc:	2906      	cmp	r1, #6
   800fe:	d800      	bhi.n	80102 <deregister_tm_clones+0xe>
   80100:	bd08      	pop	{r3, pc}
   80102:	4a04      	ldr	r2, [pc, #16]	; (80114 <deregister_tm_clones+0x20>)
   80104:	2a00      	cmp	r2, #0
   80106:	d0fb      	beq.n	80100 <deregister_tm_clones+0xc>
   80108:	4790      	blx	r2
   8010a:	e7f9      	b.n	80100 <deregister_tm_clones+0xc>
   8010c:	00087f8c 	.word	0x00087f8c
   80110:	00087f8f 	.word	0x00087f8f
   80114:	00000000 	.word	0x00000000

00080118 <register_tm_clones>:
   80118:	b508      	push	{r3, lr}
   8011a:	4807      	ldr	r0, [pc, #28]	; (80138 <register_tm_clones+0x20>)
   8011c:	4b07      	ldr	r3, [pc, #28]	; (8013c <register_tm_clones+0x24>)
   8011e:	1a19      	subs	r1, r3, r0
   80120:	108a      	asrs	r2, r1, #2
   80122:	eb02 73d2 	add.w	r3, r2, r2, lsr #31
   80126:	1059      	asrs	r1, r3, #1
   80128:	d100      	bne.n	8012c <register_tm_clones+0x14>
   8012a:	bd08      	pop	{r3, pc}
   8012c:	4a04      	ldr	r2, [pc, #16]	; (80140 <register_tm_clones+0x28>)
   8012e:	2a00      	cmp	r2, #0
   80130:	d0fb      	beq.n	8012a <register_tm_clones+0x12>
   80132:	4790      	blx	r2
   80134:	e7f9      	b.n	8012a <register_tm_clones+0x12>
   80136:	bf00      	nop
   80138:	00087f8c 	.word	0x00087f8c
   8013c:	00087f8c 	.word	0x00087f8c
   80140:	00000000 	.word	0x00000000

00080144 <__do_global_dtors_aux>:
   80144:	b510      	push	{r4, lr}
   80146:	4c06      	ldr	r4, [pc, #24]	; (80160 <__do_global_dtors_aux+0x1c>)
   80148:	7823      	ldrb	r3, [r4, #0]
   8014a:	b943      	cbnz	r3, 8015e <__do_global_dtors_aux+0x1a>
   8014c:	f7ff ffd2 	bl	800f4 <deregister_tm_clones>
   80150:	4804      	ldr	r0, [pc, #16]	; (80164 <__do_global_dtors_aux+0x20>)
   80152:	b110      	cbz	r0, 8015a <__do_global_dtors_aux+0x16>
   80154:	4804      	ldr	r0, [pc, #16]	; (80168 <__do_global_dtors_aux+0x24>)
   80156:	f3af 8000 	nop.w
   8015a:	2101      	movs	r1, #1
   8015c:	7021      	strb	r1, [r4, #0]
   8015e:	bd10      	pop	{r4, pc}
   80160:	200708d8 	.word	0x200708d8
   80164:	00000000 	.word	0x00000000
   80168:	00087f8c 	.word	0x00087f8c

0008016c <frame_dummy>:
   8016c:	b508      	push	{r3, lr}
   8016e:	4b08      	ldr	r3, [pc, #32]	; (80190 <frame_dummy+0x24>)
   80170:	b11b      	cbz	r3, 8017a <frame_dummy+0xe>
   80172:	4808      	ldr	r0, [pc, #32]	; (80194 <frame_dummy+0x28>)
   80174:	4908      	ldr	r1, [pc, #32]	; (80198 <frame_dummy+0x2c>)
   80176:	f3af 8000 	nop.w
   8017a:	4808      	ldr	r0, [pc, #32]	; (8019c <frame_dummy+0x30>)
   8017c:	6801      	ldr	r1, [r0, #0]
   8017e:	b111      	cbz	r1, 80186 <frame_dummy+0x1a>
   80180:	4a07      	ldr	r2, [pc, #28]	; (801a0 <frame_dummy+0x34>)
   80182:	b102      	cbz	r2, 80186 <frame_dummy+0x1a>
   80184:	4790      	blx	r2
   80186:	e8bd 4008 	ldmia.w	sp!, {r3, lr}
   8018a:	f7ff bfc5 	b.w	80118 <register_tm_clones>
   8018e:	bf00      	nop
   80190:	00000000 	.word	0x00000000
   80194:	00087f8c 	.word	0x00087f8c
   80198:	200708dc 	.word	0x200708dc
   8019c:	00087f8c 	.word	0x00087f8c
   801a0:	00000000 	.word	0x00000000

000801a4 <dacc_reset>:
   801a4:	f04f 0301 	mov.w	r3, #1
   801a8:	6003      	str	r3, [r0, #0]
   801aa:	4770      	bx	lr

000801ac <dacc_set_transfer_mode>:
   801ac:	b121      	cbz	r1, 801b8 <dacc_set_transfer_mode+0xc>
   801ae:	6842      	ldr	r2, [r0, #4]
   801b0:	f042 0310 	orr.w	r3, r2, #16
   801b4:	6043      	str	r3, [r0, #4]
   801b6:	e003      	b.n	801c0 <dacc_set_transfer_mode+0x14>
   801b8:	6843      	ldr	r3, [r0, #4]
   801ba:	f023 0110 	bic.w	r1, r3, #16
   801be:	6041      	str	r1, [r0, #4]
   801c0:	f04f 0000 	mov.w	r0, #0
   801c4:	4770      	bx	lr
   801c6:	bf00      	nop

000801c8 <dacc_write_conversion_data>:
   801c8:	6201      	str	r1, [r0, #32]
   801ca:	4770      	bx	lr

000801cc <dacc_set_channel_selection>:
   801cc:	6843      	ldr	r3, [r0, #4]
   801ce:	2901      	cmp	r1, #1
   801d0:	d807      	bhi.n	801e2 <dacc_set_channel_selection+0x16>
   801d2:	f423 1298 	bic.w	r2, r3, #1245184	; 0x130000
   801d6:	ea42 4101 	orr.w	r1, r2, r1, lsl #16
   801da:	6041      	str	r1, [r0, #4]
   801dc:	f04f 0000 	mov.w	r0, #0
   801e0:	4770      	bx	lr
   801e2:	f04f 0001 	mov.w	r0, #1
   801e6:	4770      	bx	lr

000801e8 <dacc_set_timing>:
   801e8:	b410      	push	{r4}
   801ea:	6844      	ldr	r4, [r0, #4]
   801ec:	f024 547c 	bic.w	r4, r4, #1056964608	; 0x3f000000
   801f0:	f424 447f 	bic.w	r4, r4, #65280	; 0xff00
   801f4:	ea4f 6101 	mov.w	r1, r1, lsl #24
   801f8:	ea44 4411 	orr.w	r4, r4, r1, lsr #16
   801fc:	b112      	cbz	r2, 80204 <dacc_set_timing+0x1c>
   801fe:	f444 1400 	orr.w	r4, r4, #2097152	; 0x200000
   80202:	e001      	b.n	80208 <dacc_set_timing+0x20>
   80204:	f424 1400 	bic.w	r4, r4, #2097152	; 0x200000
   80208:	ea4f 6303 	mov.w	r3, r3, lsl #24
   8020c:	f003 527c 	and.w	r2, r3, #1056964608	; 0x3f000000
   80210:	4314      	orrs	r4, r2
   80212:	6044      	str	r4, [r0, #4]
   80214:	f04f 0000 	mov.w	r0, #0
   80218:	bc10      	pop	{r4}
   8021a:	4770      	bx	lr

0008021c <dacc_enable_channel>:
   8021c:	2901      	cmp	r1, #1
   8021e:	d807      	bhi.n	80230 <dacc_enable_channel+0x14>
   80220:	f04f 0301 	mov.w	r3, #1
   80224:	fa03 f101 	lsl.w	r1, r3, r1
   80228:	6101      	str	r1, [r0, #16]
   8022a:	f04f 0000 	mov.w	r0, #0
   8022e:	4770      	bx	lr
   80230:	f04f 0001 	mov.w	r0, #1
   80234:	4770      	bx	lr
   80236:	bf00      	nop

00080238 <communication>:
#include "global_variables.h"
#include "matlabcomm.h"

portTickType matlab_comm_startTime = 0;

void communication(void *p) {
   80238:	e92d 43f8 	stmdb	sp!, {r3, r4, r5, r6, r7, r8, r9, lr}
	for(;;) {
		matlab_comm_startTime = xTaskGetTickCount();
   8023c:	f241 49a9 	movw	r9, #5289	; 0x14a9
   80240:	f2c0 0908 	movt	r9, #8
   80244:	f640 1406 	movw	r4, #2310	; 0x906
   80248:	f2c2 0407 	movt	r4, #8199	; 0x2007
		if(xSemaphoreTake(semafor_signal, portMAX_DELAY)) {
   8024c:	f648 28b8 	movw	r8, #35512	; 0x8ab8
   80250:	f2c2 0807 	movt	r8, #8199	; 0x2007
   80254:	f640 67a9 	movw	r7, #3753	; 0xea9
   80258:	f2c0 0708 	movt	r7, #8
			printf("%d\n", tank1_value);
   8025c:	f647 6644 	movw	r6, #32324	; 0x7e44
   80260:	f2c0 0608 	movt	r6, #8

portTickType matlab_comm_startTime = 0;

void communication(void *p) {
	for(;;) {
		matlab_comm_startTime = xTaskGetTickCount();
   80264:	47c8      	blx	r9
   80266:	8020      	strh	r0, [r4, #0]
		if(xSemaphoreTake(semafor_signal, portMAX_DELAY)) {
   80268:	f8d8 0000 	ldr.w	r0, [r8]
   8026c:	f04f 0100 	mov.w	r1, #0
   80270:	f64f 72ff 	movw	r2, #65535	; 0xffff
   80274:	460b      	mov	r3, r1
   80276:	47b8      	blx	r7
   80278:	b1f8      	cbz	r0, 802ba <communication+0x82>
			printf("%d\n", tank1_value);
   8027a:	4630      	mov	r0, r6
   8027c:	f640 03f8 	movw	r3, #2296	; 0x8f8
   80280:	f2c2 0307 	movt	r3, #8199	; 0x2007
   80284:	8819      	ldrh	r1, [r3, #0]
   80286:	f244 652d 	movw	r5, #17965	; 0x462d
   8028a:	f2c0 0508 	movt	r5, #8
   8028e:	47a8      	blx	r5
			printf("%d\n", tank2_value);
   80290:	4630      	mov	r0, r6
   80292:	f640 1104 	movw	r1, #2308	; 0x904
   80296:	f2c2 0107 	movt	r1, #8199	; 0x2007
   8029a:	8809      	ldrh	r1, [r1, #0]
   8029c:	47a8      	blx	r5
			printf("%d\n", error_value);
   8029e:	4630      	mov	r0, r6
   802a0:	f640 02fc 	movw	r2, #2300	; 0x8fc
   802a4:	f2c2 0207 	movt	r2, #8199	; 0x2007
   802a8:	6811      	ldr	r1, [r2, #0]
   802aa:	47a8      	blx	r5
			printf("%d\n", output_signal);
   802ac:	4630      	mov	r0, r6
   802ae:	f640 1300 	movw	r3, #2304	; 0x900
   802b2:	f2c2 0307 	movt	r3, #8199	; 0x2007
   802b6:	8819      	ldrh	r1, [r3, #0]
   802b8:	47a8      	blx	r5
		}
		vTaskDelayUntil(&matlab_comm_startTime, 500);
   802ba:	4620      	mov	r0, r4
   802bc:	f44f 71fa 	mov.w	r1, #500	; 0x1f4
   802c0:	f641 05b5 	movw	r5, #6325	; 0x18b5
   802c4:	f2c0 0508 	movt	r5, #8
   802c8:	47a8      	blx	r5
	}
   802ca:	e7cb      	b.n	80264 <communication+0x2c>

000802cc <delay_init>:
   802cc:	b510      	push	{r4, lr}
   802ce:	4604      	mov	r4, r0
   802d0:	f647 6348 	movw	r3, #32328	; 0x7e48
   802d4:	f2c0 0308 	movt	r3, #8
   802d8:	f853 0020 	ldr.w	r0, [r3, r0, lsl #2]
   802dc:	f642 7135 	movw	r1, #12085	; 0x2f35
   802e0:	f2c0 0108 	movt	r1, #8
   802e4:	4788      	blx	r1
   802e6:	f647 6054 	movw	r0, #32340	; 0x7e54
   802ea:	f2c0 0008 	movt	r0, #8
   802ee:	f850 0024 	ldr.w	r0, [r0, r4, lsl #2]
   802f2:	f640 1408 	movw	r4, #2312	; 0x908
   802f6:	f2c2 0407 	movt	r4, #8199	; 0x2007
   802fa:	6020      	str	r0, [r4, #0]
   802fc:	f04f 0100 	mov.w	r1, #0
   80300:	460a      	mov	r2, r1
   80302:	f240 5355 	movw	r3, #1365	; 0x555
   80306:	f2c0 0308 	movt	r3, #8
   8030a:	4798      	blx	r3
   8030c:	6820      	ldr	r0, [r4, #0]
   8030e:	f04f 0100 	mov.w	r1, #0
   80312:	f240 5271 	movw	r2, #1393	; 0x571
   80316:	f2c0 0208 	movt	r2, #8
   8031a:	4790      	blx	r2
   8031c:	6820      	ldr	r0, [r4, #0]
   8031e:	f04f 0100 	mov.w	r1, #0
   80322:	f240 5385 	movw	r3, #1413	; 0x585
   80326:	f2c0 0308 	movt	r3, #8
   8032a:	4798      	blx	r3
   8032c:	bd10      	pop	{r4, pc}
   8032e:	bf00      	nop

00080330 <delay>:
   80330:	b5f8      	push	{r3, r4, r5, r6, r7, lr}
   80332:	4604      	mov	r4, r0
   80334:	f640 1308 	movw	r3, #2312	; 0x908
   80338:	f2c2 0307 	movt	r3, #8199	; 0x2007
   8033c:	6818      	ldr	r0, [r3, #0]
   8033e:	f04f 0100 	mov.w	r1, #0
   80342:	f240 5279 	movw	r2, #1401	; 0x579
   80346:	f2c0 0208 	movt	r2, #8
   8034a:	4790      	blx	r2
   8034c:	f04f 072a 	mov.w	r7, #42	; 0x2a
   80350:	fb07 f704 	mul.w	r7, r7, r4
   80354:	f640 1608 	movw	r6, #2312	; 0x908
   80358:	f2c2 0607 	movt	r6, #8199	; 0x2007
   8035c:	f04f 0500 	mov.w	r5, #0
   80360:	f240 5491 	movw	r4, #1425	; 0x591
   80364:	f2c0 0408 	movt	r4, #8
   80368:	6830      	ldr	r0, [r6, #0]
   8036a:	4629      	mov	r1, r5
   8036c:	47a0      	blx	r4
   8036e:	42b8      	cmp	r0, r7
   80370:	d3fa      	bcc.n	80368 <delay+0x38>
   80372:	f640 1008 	movw	r0, #2312	; 0x908
   80376:	f2c2 0007 	movt	r0, #8199	; 0x2007
   8037a:	6800      	ldr	r0, [r0, #0]
   8037c:	f04f 0100 	mov.w	r1, #0
   80380:	f240 5385 	movw	r3, #1413	; 0x585
   80384:	f2c0 0308 	movt	r3, #8
   80388:	4798      	blx	r3
   8038a:	bdf8      	pop	{r3, r4, r5, r6, r7, pc}

0008038c <_read>:
   8038c:	e92d 43f8 	stmdb	sp!, {r3, r4, r5, r6, r7, r8, r9, lr}
   80390:	460c      	mov	r4, r1
   80392:	4690      	mov	r8, r2
   80394:	bb48      	cbnz	r0, 803ea <_read+0x5e>
   80396:	2a00      	cmp	r2, #0
   80398:	dd2b      	ble.n	803f2 <_read+0x66>
   8039a:	188f      	adds	r7, r1, r2
   8039c:	f648 369c 	movw	r6, #35740	; 0x8b9c
   803a0:	f2c2 0607 	movt	r6, #8199	; 0x2007
   803a4:	f648 3594 	movw	r5, #35732	; 0x8b94
   803a8:	f2c2 0507 	movt	r5, #8199	; 0x2007
   803ac:	ea6f 0901 	mvn.w	r9, r1
   803b0:	eb07 0009 	add.w	r0, r7, r9
   803b4:	f000 0901 	and.w	r9, r0, #1
   803b8:	6830      	ldr	r0, [r6, #0]
   803ba:	682b      	ldr	r3, [r5, #0]
   803bc:	4798      	blx	r3
   803be:	f104 0401 	add.w	r4, r4, #1
   803c2:	42bc      	cmp	r4, r7
   803c4:	d119      	bne.n	803fa <_read+0x6e>
   803c6:	e00d      	b.n	803e4 <_read+0x58>
   803c8:	6830      	ldr	r0, [r6, #0]
   803ca:	682b      	ldr	r3, [r5, #0]
   803cc:	4621      	mov	r1, r4
   803ce:	4798      	blx	r3
   803d0:	f104 0401 	add.w	r4, r4, #1
   803d4:	4621      	mov	r1, r4
   803d6:	6830      	ldr	r0, [r6, #0]
   803d8:	682a      	ldr	r2, [r5, #0]
   803da:	4790      	blx	r2
   803dc:	f104 0401 	add.w	r4, r4, #1
   803e0:	42bc      	cmp	r4, r7
   803e2:	d1f1      	bne.n	803c8 <_read+0x3c>
   803e4:	4640      	mov	r0, r8
   803e6:	e8bd 83f8 	ldmia.w	sp!, {r3, r4, r5, r6, r7, r8, r9, pc}
   803ea:	f04f 30ff 	mov.w	r0, #4294967295
   803ee:	e8bd 83f8 	ldmia.w	sp!, {r3, r4, r5, r6, r7, r8, r9, pc}
   803f2:	f04f 0000 	mov.w	r0, #0
   803f6:	e8bd 83f8 	ldmia.w	sp!, {r3, r4, r5, r6, r7, r8, r9, pc}
   803fa:	f1b9 0f00 	cmp.w	r9, #0
   803fe:	d0e3      	beq.n	803c8 <_read+0x3c>
   80400:	6830      	ldr	r0, [r6, #0]
   80402:	682a      	ldr	r2, [r5, #0]
   80404:	4621      	mov	r1, r4
   80406:	4790      	blx	r2
   80408:	f104 0401 	add.w	r4, r4, #1
   8040c:	42bc      	cmp	r4, r7
   8040e:	d1db      	bne.n	803c8 <_read+0x3c>
   80410:	e7e8      	b.n	803e4 <_read+0x58>
   80412:	bf00      	nop

00080414 <_write>:
   80414:	e92d 43f8 	stmdb	sp!, {r3, r4, r5, r6, r7, r8, r9, lr}
   80418:	460d      	mov	r5, r1
   8041a:	4690      	mov	r8, r2
   8041c:	f100 30ff 	add.w	r0, r0, #4294967295
   80420:	2802      	cmp	r0, #2
   80422:	d824      	bhi.n	8046e <_write+0x5a>
   80424:	b332      	cbz	r2, 80474 <_write+0x60>
   80426:	f648 369c 	movw	r6, #35740	; 0x8b9c
   8042a:	f2c2 0607 	movt	r6, #8199	; 0x2007
   8042e:	f648 3798 	movw	r7, #35736	; 0x8b98
   80432:	f2c2 0707 	movt	r7, #8199	; 0x2007
   80436:	f04f 0400 	mov.w	r4, #0
   8043a:	f102 39ff 	add.w	r9, r2, #4294967295
   8043e:	f009 0901 	and.w	r9, r9, #1
   80442:	6830      	ldr	r0, [r6, #0]
   80444:	683b      	ldr	r3, [r7, #0]
   80446:	5d09      	ldrb	r1, [r1, r4]
   80448:	4798      	blx	r3
   8044a:	42a0      	cmp	r0, r4
   8044c:	da1a      	bge.n	80484 <_write+0x70>
   8044e:	e014      	b.n	8047a <_write+0x66>
   80450:	6830      	ldr	r0, [r6, #0]
   80452:	683b      	ldr	r3, [r7, #0]
   80454:	5d29      	ldrb	r1, [r5, r4]
   80456:	4798      	blx	r3
   80458:	2800      	cmp	r0, #0
   8045a:	db0e      	blt.n	8047a <_write+0x66>
   8045c:	f104 0401 	add.w	r4, r4, #1
   80460:	6830      	ldr	r0, [r6, #0]
   80462:	683a      	ldr	r2, [r7, #0]
   80464:	5d29      	ldrb	r1, [r5, r4]
   80466:	4790      	blx	r2
   80468:	2800      	cmp	r0, #0
   8046a:	da1d      	bge.n	804a8 <_write+0x94>
   8046c:	e005      	b.n	8047a <_write+0x66>
   8046e:	f04f 34ff 	mov.w	r4, #4294967295
   80472:	e004      	b.n	8047e <_write+0x6a>
   80474:	f04f 0400 	mov.w	r4, #0
   80478:	e001      	b.n	8047e <_write+0x6a>
   8047a:	f04f 34ff 	mov.w	r4, #4294967295
   8047e:	4620      	mov	r0, r4
   80480:	e8bd 83f8 	ldmia.w	sp!, {r3, r4, r5, r6, r7, r8, r9, pc}
   80484:	f104 0401 	add.w	r4, r4, #1
   80488:	45a0      	cmp	r8, r4
   8048a:	d0f8      	beq.n	8047e <_write+0x6a>
   8048c:	f1b9 0f00 	cmp.w	r9, #0
   80490:	d0de      	beq.n	80450 <_write+0x3c>
   80492:	6830      	ldr	r0, [r6, #0]
   80494:	683a      	ldr	r2, [r7, #0]
   80496:	5d29      	ldrb	r1, [r5, r4]
   80498:	4790      	blx	r2
   8049a:	2800      	cmp	r0, #0
   8049c:	dbed      	blt.n	8047a <_write+0x66>
   8049e:	f104 0401 	add.w	r4, r4, #1
   804a2:	45a0      	cmp	r8, r4
   804a4:	d1d4      	bne.n	80450 <_write+0x3c>
   804a6:	e7ea      	b.n	8047e <_write+0x6a>
   804a8:	f104 0401 	add.w	r4, r4, #1
   804ac:	45a0      	cmp	r8, r4
   804ae:	d1cf      	bne.n	80450 <_write+0x3c>
   804b0:	e7e5      	b.n	8047e <_write+0x6a>
   804b2:	bf00      	nop

000804b4 <adc_init>:
   804b4:	b430      	push	{r4, r5}
   804b6:	f04f 0401 	mov.w	r4, #1
   804ba:	6004      	str	r4, [r0, #0]
   804bc:	f04f 0400 	mov.w	r4, #0
   804c0:	6044      	str	r4, [r0, #4]
   804c2:	f240 2502 	movw	r5, #514	; 0x202
   804c6:	f8c0 5120 	str.w	r5, [r0, #288]	; 0x120
   804ca:	f8c0 4104 	str.w	r4, [r0, #260]	; 0x104
   804ce:	f8c0 4114 	str.w	r4, [r0, #276]	; 0x114
   804d2:	6845      	ldr	r5, [r0, #4]
   804d4:	432b      	orrs	r3, r5
   804d6:	ea4f 0242 	mov.w	r2, r2, lsl #1
   804da:	fbb1 f1f2 	udiv	r1, r1, r2
   804de:	f101 32ff 	add.w	r2, r1, #4294967295
   804e2:	ea4f 6102 	mov.w	r1, r2, lsl #24
   804e6:	ea43 4311 	orr.w	r3, r3, r1, lsr #16
   804ea:	6043      	str	r3, [r0, #4]
   804ec:	4620      	mov	r0, r4
   804ee:	bc30      	pop	{r4, r5}
   804f0:	4770      	bx	lr
   804f2:	bf00      	nop

000804f4 <adc_set_resolution>:
   804f4:	6843      	ldr	r3, [r0, #4]
   804f6:	ea4f 1101 	mov.w	r1, r1, lsl #4
   804fa:	f001 0210 	and.w	r2, r1, #16
   804fe:	4313      	orrs	r3, r2
   80500:	6043      	str	r3, [r0, #4]
   80502:	4770      	bx	lr

00080504 <adc_configure_trigger>:
   80504:	6843      	ldr	r3, [r0, #4]
   80506:	4319      	orrs	r1, r3
   80508:	ea4f 12c2 	mov.w	r2, r2, lsl #7
   8050c:	b2d3      	uxtb	r3, r2
   8050e:	4319      	orrs	r1, r3
   80510:	6041      	str	r1, [r0, #4]
   80512:	4770      	bx	lr

00080514 <adc_configure_timing>:
   80514:	b410      	push	{r4}
   80516:	6844      	ldr	r4, [r0, #4]
   80518:	4322      	orrs	r2, r4
   8051a:	ea4f 6101 	mov.w	r1, r1, lsl #24
   8051e:	f001 6470 	and.w	r4, r1, #251658240	; 0xf000000
   80522:	4322      	orrs	r2, r4
   80524:	ea4f 7303 	mov.w	r3, r3, lsl #28
   80528:	f003 5140 	and.w	r1, r3, #805306368	; 0x30000000
   8052c:	430a      	orrs	r2, r1
   8052e:	6042      	str	r2, [r0, #4]
   80530:	bc10      	pop	{r4}
   80532:	4770      	bx	lr

00080534 <adc_start>:
   80534:	f04f 0302 	mov.w	r3, #2
   80538:	6003      	str	r3, [r0, #0]
   8053a:	4770      	bx	lr

0008053c <adc_get_channel_value>:
   8053c:	290f      	cmp	r1, #15
   8053e:	d804      	bhi.n	8054a <adc_get_channel_value+0xe>
   80540:	f101 0114 	add.w	r1, r1, #20
   80544:	f850 0021 	ldr.w	r0, [r0, r1, lsl #2]
   80548:	4770      	bx	lr
   8054a:	f04f 0000 	mov.w	r0, #0
   8054e:	4770      	bx	lr

00080550 <adc_get_status>:
   80550:	6b00      	ldr	r0, [r0, #48]	; 0x30
   80552:	4770      	bx	lr

00080554 <tc_init>:
   80554:	b410      	push	{r4}
   80556:	ea4f 1181 	mov.w	r1, r1, lsl #6
   8055a:	1843      	adds	r3, r0, r1
   8055c:	f04f 0402 	mov.w	r4, #2
   80560:	5044      	str	r4, [r0, r1]
   80562:	f04f 30ff 	mov.w	r0, #4294967295
   80566:	6298      	str	r0, [r3, #40]	; 0x28
   80568:	6a19      	ldr	r1, [r3, #32]
   8056a:	605a      	str	r2, [r3, #4]
   8056c:	bc10      	pop	{r4}
   8056e:	4770      	bx	lr

00080570 <tc_set_block_mode>:
   80570:	f8c0 10c4 	str.w	r1, [r0, #196]	; 0xc4
   80574:	4770      	bx	lr
   80576:	bf00      	nop

00080578 <tc_start>:
   80578:	ea4f 1181 	mov.w	r1, r1, lsl #6
   8057c:	f04f 0305 	mov.w	r3, #5
   80580:	5043      	str	r3, [r0, r1]
   80582:	4770      	bx	lr

00080584 <tc_stop>:
   80584:	ea4f 1181 	mov.w	r1, r1, lsl #6
   80588:	f04f 0302 	mov.w	r3, #2
   8058c:	5043      	str	r3, [r0, r1]
   8058e:	4770      	bx	lr

00080590 <tc_read_cv>:
   80590:	eb00 1181 	add.w	r1, r0, r1, lsl #6
   80594:	6908      	ldr	r0, [r1, #16]
   80596:	4770      	bx	lr

00080598 <uart_init>:
   80598:	b410      	push	{r4}
   8059a:	f04f 03ac 	mov.w	r3, #172	; 0xac
   8059e:	6003      	str	r3, [r0, #0]
   805a0:	680a      	ldr	r2, [r1, #0]
   805a2:	684c      	ldr	r4, [r1, #4]
   805a4:	fbb2 f3f4 	udiv	r3, r2, r4
   805a8:	ea4f 1313 	mov.w	r3, r3, lsr #4
   805ac:	f103 34ff 	add.w	r4, r3, #4294967295
   805b0:	f64f 72fe 	movw	r2, #65534	; 0xfffe
   805b4:	4294      	cmp	r4, r2
   805b6:	d80c      	bhi.n	805d2 <uart_init+0x3a>
   805b8:	6203      	str	r3, [r0, #32]
   805ba:	6889      	ldr	r1, [r1, #8]
   805bc:	6041      	str	r1, [r0, #4]
   805be:	f240 2302 	movw	r3, #514	; 0x202
   805c2:	f8c0 3120 	str.w	r3, [r0, #288]	; 0x120
   805c6:	f04f 0250 	mov.w	r2, #80	; 0x50
   805ca:	6002      	str	r2, [r0, #0]
   805cc:	f04f 0000 	mov.w	r0, #0
   805d0:	e001      	b.n	805d6 <uart_init+0x3e>
   805d2:	f04f 0001 	mov.w	r0, #1
   805d6:	bc10      	pop	{r4}
   805d8:	4770      	bx	lr
   805da:	bf00      	nop

000805dc <uart_write>:
   805dc:	6943      	ldr	r3, [r0, #20]
   805de:	f013 0f02 	tst.w	r3, #2
   805e2:	d003      	beq.n	805ec <uart_write+0x10>
   805e4:	61c1      	str	r1, [r0, #28]
   805e6:	f04f 0000 	mov.w	r0, #0
   805ea:	4770      	bx	lr
   805ec:	f04f 0001 	mov.w	r0, #1
   805f0:	4770      	bx	lr
   805f2:	bf00      	nop

000805f4 <uart_read>:
   805f4:	6943      	ldr	r3, [r0, #20]
   805f6:	f013 0f01 	tst.w	r3, #1
   805fa:	d004      	beq.n	80606 <uart_read+0x12>
   805fc:	6980      	ldr	r0, [r0, #24]
   805fe:	7008      	strb	r0, [r1, #0]
   80600:	f04f 0000 	mov.w	r0, #0
   80604:	4770      	bx	lr
   80606:	f04f 0001 	mov.w	r0, #1
   8060a:	4770      	bx	lr

0008060c <usart_write>:
   8060c:	6943      	ldr	r3, [r0, #20]
   8060e:	f013 0f02 	tst.w	r3, #2
   80612:	d007      	beq.n	80624 <usart_write+0x18>
   80614:	ea4f 51c1 	mov.w	r1, r1, lsl #23
   80618:	ea4f 52d1 	mov.w	r2, r1, lsr #23
   8061c:	61c2      	str	r2, [r0, #28]
   8061e:	f04f 0000 	mov.w	r0, #0
   80622:	4770      	bx	lr
   80624:	f04f 0001 	mov.w	r0, #1
   80628:	4770      	bx	lr
   8062a:	bf00      	nop

0008062c <usart_read>:
   8062c:	6943      	ldr	r3, [r0, #20]
   8062e:	f013 0f01 	tst.w	r3, #1
   80632:	d008      	beq.n	80646 <usart_read+0x1a>
   80634:	6980      	ldr	r0, [r0, #24]
   80636:	ea4f 52c0 	mov.w	r2, r0, lsl #23
   8063a:	ea4f 53d2 	mov.w	r3, r2, lsr #23
   8063e:	600b      	str	r3, [r1, #0]
   80640:	f04f 0000 	mov.w	r0, #0
   80644:	4770      	bx	lr
   80646:	f04f 0001 	mov.w	r0, #1
   8064a:	4770      	bx	lr

0008064c <vListInitialise>:
   8064c:	f100 0308 	add.w	r3, r0, #8
   80650:	6043      	str	r3, [r0, #4]
   80652:	f64f 72ff 	movw	r2, #65535	; 0xffff
   80656:	8102      	strh	r2, [r0, #8]
   80658:	60c3      	str	r3, [r0, #12]
   8065a:	6103      	str	r3, [r0, #16]
   8065c:	f04f 0100 	mov.w	r1, #0
   80660:	6001      	str	r1, [r0, #0]
   80662:	4770      	bx	lr

00080664 <vListInitialiseItem>:
   80664:	f04f 0300 	mov.w	r3, #0
   80668:	6103      	str	r3, [r0, #16]
   8066a:	4770      	bx	lr

0008066c <vListInsertEnd>:
   8066c:	6843      	ldr	r3, [r0, #4]
   8066e:	685a      	ldr	r2, [r3, #4]
   80670:	604a      	str	r2, [r1, #4]
   80672:	6842      	ldr	r2, [r0, #4]
   80674:	608a      	str	r2, [r1, #8]
   80676:	685a      	ldr	r2, [r3, #4]
   80678:	6091      	str	r1, [r2, #8]
   8067a:	6059      	str	r1, [r3, #4]
   8067c:	6041      	str	r1, [r0, #4]
   8067e:	6108      	str	r0, [r1, #16]
   80680:	6801      	ldr	r1, [r0, #0]
   80682:	f101 0101 	add.w	r1, r1, #1
   80686:	6001      	str	r1, [r0, #0]
   80688:	4770      	bx	lr
   8068a:	bf00      	nop

0008068c <vListInsert>:
   8068c:	b410      	push	{r4}
   8068e:	880c      	ldrh	r4, [r1, #0]
   80690:	f64f 73ff 	movw	r3, #65535	; 0xffff
   80694:	429c      	cmp	r4, r3
   80696:	d101      	bne.n	8069c <vListInsert+0x10>
   80698:	6903      	ldr	r3, [r0, #16]
   8069a:	e00c      	b.n	806b6 <vListInsert+0x2a>
   8069c:	f100 0308 	add.w	r3, r0, #8
   806a0:	68c2      	ldr	r2, [r0, #12]
   806a2:	8812      	ldrh	r2, [r2, #0]
   806a4:	b292      	uxth	r2, r2
   806a6:	4294      	cmp	r4, r2
   806a8:	d305      	bcc.n	806b6 <vListInsert+0x2a>
   806aa:	685b      	ldr	r3, [r3, #4]
   806ac:	685a      	ldr	r2, [r3, #4]
   806ae:	8812      	ldrh	r2, [r2, #0]
   806b0:	b292      	uxth	r2, r2
   806b2:	4294      	cmp	r4, r2
   806b4:	d2f9      	bcs.n	806aa <vListInsert+0x1e>
   806b6:	685a      	ldr	r2, [r3, #4]
   806b8:	604a      	str	r2, [r1, #4]
   806ba:	6091      	str	r1, [r2, #8]
   806bc:	608b      	str	r3, [r1, #8]
   806be:	6059      	str	r1, [r3, #4]
   806c0:	6108      	str	r0, [r1, #16]
   806c2:	6801      	ldr	r1, [r0, #0]
   806c4:	f101 0101 	add.w	r1, r1, #1
   806c8:	6001      	str	r1, [r0, #0]
   806ca:	bc10      	pop	{r4}
   806cc:	4770      	bx	lr
   806ce:	bf00      	nop

000806d0 <uxListRemove>:
   806d0:	6843      	ldr	r3, [r0, #4]
   806d2:	6882      	ldr	r2, [r0, #8]
   806d4:	609a      	str	r2, [r3, #8]
   806d6:	6881      	ldr	r1, [r0, #8]
   806d8:	6843      	ldr	r3, [r0, #4]
   806da:	604b      	str	r3, [r1, #4]
   806dc:	6901      	ldr	r1, [r0, #16]
   806de:	684a      	ldr	r2, [r1, #4]
   806e0:	4282      	cmp	r2, r0
   806e2:	bf04      	itt	eq
   806e4:	6882      	ldreq	r2, [r0, #8]
   806e6:	604a      	streq	r2, [r1, #4]
   806e8:	f04f 0300 	mov.w	r3, #0
   806ec:	6103      	str	r3, [r0, #16]
   806ee:	6808      	ldr	r0, [r1, #0]
   806f0:	f100 32ff 	add.w	r2, r0, #4294967295
   806f4:	600a      	str	r2, [r1, #0]
   806f6:	6808      	ldr	r0, [r1, #0]
   806f8:	4770      	bx	lr
   806fa:	bf00      	nop

000806fc <prvPortStartFirstTask>:
   806fc:	4803      	ldr	r0, [pc, #12]	; (8070c <prvPortStartFirstTask+0x10>)
   806fe:	6800      	ldr	r0, [r0, #0]
   80700:	6800      	ldr	r0, [r0, #0]
   80702:	f380 8808 	msr	MSP, r0
   80706:	b662      	cpsie	i
   80708:	df00      	svc	0
   8070a:	bf00      	nop
   8070c:	e000ed08 	.word	0xe000ed08

00080710 <pxPortInitialiseStack>:
   80710:	f04f 7380 	mov.w	r3, #16777216	; 0x1000000
   80714:	f840 3c04 	str.w	r3, [r0, #-4]
   80718:	f840 1c08 	str.w	r1, [r0, #-8]
   8071c:	f04f 0100 	mov.w	r1, #0
   80720:	f840 1c0c 	str.w	r1, [r0, #-12]
   80724:	f840 2c20 	str.w	r2, [r0, #-32]
   80728:	f1a0 0040 	sub.w	r0, r0, #64	; 0x40
   8072c:	4770      	bx	lr
   8072e:	bf00      	nop

00080730 <SVC_Handler>:
   80730:	4b06      	ldr	r3, [pc, #24]	; (8074c <pxCurrentTCBConst2>)
   80732:	6819      	ldr	r1, [r3, #0]
   80734:	6808      	ldr	r0, [r1, #0]
   80736:	e8b0 0ff0 	ldmia.w	r0!, {r4, r5, r6, r7, r8, r9, sl, fp}
   8073a:	f380 8809 	msr	PSP, r0
   8073e:	f04f 0000 	mov.w	r0, #0
   80742:	f380 8811 	msr	BASEPRI, r0
   80746:	f04e 0e0d 	orr.w	lr, lr, #13
   8074a:	4770      	bx	lr

0008074c <pxCurrentTCBConst2>:
   8074c:	20078a38 	.word	0x20078a38

00080750 <vPortYieldFromISR>:
   80750:	f64e 5304 	movw	r3, #60676	; 0xed04
   80754:	f2ce 0300 	movt	r3, #57344	; 0xe000
   80758:	f04f 5280 	mov.w	r2, #268435456	; 0x10000000
   8075c:	601a      	str	r2, [r3, #0]
   8075e:	4770      	bx	lr

00080760 <ulPortSetInterruptMask>:
   80760:	f3ef 8011 	mrs	r0, BASEPRI
   80764:	f04f 01a0 	mov.w	r1, #160	; 0xa0
   80768:	f381 8811 	msr	BASEPRI, r1
   8076c:	4770      	bx	lr
   8076e:	f04f 0000 	mov.w	r0, #0
   80772:	bf00      	nop

00080774 <vPortEnterCritical>:
   80774:	b508      	push	{r3, lr}
   80776:	f240 7361 	movw	r3, #1889	; 0x761
   8077a:	f2c0 0308 	movt	r3, #8
   8077e:	4798      	blx	r3
   80780:	f240 0000 	movw	r0, #0
   80784:	f2c2 0007 	movt	r0, #8199	; 0x2007
   80788:	6802      	ldr	r2, [r0, #0]
   8078a:	f102 0201 	add.w	r2, r2, #1
   8078e:	6002      	str	r2, [r0, #0]
   80790:	bd08      	pop	{r3, pc}
   80792:	bf00      	nop

00080794 <vPortClearInterruptMask>:
   80794:	f380 8811 	msr	BASEPRI, r0
   80798:	4770      	bx	lr
   8079a:	bf00      	nop

0008079c <vPortExitCritical>:
   8079c:	b508      	push	{r3, lr}
   8079e:	f240 0200 	movw	r2, #0
   807a2:	f2c2 0207 	movt	r2, #8199	; 0x2007
   807a6:	6813      	ldr	r3, [r2, #0]
   807a8:	f103 30ff 	add.w	r0, r3, #4294967295
   807ac:	6010      	str	r0, [r2, #0]
   807ae:	b930      	cbnz	r0, 807be <vPortExitCritical+0x22>
   807b0:	f04f 0000 	mov.w	r0, #0
   807b4:	f240 7195 	movw	r1, #1941	; 0x795
   807b8:	f2c0 0108 	movt	r1, #8
   807bc:	4788      	blx	r1
   807be:	bd08      	pop	{r3, pc}

000807c0 <PendSV_Handler>:
   807c0:	f3ef 8009 	mrs	r0, PSP
   807c4:	4b0c      	ldr	r3, [pc, #48]	; (807f8 <pxCurrentTCBConst>)
   807c6:	681a      	ldr	r2, [r3, #0]
   807c8:	e920 0ff0 	stmdb	r0!, {r4, r5, r6, r7, r8, r9, sl, fp}
   807cc:	6010      	str	r0, [r2, #0]
   807ce:	e92d 4008 	stmdb	sp!, {r3, lr}
   807d2:	f04f 00a0 	mov.w	r0, #160	; 0xa0
   807d6:	f380 8811 	msr	BASEPRI, r0
   807da:	f001 f8c9 	bl	81970 <vTaskSwitchContext>
   807de:	f04f 0000 	mov.w	r0, #0
   807e2:	f380 8811 	msr	BASEPRI, r0
   807e6:	e8bd 4008 	ldmia.w	sp!, {r3, lr}
   807ea:	6819      	ldr	r1, [r3, #0]
   807ec:	6808      	ldr	r0, [r1, #0]
   807ee:	e8b0 0ff0 	ldmia.w	r0!, {r4, r5, r6, r7, r8, r9, sl, fp}
   807f2:	f380 8809 	msr	PSP, r0
   807f6:	4770      	bx	lr

000807f8 <pxCurrentTCBConst>:
   807f8:	20078a38 	.word	0x20078a38

000807fc <SysTick_Handler>:
   807fc:	b508      	push	{r3, lr}
   807fe:	f64e 5304 	movw	r3, #60676	; 0xed04
   80802:	f2ce 0300 	movt	r3, #57344	; 0xe000
   80806:	f04f 5280 	mov.w	r2, #268435456	; 0x10000000
   8080a:	601a      	str	r2, [r3, #0]
   8080c:	f240 7061 	movw	r0, #1889	; 0x761
   80810:	f2c0 0008 	movt	r0, #8
   80814:	4780      	blx	r0
   80816:	f241 41d1 	movw	r1, #5329	; 0x14d1
   8081a:	f2c0 0108 	movt	r1, #8
   8081e:	4788      	blx	r1
   80820:	f04f 0000 	mov.w	r0, #0
   80824:	f240 7395 	movw	r3, #1941	; 0x795
   80828:	f2c0 0308 	movt	r3, #8
   8082c:	4798      	blx	r3
   8082e:	bd08      	pop	{r3, pc}

00080830 <vPortSetupTimerInterrupt>:
   80830:	f24e 0314 	movw	r3, #57364	; 0xe014
   80834:	f2ce 0300 	movt	r3, #57344	; 0xe000
   80838:	f644 021f 	movw	r2, #18463	; 0x481f
   8083c:	f2c0 0201 	movt	r2, #1
   80840:	601a      	str	r2, [r3, #0]
   80842:	f24e 0010 	movw	r0, #57360	; 0xe010
   80846:	f2ce 0000 	movt	r0, #57344	; 0xe000
   8084a:	f04f 0107 	mov.w	r1, #7
   8084e:	6001      	str	r1, [r0, #0]
   80850:	4770      	bx	lr
   80852:	bf00      	nop

00080854 <xPortStartScheduler>:
   80854:	b510      	push	{r4, lr}
   80856:	f64e 5320 	movw	r3, #60704	; 0xed20
   8085a:	f2ce 0300 	movt	r3, #57344	; 0xe000
   8085e:	681a      	ldr	r2, [r3, #0]
   80860:	f442 0070 	orr.w	r0, r2, #15728640	; 0xf00000
   80864:	6018      	str	r0, [r3, #0]
   80866:	6819      	ldr	r1, [r3, #0]
   80868:	f041 4470 	orr.w	r4, r1, #4026531840	; 0xf0000000
   8086c:	601c      	str	r4, [r3, #0]
   8086e:	f640 0331 	movw	r3, #2097	; 0x831
   80872:	f2c0 0308 	movt	r3, #8
   80876:	4798      	blx	r3
   80878:	f04f 0400 	mov.w	r4, #0
   8087c:	f240 0200 	movw	r2, #0
   80880:	f2c2 0207 	movt	r2, #8199	; 0x2007
   80884:	6014      	str	r4, [r2, #0]
   80886:	f240 60fd 	movw	r0, #1789	; 0x6fd
   8088a:	f2c0 0008 	movt	r0, #8
   8088e:	4780      	blx	r0
   80890:	4620      	mov	r0, r4
   80892:	bd10      	pop	{r4, pc}

00080894 <prvInsertBlockIntoFreeList>:
   80894:	b430      	push	{r4, r5}
   80896:	f648 1214 	movw	r2, #35092	; 0x8914
   8089a:	f2c2 0207 	movt	r2, #8199	; 0x2007
   8089e:	e000      	b.n	808a2 <prvInsertBlockIntoFreeList+0xe>
   808a0:	461a      	mov	r2, r3
   808a2:	6813      	ldr	r3, [r2, #0]
   808a4:	4283      	cmp	r3, r0
   808a6:	d3fb      	bcc.n	808a0 <prvInsertBlockIntoFreeList+0xc>
   808a8:	4611      	mov	r1, r2
   808aa:	6854      	ldr	r4, [r2, #4]
   808ac:	1915      	adds	r5, r2, r4
   808ae:	4285      	cmp	r5, r0
   808b0:	d103      	bne.n	808ba <prvInsertBlockIntoFreeList+0x26>
   808b2:	6868      	ldr	r0, [r5, #4]
   808b4:	1904      	adds	r4, r0, r4
   808b6:	6054      	str	r4, [r2, #4]
   808b8:	4610      	mov	r0, r2
   808ba:	6842      	ldr	r2, [r0, #4]
   808bc:	1884      	adds	r4, r0, r2
   808be:	42a3      	cmp	r3, r4
   808c0:	d10f      	bne.n	808e2 <prvInsertBlockIntoFreeList+0x4e>
   808c2:	f648 1410 	movw	r4, #35088	; 0x8910
   808c6:	f2c2 0407 	movt	r4, #8199	; 0x2007
   808ca:	6824      	ldr	r4, [r4, #0]
   808cc:	429c      	cmp	r4, r3
   808ce:	d006      	beq.n	808de <prvInsertBlockIntoFreeList+0x4a>
   808d0:	685b      	ldr	r3, [r3, #4]
   808d2:	189a      	adds	r2, r3, r2
   808d4:	6042      	str	r2, [r0, #4]
   808d6:	680b      	ldr	r3, [r1, #0]
   808d8:	681a      	ldr	r2, [r3, #0]
   808da:	6002      	str	r2, [r0, #0]
   808dc:	e002      	b.n	808e4 <prvInsertBlockIntoFreeList+0x50>
   808de:	6003      	str	r3, [r0, #0]
   808e0:	e000      	b.n	808e4 <prvInsertBlockIntoFreeList+0x50>
   808e2:	6003      	str	r3, [r0, #0]
   808e4:	4281      	cmp	r1, r0
   808e6:	bf18      	it	ne
   808e8:	6008      	strne	r0, [r1, #0]
   808ea:	bc30      	pop	{r4, r5}
   808ec:	4770      	bx	lr
   808ee:	bf00      	nop

000808f0 <pvPortMalloc>:
   808f0:	b538      	push	{r3, r4, r5, lr}
   808f2:	4604      	mov	r4, r0
   808f4:	f241 4395 	movw	r3, #5269	; 0x1495
   808f8:	f2c0 0308 	movt	r3, #8
   808fc:	4798      	blx	r3
   808fe:	f648 1010 	movw	r0, #35088	; 0x8910
   80902:	f2c2 0007 	movt	r0, #8199	; 0x2007
   80906:	6801      	ldr	r1, [r0, #0]
   80908:	bb11      	cbnz	r1, 80950 <pvPortMalloc+0x60>
   8090a:	f648 1214 	movw	r2, #35092	; 0x8914
   8090e:	f2c2 0207 	movt	r2, #8199	; 0x2007
   80912:	f640 1310 	movw	r3, #2320	; 0x910
   80916:	f2c2 0307 	movt	r3, #8199	; 0x2007
   8091a:	6013      	str	r3, [r2, #0]
   8091c:	f04f 0100 	mov.w	r1, #0
   80920:	6051      	str	r1, [r2, #4]
   80922:	f503 42ff 	add.w	r2, r3, #32640	; 0x7f80
   80926:	f102 0070 	add.w	r0, r2, #112	; 0x70
   8092a:	f648 1510 	movw	r5, #35088	; 0x8910
   8092e:	f2c2 0507 	movt	r5, #8199	; 0x2007
   80932:	6028      	str	r0, [r5, #0]
   80934:	6751      	str	r1, [r2, #116]	; 0x74
   80936:	6711      	str	r1, [r2, #112]	; 0x70
   80938:	f647 71f0 	movw	r1, #32752	; 0x7ff0
   8093c:	6059      	str	r1, [r3, #4]
   8093e:	6018      	str	r0, [r3, #0]
   80940:	f240 0304 	movw	r3, #4
   80944:	f2c2 0307 	movt	r3, #8199	; 0x2007
   80948:	681a      	ldr	r2, [r3, #0]
   8094a:	f1a2 0210 	sub.w	r2, r2, #16
   8094e:	601a      	str	r2, [r3, #0]
   80950:	2c00      	cmp	r4, #0
   80952:	d03c      	beq.n	809ce <pvPortMalloc+0xde>
   80954:	f104 0210 	add.w	r2, r4, #16
   80958:	f012 0f07 	tst.w	r2, #7
   8095c:	bf1c      	itt	ne
   8095e:	f022 0207 	bicne.w	r2, r2, #7
   80962:	3208      	addne	r2, #8
   80964:	f102 30ff 	add.w	r0, r2, #4294967295
   80968:	f647 75fe 	movw	r5, #32766	; 0x7ffe
   8096c:	42a8      	cmp	r0, r5
   8096e:	d831      	bhi.n	809d4 <pvPortMalloc+0xe4>
   80970:	f648 1114 	movw	r1, #35092	; 0x8914
   80974:	f2c2 0107 	movt	r1, #8199	; 0x2007
   80978:	680c      	ldr	r4, [r1, #0]
   8097a:	e001      	b.n	80980 <pvPortMalloc+0x90>
   8097c:	4621      	mov	r1, r4
   8097e:	4604      	mov	r4, r0
   80980:	6863      	ldr	r3, [r4, #4]
   80982:	429a      	cmp	r2, r3
   80984:	d902      	bls.n	8098c <pvPortMalloc+0x9c>
   80986:	6820      	ldr	r0, [r4, #0]
   80988:	2800      	cmp	r0, #0
   8098a:	d1f7      	bne.n	8097c <pvPortMalloc+0x8c>
   8098c:	f648 1510 	movw	r5, #35088	; 0x8910
   80990:	f2c2 0507 	movt	r5, #8199	; 0x2007
   80994:	682b      	ldr	r3, [r5, #0]
   80996:	429c      	cmp	r4, r3
   80998:	d01f      	beq.n	809da <pvPortMalloc+0xea>
   8099a:	680d      	ldr	r5, [r1, #0]
   8099c:	f105 0510 	add.w	r5, r5, #16
   809a0:	6820      	ldr	r0, [r4, #0]
   809a2:	6008      	str	r0, [r1, #0]
   809a4:	6861      	ldr	r1, [r4, #4]
   809a6:	1a8b      	subs	r3, r1, r2
   809a8:	2b20      	cmp	r3, #32
   809aa:	d907      	bls.n	809bc <pvPortMalloc+0xcc>
   809ac:	18a0      	adds	r0, r4, r2
   809ae:	6043      	str	r3, [r0, #4]
   809b0:	6062      	str	r2, [r4, #4]
   809b2:	f640 0295 	movw	r2, #2197	; 0x895
   809b6:	f2c0 0208 	movt	r2, #8
   809ba:	4790      	blx	r2
   809bc:	f240 0004 	movw	r0, #4
   809c0:	f2c2 0007 	movt	r0, #8199	; 0x2007
   809c4:	6803      	ldr	r3, [r0, #0]
   809c6:	6861      	ldr	r1, [r4, #4]
   809c8:	1a5a      	subs	r2, r3, r1
   809ca:	6002      	str	r2, [r0, #0]
   809cc:	e007      	b.n	809de <pvPortMalloc+0xee>
   809ce:	f04f 0500 	mov.w	r5, #0
   809d2:	e004      	b.n	809de <pvPortMalloc+0xee>
   809d4:	f04f 0500 	mov.w	r5, #0
   809d8:	e001      	b.n	809de <pvPortMalloc+0xee>
   809da:	f04f 0500 	mov.w	r5, #0
   809de:	f241 606d 	movw	r0, #5741	; 0x166d
   809e2:	f2c0 0008 	movt	r0, #8
   809e6:	4780      	blx	r0
   809e8:	4628      	mov	r0, r5
   809ea:	bd38      	pop	{r3, r4, r5, pc}

000809ec <vPortFree>:
   809ec:	b510      	push	{r4, lr}
   809ee:	4604      	mov	r4, r0
   809f0:	b1c8      	cbz	r0, 80a26 <vPortFree+0x3a>
   809f2:	f241 4395 	movw	r3, #5269	; 0x1495
   809f6:	f2c0 0308 	movt	r3, #8
   809fa:	4798      	blx	r3
   809fc:	f240 0004 	movw	r0, #4
   80a00:	f2c2 0007 	movt	r0, #8199	; 0x2007
   80a04:	6801      	ldr	r1, [r0, #0]
   80a06:	f854 2c0c 	ldr.w	r2, [r4, #-12]
   80a0a:	188b      	adds	r3, r1, r2
   80a0c:	6003      	str	r3, [r0, #0]
   80a0e:	f1a4 0010 	sub.w	r0, r4, #16
   80a12:	f640 0195 	movw	r1, #2197	; 0x895
   80a16:	f2c0 0108 	movt	r1, #8
   80a1a:	4788      	blx	r1
   80a1c:	f241 606d 	movw	r0, #5741	; 0x166d
   80a20:	f2c0 0008 	movt	r0, #8
   80a24:	4780      	blx	r0
   80a26:	bd10      	pop	{r4, pc}

00080a28 <prvUnlockQueue>:
   80a28:	b5f8      	push	{r3, r4, r5, r6, r7, lr}
   80a2a:	4604      	mov	r4, r0
   80a2c:	f240 7375 	movw	r3, #1909	; 0x775
   80a30:	f2c0 0308 	movt	r3, #8
   80a34:	4798      	blx	r3
   80a36:	6ca0      	ldr	r0, [r4, #72]	; 0x48
   80a38:	2800      	cmp	r0, #0
   80a3a:	dd1a      	ble.n	80a72 <prvUnlockQueue+0x4a>
   80a3c:	6a61      	ldr	r1, [r4, #36]	; 0x24
   80a3e:	b919      	cbnz	r1, 80a48 <prvUnlockQueue+0x20>
   80a40:	e017      	b.n	80a72 <prvUnlockQueue+0x4a>
   80a42:	6a61      	ldr	r1, [r4, #36]	; 0x24
   80a44:	b951      	cbnz	r1, 80a5c <prvUnlockQueue+0x34>
   80a46:	e014      	b.n	80a72 <prvUnlockQueue+0x4a>
   80a48:	f104 0624 	add.w	r6, r4, #36	; 0x24
   80a4c:	f641 3501 	movw	r5, #6913	; 0x1b01
   80a50:	f2c0 0508 	movt	r5, #8
   80a54:	f641 478d 	movw	r7, #7309	; 0x1c8d
   80a58:	f2c0 0708 	movt	r7, #8
   80a5c:	4630      	mov	r0, r6
   80a5e:	47a8      	blx	r5
   80a60:	b100      	cbz	r0, 80a64 <prvUnlockQueue+0x3c>
   80a62:	47b8      	blx	r7
   80a64:	6ca2      	ldr	r2, [r4, #72]	; 0x48
   80a66:	f102 33ff 	add.w	r3, r2, #4294967295
   80a6a:	64a3      	str	r3, [r4, #72]	; 0x48
   80a6c:	6ca0      	ldr	r0, [r4, #72]	; 0x48
   80a6e:	2800      	cmp	r0, #0
   80a70:	dce7      	bgt.n	80a42 <prvUnlockQueue+0x1a>
   80a72:	f04f 32ff 	mov.w	r2, #4294967295
   80a76:	64a2      	str	r2, [r4, #72]	; 0x48
   80a78:	f240 739d 	movw	r3, #1949	; 0x79d
   80a7c:	f2c0 0308 	movt	r3, #8
   80a80:	4798      	blx	r3
   80a82:	f240 7075 	movw	r0, #1909	; 0x775
   80a86:	f2c0 0008 	movt	r0, #8
   80a8a:	4780      	blx	r0
   80a8c:	6c61      	ldr	r1, [r4, #68]	; 0x44
   80a8e:	2900      	cmp	r1, #0
   80a90:	dd1a      	ble.n	80ac8 <prvUnlockQueue+0xa0>
   80a92:	6922      	ldr	r2, [r4, #16]
   80a94:	b91a      	cbnz	r2, 80a9e <prvUnlockQueue+0x76>
   80a96:	e017      	b.n	80ac8 <prvUnlockQueue+0xa0>
   80a98:	6922      	ldr	r2, [r4, #16]
   80a9a:	b952      	cbnz	r2, 80ab2 <prvUnlockQueue+0x8a>
   80a9c:	e014      	b.n	80ac8 <prvUnlockQueue+0xa0>
   80a9e:	f104 0610 	add.w	r6, r4, #16
   80aa2:	f641 3501 	movw	r5, #6913	; 0x1b01
   80aa6:	f2c0 0508 	movt	r5, #8
   80aaa:	f641 478d 	movw	r7, #7309	; 0x1c8d
   80aae:	f2c0 0708 	movt	r7, #8
   80ab2:	4630      	mov	r0, r6
   80ab4:	47a8      	blx	r5
   80ab6:	b100      	cbz	r0, 80aba <prvUnlockQueue+0x92>
   80ab8:	47b8      	blx	r7
   80aba:	6c63      	ldr	r3, [r4, #68]	; 0x44
   80abc:	f103 30ff 	add.w	r0, r3, #4294967295
   80ac0:	6460      	str	r0, [r4, #68]	; 0x44
   80ac2:	6c61      	ldr	r1, [r4, #68]	; 0x44
   80ac4:	2900      	cmp	r1, #0
   80ac6:	dce7      	bgt.n	80a98 <prvUnlockQueue+0x70>
   80ac8:	f04f 33ff 	mov.w	r3, #4294967295
   80acc:	6463      	str	r3, [r4, #68]	; 0x44
   80ace:	f240 709d 	movw	r0, #1949	; 0x79d
   80ad2:	f2c0 0008 	movt	r0, #8
   80ad6:	4780      	blx	r0
   80ad8:	bdf8      	pop	{r3, r4, r5, r6, r7, pc}
   80ada:	bf00      	nop

00080adc <prvCopyDataFromQueue>:
   80adc:	b538      	push	{r3, r4, r5, lr}
   80ade:	4603      	mov	r3, r0
   80ae0:	6805      	ldr	r5, [r0, #0]
   80ae2:	b175      	cbz	r5, 80b02 <prvCopyDataFromQueue+0x26>
   80ae4:	6c02      	ldr	r2, [r0, #64]	; 0x40
   80ae6:	68c4      	ldr	r4, [r0, #12]
   80ae8:	18a4      	adds	r4, r4, r2
   80aea:	60c4      	str	r4, [r0, #12]
   80aec:	6840      	ldr	r0, [r0, #4]
   80aee:	4284      	cmp	r4, r0
   80af0:	bf28      	it	cs
   80af2:	60dd      	strcs	r5, [r3, #12]
   80af4:	4608      	mov	r0, r1
   80af6:	68d9      	ldr	r1, [r3, #12]
   80af8:	f244 636d 	movw	r3, #18029	; 0x466d
   80afc:	f2c0 0308 	movt	r3, #8
   80b00:	4798      	blx	r3
   80b02:	bd38      	pop	{r3, r4, r5, pc}

00080b04 <prvCopyDataToQueue>:
   80b04:	b510      	push	{r4, lr}
   80b06:	4604      	mov	r4, r0
   80b08:	6c03      	ldr	r3, [r0, #64]	; 0x40
   80b0a:	b963      	cbnz	r3, 80b26 <prvCopyDataToQueue+0x22>
   80b0c:	6801      	ldr	r1, [r0, #0]
   80b0e:	2900      	cmp	r1, #0
   80b10:	d12e      	bne.n	80b70 <prvCopyDataToQueue+0x6c>
   80b12:	6840      	ldr	r0, [r0, #4]
   80b14:	f641 5379 	movw	r3, #7545	; 0x1d79
   80b18:	f2c0 0308 	movt	r3, #8
   80b1c:	4798      	blx	r3
   80b1e:	f04f 0000 	mov.w	r0, #0
   80b22:	6060      	str	r0, [r4, #4]
   80b24:	e024      	b.n	80b70 <prvCopyDataToQueue+0x6c>
   80b26:	b982      	cbnz	r2, 80b4a <prvCopyDataToQueue+0x46>
   80b28:	6880      	ldr	r0, [r0, #8]
   80b2a:	461a      	mov	r2, r3
   80b2c:	f244 636d 	movw	r3, #18029	; 0x466d
   80b30:	f2c0 0308 	movt	r3, #8
   80b34:	4798      	blx	r3
   80b36:	68a2      	ldr	r2, [r4, #8]
   80b38:	6c21      	ldr	r1, [r4, #64]	; 0x40
   80b3a:	1850      	adds	r0, r2, r1
   80b3c:	60a0      	str	r0, [r4, #8]
   80b3e:	6863      	ldr	r3, [r4, #4]
   80b40:	4298      	cmp	r0, r3
   80b42:	d315      	bcc.n	80b70 <prvCopyDataToQueue+0x6c>
   80b44:	6822      	ldr	r2, [r4, #0]
   80b46:	60a2      	str	r2, [r4, #8]
   80b48:	e012      	b.n	80b70 <prvCopyDataToQueue+0x6c>
   80b4a:	68c0      	ldr	r0, [r0, #12]
   80b4c:	461a      	mov	r2, r3
   80b4e:	f244 636d 	movw	r3, #18029	; 0x466d
   80b52:	f2c0 0308 	movt	r3, #8
   80b56:	4798      	blx	r3
   80b58:	6c22      	ldr	r2, [r4, #64]	; 0x40
   80b5a:	f1c2 0000 	rsb	r0, r2, #0
   80b5e:	68e1      	ldr	r1, [r4, #12]
   80b60:	180b      	adds	r3, r1, r0
   80b62:	60e3      	str	r3, [r4, #12]
   80b64:	6822      	ldr	r2, [r4, #0]
   80b66:	4293      	cmp	r3, r2
   80b68:	d202      	bcs.n	80b70 <prvCopyDataToQueue+0x6c>
   80b6a:	6861      	ldr	r1, [r4, #4]
   80b6c:	1808      	adds	r0, r1, r0
   80b6e:	60e0      	str	r0, [r4, #12]
   80b70:	6ba2      	ldr	r2, [r4, #56]	; 0x38
   80b72:	f102 0201 	add.w	r2, r2, #1
   80b76:	63a2      	str	r2, [r4, #56]	; 0x38
   80b78:	bd10      	pop	{r4, pc}
   80b7a:	bf00      	nop

00080b7c <xQueueGenericReset>:
   80b7c:	b538      	push	{r3, r4, r5, lr}
   80b7e:	460d      	mov	r5, r1
   80b80:	4604      	mov	r4, r0
   80b82:	b930      	cbnz	r0, 80b92 <xQueueGenericReset+0x16>
   80b84:	f240 7461 	movw	r4, #1889	; 0x761
   80b88:	f2c0 0408 	movt	r4, #8
   80b8c:	47a0      	blx	r4
   80b8e:	bf00      	nop
   80b90:	e7fd      	b.n	80b8e <xQueueGenericReset+0x12>
   80b92:	f240 7375 	movw	r3, #1909	; 0x775
   80b96:	f2c0 0308 	movt	r3, #8
   80b9a:	4798      	blx	r3
   80b9c:	6823      	ldr	r3, [r4, #0]
   80b9e:	6be0      	ldr	r0, [r4, #60]	; 0x3c
   80ba0:	6c22      	ldr	r2, [r4, #64]	; 0x40
   80ba2:	fb00 3102 	mla	r1, r0, r2, r3
   80ba6:	6061      	str	r1, [r4, #4]
   80ba8:	f04f 0100 	mov.w	r1, #0
   80bac:	63a1      	str	r1, [r4, #56]	; 0x38
   80bae:	60a3      	str	r3, [r4, #8]
   80bb0:	f100 30ff 	add.w	r0, r0, #4294967295
   80bb4:	fb02 3300 	mla	r3, r2, r0, r3
   80bb8:	60e3      	str	r3, [r4, #12]
   80bba:	f04f 32ff 	mov.w	r2, #4294967295
   80bbe:	6462      	str	r2, [r4, #68]	; 0x44
   80bc0:	64a2      	str	r2, [r4, #72]	; 0x48
   80bc2:	b985      	cbnz	r5, 80be6 <xQueueGenericReset+0x6a>
   80bc4:	6921      	ldr	r1, [r4, #16]
   80bc6:	b1c1      	cbz	r1, 80bfa <xQueueGenericReset+0x7e>
   80bc8:	f104 0010 	add.w	r0, r4, #16
   80bcc:	f641 3301 	movw	r3, #6913	; 0x1b01
   80bd0:	f2c0 0308 	movt	r3, #8
   80bd4:	4798      	blx	r3
   80bd6:	2801      	cmp	r0, #1
   80bd8:	d10f      	bne.n	80bfa <xQueueGenericReset+0x7e>
   80bda:	f240 7051 	movw	r0, #1873	; 0x751
   80bde:	f2c0 0008 	movt	r0, #8
   80be2:	4780      	blx	r0
   80be4:	e009      	b.n	80bfa <xQueueGenericReset+0x7e>
   80be6:	f104 0010 	add.w	r0, r4, #16
   80bea:	f240 654d 	movw	r5, #1613	; 0x64d
   80bee:	f2c0 0508 	movt	r5, #8
   80bf2:	47a8      	blx	r5
   80bf4:	f104 0024 	add.w	r0, r4, #36	; 0x24
   80bf8:	47a8      	blx	r5
   80bfa:	f240 729d 	movw	r2, #1949	; 0x79d
   80bfe:	f2c0 0208 	movt	r2, #8
   80c02:	4790      	blx	r2
   80c04:	f04f 0001 	mov.w	r0, #1
   80c08:	bd38      	pop	{r3, r4, r5, pc}
   80c0a:	bf00      	nop

00080c0c <xQueueGenericCreate>:
   80c0c:	b5f8      	push	{r3, r4, r5, r6, r7, lr}
   80c0e:	460d      	mov	r5, r1
   80c10:	4617      	mov	r7, r2
   80c12:	4606      	mov	r6, r0
   80c14:	b1e0      	cbz	r0, 80c50 <xQueueGenericCreate+0x44>
   80c16:	f04f 0050 	mov.w	r0, #80	; 0x50
   80c1a:	f640 03f1 	movw	r3, #2289	; 0x8f1
   80c1e:	f2c0 0308 	movt	r3, #8
   80c22:	4798      	blx	r3
   80c24:	4604      	mov	r4, r0
   80c26:	b198      	cbz	r0, 80c50 <xQueueGenericCreate+0x44>
   80c28:	fb06 f005 	mul.w	r0, r6, r5
   80c2c:	f100 0001 	add.w	r0, r0, #1
   80c30:	f640 01f1 	movw	r1, #2289	; 0x8f1
   80c34:	f2c0 0108 	movt	r1, #8
   80c38:	4788      	blx	r1
   80c3a:	6020      	str	r0, [r4, #0]
   80c3c:	b970      	cbnz	r0, 80c5c <xQueueGenericCreate+0x50>
   80c3e:	4620      	mov	r0, r4
   80c40:	f640 12ed 	movw	r2, #2541	; 0x9ed
   80c44:	f2c0 0208 	movt	r2, #8
   80c48:	4790      	blx	r2
   80c4a:	e001      	b.n	80c50 <xQueueGenericCreate+0x44>
   80c4c:	bf00      	nop
   80c4e:	e7fd      	b.n	80c4c <xQueueGenericCreate+0x40>
   80c50:	f240 7061 	movw	r0, #1889	; 0x761
   80c54:	f2c0 0008 	movt	r0, #8
   80c58:	4780      	blx	r0
   80c5a:	e7f7      	b.n	80c4c <xQueueGenericCreate+0x40>
   80c5c:	63e6      	str	r6, [r4, #60]	; 0x3c
   80c5e:	6425      	str	r5, [r4, #64]	; 0x40
   80c60:	4620      	mov	r0, r4
   80c62:	f04f 0101 	mov.w	r1, #1
   80c66:	f640 337d 	movw	r3, #2941	; 0xb7d
   80c6a:	f2c0 0308 	movt	r3, #8
   80c6e:	4798      	blx	r3
   80c70:	f884 704d 	strb.w	r7, [r4, #77]	; 0x4d
   80c74:	4620      	mov	r0, r4
   80c76:	bdf8      	pop	{r3, r4, r5, r6, r7, pc}

00080c78 <xQueueGenericSend>:
   80c78:	e92d 4ff0 	stmdb	sp!, {r4, r5, r6, r7, r8, r9, sl, fp, lr}
   80c7c:	b085      	sub	sp, #20
   80c7e:	468a      	mov	sl, r1
   80c80:	469b      	mov	fp, r3
   80c82:	f8ad 2006 	strh.w	r2, [sp, #6]
   80c86:	4604      	mov	r4, r0
   80c88:	b930      	cbnz	r0, 80c98 <xQueueGenericSend+0x20>
   80c8a:	f240 7461 	movw	r4, #1889	; 0x761
   80c8e:	f2c0 0408 	movt	r4, #8
   80c92:	47a0      	blx	r4
   80c94:	bf00      	nop
   80c96:	e7fd      	b.n	80c94 <xQueueGenericSend+0x1c>
   80c98:	b941      	cbnz	r1, 80cac <xQueueGenericSend+0x34>
   80c9a:	6c03      	ldr	r3, [r0, #64]	; 0x40
   80c9c:	b14b      	cbz	r3, 80cb2 <xQueueGenericSend+0x3a>
   80c9e:	f240 7061 	movw	r0, #1889	; 0x761
   80ca2:	f2c0 0008 	movt	r0, #8
   80ca6:	4780      	blx	r0
   80ca8:	bf00      	nop
   80caa:	e7fd      	b.n	80ca8 <xQueueGenericSend+0x30>
   80cac:	f04f 0700 	mov.w	r7, #0
   80cb0:	e001      	b.n	80cb6 <xQueueGenericSend+0x3e>
   80cb2:	f04f 0700 	mov.w	r7, #0
   80cb6:	f240 7675 	movw	r6, #1909	; 0x775
   80cba:	f2c0 0608 	movt	r6, #8
   80cbe:	f641 31a9 	movw	r1, #7081	; 0x1ba9
   80cc2:	f2c0 0108 	movt	r1, #8
   80cc6:	9100      	str	r1, [sp, #0]
   80cc8:	f240 759d 	movw	r5, #1949	; 0x79d
   80ccc:	f2c0 0508 	movt	r5, #8
   80cd0:	47b0      	blx	r6
   80cd2:	6ba2      	ldr	r2, [r4, #56]	; 0x38
   80cd4:	6be3      	ldr	r3, [r4, #60]	; 0x3c
   80cd6:	429a      	cmp	r2, r3
   80cd8:	d21f      	bcs.n	80d1a <xQueueGenericSend+0xa2>
   80cda:	4620      	mov	r0, r4
   80cdc:	4651      	mov	r1, sl
   80cde:	465a      	mov	r2, fp
   80ce0:	f640 3305 	movw	r3, #2821	; 0xb05
   80ce4:	f2c0 0308 	movt	r3, #8
   80ce8:	4798      	blx	r3
   80cea:	6a61      	ldr	r1, [r4, #36]	; 0x24
   80cec:	b169      	cbz	r1, 80d0a <xQueueGenericSend+0x92>
   80cee:	f104 0024 	add.w	r0, r4, #36	; 0x24
   80cf2:	f641 3201 	movw	r2, #6913	; 0x1b01
   80cf6:	f2c0 0208 	movt	r2, #8
   80cfa:	4790      	blx	r2
   80cfc:	2801      	cmp	r0, #1
   80cfe:	d104      	bne.n	80d0a <xQueueGenericSend+0x92>
   80d00:	f240 7051 	movw	r0, #1873	; 0x751
   80d04:	f2c0 0008 	movt	r0, #8
   80d08:	4780      	blx	r0
   80d0a:	f240 739d 	movw	r3, #1949	; 0x79d
   80d0e:	f2c0 0308 	movt	r3, #8
   80d12:	4798      	blx	r3
   80d14:	f04f 0001 	mov.w	r0, #1
   80d18:	e06a      	b.n	80df0 <xQueueGenericSend+0x178>
   80d1a:	f8bd 0006 	ldrh.w	r0, [sp, #6]
   80d1e:	b938      	cbnz	r0, 80d30 <xQueueGenericSend+0xb8>
   80d20:	f240 739d 	movw	r3, #1949	; 0x79d
   80d24:	f2c0 0308 	movt	r3, #8
   80d28:	4798      	blx	r3
   80d2a:	f04f 0000 	mov.w	r0, #0
   80d2e:	e05f      	b.n	80df0 <xQueueGenericSend+0x178>
   80d30:	b927      	cbnz	r7, 80d3c <xQueueGenericSend+0xc4>
   80d32:	a802      	add	r0, sp, #8
   80d34:	9f00      	ldr	r7, [sp, #0]
   80d36:	47b8      	blx	r7
   80d38:	f04f 0701 	mov.w	r7, #1
   80d3c:	47a8      	blx	r5
   80d3e:	f241 4195 	movw	r1, #5269	; 0x1495
   80d42:	f2c0 0108 	movt	r1, #8
   80d46:	4788      	blx	r1
   80d48:	47b0      	blx	r6
   80d4a:	6c62      	ldr	r2, [r4, #68]	; 0x44
   80d4c:	f1b2 3fff 	cmp.w	r2, #4294967295
   80d50:	bf04      	itt	eq
   80d52:	2200      	moveq	r2, #0
   80d54:	6462      	streq	r2, [r4, #68]	; 0x44
   80d56:	6ca3      	ldr	r3, [r4, #72]	; 0x48
   80d58:	f1b3 3fff 	cmp.w	r3, #4294967295
   80d5c:	bf04      	itt	eq
   80d5e:	2300      	moveq	r3, #0
   80d60:	64a3      	streq	r3, [r4, #72]	; 0x48
   80d62:	47a8      	blx	r5
   80d64:	a802      	add	r0, sp, #8
   80d66:	f10d 0106 	add.w	r1, sp, #6
   80d6a:	f641 32d9 	movw	r2, #7129	; 0x1bd9
   80d6e:	f2c0 0208 	movt	r2, #8
   80d72:	4790      	blx	r2
   80d74:	bb78      	cbnz	r0, 80dd6 <xQueueGenericSend+0x15e>
   80d76:	47b0      	blx	r6
   80d78:	f8d4 9038 	ldr.w	r9, [r4, #56]	; 0x38
   80d7c:	f8d4 803c 	ldr.w	r8, [r4, #60]	; 0x3c
   80d80:	47a8      	blx	r5
   80d82:	45c1      	cmp	r9, r8
   80d84:	d11b      	bne.n	80dbe <xQueueGenericSend+0x146>
   80d86:	f104 0010 	add.w	r0, r4, #16
   80d8a:	f8bd 1006 	ldrh.w	r1, [sp, #6]
   80d8e:	f641 2331 	movw	r3, #6705	; 0x1a31
   80d92:	f2c0 0308 	movt	r3, #8
   80d96:	4798      	blx	r3
   80d98:	4620      	mov	r0, r4
   80d9a:	f640 2129 	movw	r1, #2601	; 0xa29
   80d9e:	f2c0 0108 	movt	r1, #8
   80da2:	4788      	blx	r1
   80da4:	f241 606d 	movw	r0, #5741	; 0x166d
   80da8:	f2c0 0008 	movt	r0, #8
   80dac:	4780      	blx	r0
   80dae:	2800      	cmp	r0, #0
   80db0:	d18e      	bne.n	80cd0 <xQueueGenericSend+0x58>
   80db2:	f240 7251 	movw	r2, #1873	; 0x751
   80db6:	f2c0 0208 	movt	r2, #8
   80dba:	4790      	blx	r2
   80dbc:	e788      	b.n	80cd0 <xQueueGenericSend+0x58>
   80dbe:	4620      	mov	r0, r4
   80dc0:	f640 2329 	movw	r3, #2601	; 0xa29
   80dc4:	f2c0 0308 	movt	r3, #8
   80dc8:	4798      	blx	r3
   80dca:	f241 626d 	movw	r2, #5741	; 0x166d
   80dce:	f2c0 0208 	movt	r2, #8
   80dd2:	4790      	blx	r2
   80dd4:	e77c      	b.n	80cd0 <xQueueGenericSend+0x58>
   80dd6:	4620      	mov	r0, r4
   80dd8:	f640 2129 	movw	r1, #2601	; 0xa29
   80ddc:	f2c0 0108 	movt	r1, #8
   80de0:	4788      	blx	r1
   80de2:	f241 606d 	movw	r0, #5741	; 0x166d
   80de6:	f2c0 0008 	movt	r0, #8
   80dea:	4780      	blx	r0
   80dec:	f04f 0000 	mov.w	r0, #0
   80df0:	b005      	add	sp, #20
   80df2:	e8bd 8ff0 	ldmia.w	sp!, {r4, r5, r6, r7, r8, r9, sl, fp, pc}
   80df6:	bf00      	nop

00080df8 <xQueueGenericSendFromISR>:
   80df8:	e92d 41f0 	stmdb	sp!, {r4, r5, r6, r7, r8, lr}
   80dfc:	460e      	mov	r6, r1
   80dfe:	4615      	mov	r5, r2
   80e00:	4698      	mov	r8, r3
   80e02:	4604      	mov	r4, r0
   80e04:	b930      	cbnz	r0, 80e14 <xQueueGenericSendFromISR+0x1c>
   80e06:	f240 7561 	movw	r5, #1889	; 0x761
   80e0a:	f2c0 0508 	movt	r5, #8
   80e0e:	47a8      	blx	r5
   80e10:	bf00      	nop
   80e12:	e7fd      	b.n	80e10 <xQueueGenericSendFromISR+0x18>
   80e14:	b941      	cbnz	r1, 80e28 <xQueueGenericSendFromISR+0x30>
   80e16:	6c03      	ldr	r3, [r0, #64]	; 0x40
   80e18:	b133      	cbz	r3, 80e28 <xQueueGenericSendFromISR+0x30>
   80e1a:	f240 7061 	movw	r0, #1889	; 0x761
   80e1e:	f2c0 0008 	movt	r0, #8
   80e22:	4780      	blx	r0
   80e24:	bf00      	nop
   80e26:	e7fd      	b.n	80e24 <xQueueGenericSendFromISR+0x2c>
   80e28:	f240 7161 	movw	r1, #1889	; 0x761
   80e2c:	f2c0 0108 	movt	r1, #8
   80e30:	4788      	blx	r1
   80e32:	4607      	mov	r7, r0
   80e34:	6ba2      	ldr	r2, [r4, #56]	; 0x38
   80e36:	6be3      	ldr	r3, [r4, #60]	; 0x3c
   80e38:	429a      	cmp	r2, r3
   80e3a:	d221      	bcs.n	80e80 <xQueueGenericSendFromISR+0x88>
   80e3c:	4620      	mov	r0, r4
   80e3e:	4631      	mov	r1, r6
   80e40:	4642      	mov	r2, r8
   80e42:	f640 3305 	movw	r3, #2821	; 0xb05
   80e46:	f2c0 0308 	movt	r3, #8
   80e4a:	4798      	blx	r3
   80e4c:	6ca0      	ldr	r0, [r4, #72]	; 0x48
   80e4e:	f1b0 3fff 	cmp.w	r0, #4294967295
   80e52:	d10e      	bne.n	80e72 <xQueueGenericSendFromISR+0x7a>
   80e54:	6a62      	ldr	r2, [r4, #36]	; 0x24
   80e56:	b1b2      	cbz	r2, 80e86 <xQueueGenericSendFromISR+0x8e>
   80e58:	f104 0024 	add.w	r0, r4, #36	; 0x24
   80e5c:	f641 3401 	movw	r4, #6913	; 0x1b01
   80e60:	f2c0 0408 	movt	r4, #8
   80e64:	47a0      	blx	r4
   80e66:	b188      	cbz	r0, 80e8c <xQueueGenericSendFromISR+0x94>
   80e68:	b19d      	cbz	r5, 80e92 <xQueueGenericSendFromISR+0x9a>
   80e6a:	f04f 0401 	mov.w	r4, #1
   80e6e:	602c      	str	r4, [r5, #0]
   80e70:	e011      	b.n	80e96 <xQueueGenericSendFromISR+0x9e>
   80e72:	6ca1      	ldr	r1, [r4, #72]	; 0x48
   80e74:	f101 0101 	add.w	r1, r1, #1
   80e78:	64a1      	str	r1, [r4, #72]	; 0x48
   80e7a:	f04f 0401 	mov.w	r4, #1
   80e7e:	e00a      	b.n	80e96 <xQueueGenericSendFromISR+0x9e>
   80e80:	f04f 0400 	mov.w	r4, #0
   80e84:	e007      	b.n	80e96 <xQueueGenericSendFromISR+0x9e>
   80e86:	f04f 0401 	mov.w	r4, #1
   80e8a:	e004      	b.n	80e96 <xQueueGenericSendFromISR+0x9e>
   80e8c:	f04f 0401 	mov.w	r4, #1
   80e90:	e001      	b.n	80e96 <xQueueGenericSendFromISR+0x9e>
   80e92:	f04f 0401 	mov.w	r4, #1
   80e96:	4638      	mov	r0, r7
   80e98:	f240 7395 	movw	r3, #1941	; 0x795
   80e9c:	f2c0 0308 	movt	r3, #8
   80ea0:	4798      	blx	r3
   80ea2:	4620      	mov	r0, r4
   80ea4:	e8bd 81f0 	ldmia.w	sp!, {r4, r5, r6, r7, r8, pc}

00080ea8 <xQueueGenericReceive>:
   80ea8:	e92d 4ff0 	stmdb	sp!, {r4, r5, r6, r7, r8, r9, sl, fp, lr}
   80eac:	b085      	sub	sp, #20
   80eae:	4689      	mov	r9, r1
   80eb0:	469a      	mov	sl, r3
   80eb2:	f8ad 2006 	strh.w	r2, [sp, #6]
   80eb6:	4604      	mov	r4, r0
   80eb8:	b930      	cbnz	r0, 80ec8 <xQueueGenericReceive+0x20>
   80eba:	f240 7461 	movw	r4, #1889	; 0x761
   80ebe:	f2c0 0408 	movt	r4, #8
   80ec2:	47a0      	blx	r4
   80ec4:	bf00      	nop
   80ec6:	e7fd      	b.n	80ec4 <xQueueGenericReceive+0x1c>
   80ec8:	b941      	cbnz	r1, 80edc <xQueueGenericReceive+0x34>
   80eca:	6c03      	ldr	r3, [r0, #64]	; 0x40
   80ecc:	b14b      	cbz	r3, 80ee2 <xQueueGenericReceive+0x3a>
   80ece:	f240 7061 	movw	r0, #1889	; 0x761
   80ed2:	f2c0 0008 	movt	r0, #8
   80ed6:	4780      	blx	r0
   80ed8:	bf00      	nop
   80eda:	e7fd      	b.n	80ed8 <xQueueGenericReceive+0x30>
   80edc:	f04f 0700 	mov.w	r7, #0
   80ee0:	e001      	b.n	80ee6 <xQueueGenericReceive+0x3e>
   80ee2:	f04f 0700 	mov.w	r7, #0
   80ee6:	f240 7675 	movw	r6, #1909	; 0x775
   80eea:	f2c0 0608 	movt	r6, #8
   80eee:	f641 3ba9 	movw	fp, #7081	; 0x1ba9
   80ef2:	f2c0 0b08 	movt	fp, #8
   80ef6:	f240 759d 	movw	r5, #1949	; 0x79d
   80efa:	f2c0 0508 	movt	r5, #8
   80efe:	47b0      	blx	r6
   80f00:	6ba1      	ldr	r1, [r4, #56]	; 0x38
   80f02:	2900      	cmp	r1, #0
   80f04:	d03f      	beq.n	80f86 <xQueueGenericReceive+0xde>
   80f06:	68e5      	ldr	r5, [r4, #12]
   80f08:	4620      	mov	r0, r4
   80f0a:	4649      	mov	r1, r9
   80f0c:	f640 23dd 	movw	r3, #2781	; 0xadd
   80f10:	f2c0 0308 	movt	r3, #8
   80f14:	4798      	blx	r3
   80f16:	f1ba 0f00 	cmp.w	sl, #0
   80f1a:	d11c      	bne.n	80f56 <xQueueGenericReceive+0xae>
   80f1c:	6ba3      	ldr	r3, [r4, #56]	; 0x38
   80f1e:	f103 30ff 	add.w	r0, r3, #4294967295
   80f22:	63a0      	str	r0, [r4, #56]	; 0x38
   80f24:	6821      	ldr	r1, [r4, #0]
   80f26:	b929      	cbnz	r1, 80f34 <xQueueGenericReceive+0x8c>
   80f28:	f641 429d 	movw	r2, #7325	; 0x1c9d
   80f2c:	f2c0 0208 	movt	r2, #8
   80f30:	4790      	blx	r2
   80f32:	6060      	str	r0, [r4, #4]
   80f34:	6923      	ldr	r3, [r4, #16]
   80f36:	b1f3      	cbz	r3, 80f76 <xQueueGenericReceive+0xce>
   80f38:	f104 0010 	add.w	r0, r4, #16
   80f3c:	f641 3101 	movw	r1, #6913	; 0x1b01
   80f40:	f2c0 0108 	movt	r1, #8
   80f44:	4788      	blx	r1
   80f46:	2801      	cmp	r0, #1
   80f48:	d115      	bne.n	80f76 <xQueueGenericReceive+0xce>
   80f4a:	f240 7051 	movw	r0, #1873	; 0x751
   80f4e:	f2c0 0008 	movt	r0, #8
   80f52:	4780      	blx	r0
   80f54:	e00f      	b.n	80f76 <xQueueGenericReceive+0xce>
   80f56:	60e5      	str	r5, [r4, #12]
   80f58:	6a60      	ldr	r0, [r4, #36]	; 0x24
   80f5a:	b160      	cbz	r0, 80f76 <xQueueGenericReceive+0xce>
   80f5c:	f104 0024 	add.w	r0, r4, #36	; 0x24
   80f60:	f641 3101 	movw	r1, #6913	; 0x1b01
   80f64:	f2c0 0108 	movt	r1, #8
   80f68:	4788      	blx	r1
   80f6a:	b120      	cbz	r0, 80f76 <xQueueGenericReceive+0xce>
   80f6c:	f240 7251 	movw	r2, #1873	; 0x751
   80f70:	f2c0 0208 	movt	r2, #8
   80f74:	4790      	blx	r2
   80f76:	f240 729d 	movw	r2, #1949	; 0x79d
   80f7a:	f2c0 0208 	movt	r2, #8
   80f7e:	4790      	blx	r2
   80f80:	f04f 0001 	mov.w	r0, #1
   80f84:	e074      	b.n	81070 <xQueueGenericReceive+0x1c8>
   80f86:	f8bd 2006 	ldrh.w	r2, [sp, #6]
   80f8a:	b93a      	cbnz	r2, 80f9c <xQueueGenericReceive+0xf4>
   80f8c:	f240 729d 	movw	r2, #1949	; 0x79d
   80f90:	f2c0 0208 	movt	r2, #8
   80f94:	4790      	blx	r2
   80f96:	f04f 0000 	mov.w	r0, #0
   80f9a:	e069      	b.n	81070 <xQueueGenericReceive+0x1c8>
   80f9c:	b91f      	cbnz	r7, 80fa6 <xQueueGenericReceive+0xfe>
   80f9e:	a802      	add	r0, sp, #8
   80fa0:	47d8      	blx	fp
   80fa2:	f04f 0701 	mov.w	r7, #1
   80fa6:	47a8      	blx	r5
   80fa8:	f241 4395 	movw	r3, #5269	; 0x1495
   80fac:	f2c0 0308 	movt	r3, #8
   80fb0:	4798      	blx	r3
   80fb2:	47b0      	blx	r6
   80fb4:	6c60      	ldr	r0, [r4, #68]	; 0x44
   80fb6:	f1b0 3fff 	cmp.w	r0, #4294967295
   80fba:	bf04      	itt	eq
   80fbc:	2000      	moveq	r0, #0
   80fbe:	6460      	streq	r0, [r4, #68]	; 0x44
   80fc0:	6ca1      	ldr	r1, [r4, #72]	; 0x48
   80fc2:	f1b1 3fff 	cmp.w	r1, #4294967295
   80fc6:	bf04      	itt	eq
   80fc8:	2100      	moveq	r1, #0
   80fca:	64a1      	streq	r1, [r4, #72]	; 0x48
   80fcc:	47a8      	blx	r5
   80fce:	a802      	add	r0, sp, #8
   80fd0:	f10d 0106 	add.w	r1, sp, #6
   80fd4:	f641 32d9 	movw	r2, #7129	; 0x1bd9
   80fd8:	f2c0 0208 	movt	r2, #8
   80fdc:	4790      	blx	r2
   80fde:	2800      	cmp	r0, #0
   80fe0:	d139      	bne.n	81056 <xQueueGenericReceive+0x1ae>
   80fe2:	47b0      	blx	r6
   80fe4:	f8d4 8038 	ldr.w	r8, [r4, #56]	; 0x38
   80fe8:	47a8      	blx	r5
   80fea:	f1b8 0f00 	cmp.w	r8, #0
   80fee:	d126      	bne.n	8103e <xQueueGenericReceive+0x196>
   80ff0:	6823      	ldr	r3, [r4, #0]
   80ff2:	b93b      	cbnz	r3, 81004 <xQueueGenericReceive+0x15c>
   80ff4:	47b0      	blx	r6
   80ff6:	6860      	ldr	r0, [r4, #4]
   80ff8:	f641 41d1 	movw	r1, #7377	; 0x1cd1
   80ffc:	f2c0 0108 	movt	r1, #8
   81000:	4788      	blx	r1
   81002:	47a8      	blx	r5
   81004:	f104 0024 	add.w	r0, r4, #36	; 0x24
   81008:	f8bd 1006 	ldrh.w	r1, [sp, #6]
   8100c:	f641 2231 	movw	r2, #6705	; 0x1a31
   81010:	f2c0 0208 	movt	r2, #8
   81014:	4790      	blx	r2
   81016:	4620      	mov	r0, r4
   81018:	f640 2329 	movw	r3, #2601	; 0xa29
   8101c:	f2c0 0308 	movt	r3, #8
   81020:	4798      	blx	r3
   81022:	f241 606d 	movw	r0, #5741	; 0x166d
   81026:	f2c0 0008 	movt	r0, #8
   8102a:	4780      	blx	r0
   8102c:	2800      	cmp	r0, #0
   8102e:	f47f af66 	bne.w	80efe <xQueueGenericReceive+0x56>
   81032:	f240 7151 	movw	r1, #1873	; 0x751
   81036:	f2c0 0108 	movt	r1, #8
   8103a:	4788      	blx	r1
   8103c:	e75f      	b.n	80efe <xQueueGenericReceive+0x56>
   8103e:	4620      	mov	r0, r4
   81040:	f640 2129 	movw	r1, #2601	; 0xa29
   81044:	f2c0 0108 	movt	r1, #8
   81048:	4788      	blx	r1
   8104a:	f241 626d 	movw	r2, #5741	; 0x166d
   8104e:	f2c0 0208 	movt	r2, #8
   81052:	4790      	blx	r2
   81054:	e753      	b.n	80efe <xQueueGenericReceive+0x56>
   81056:	4620      	mov	r0, r4
   81058:	f640 2329 	movw	r3, #2601	; 0xa29
   8105c:	f2c0 0308 	movt	r3, #8
   81060:	4798      	blx	r3
   81062:	f241 606d 	movw	r0, #5741	; 0x166d
   81066:	f2c0 0008 	movt	r0, #8
   8106a:	4780      	blx	r0
   8106c:	f04f 0000 	mov.w	r0, #0
   81070:	b005      	add	sp, #20
   81072:	e8bd 8ff0 	ldmia.w	sp!, {r4, r5, r6, r7, r8, r9, sl, fp, pc}
   81076:	bf00      	nop

00081078 <vQueueWaitForMessageRestricted>:
   81078:	b538      	push	{r3, r4, r5, lr}
   8107a:	4604      	mov	r4, r0
   8107c:	460d      	mov	r5, r1
   8107e:	f240 7375 	movw	r3, #1909	; 0x775
   81082:	f2c0 0308 	movt	r3, #8
   81086:	4798      	blx	r3
   81088:	6c60      	ldr	r0, [r4, #68]	; 0x44
   8108a:	f1b0 3fff 	cmp.w	r0, #4294967295
   8108e:	bf04      	itt	eq
   81090:	2000      	moveq	r0, #0
   81092:	6460      	streq	r0, [r4, #68]	; 0x44
   81094:	6ca1      	ldr	r1, [r4, #72]	; 0x48
   81096:	f1b1 3fff 	cmp.w	r1, #4294967295
   8109a:	bf04      	itt	eq
   8109c:	2100      	moveq	r1, #0
   8109e:	64a1      	streq	r1, [r4, #72]	; 0x48
   810a0:	f240 729d 	movw	r2, #1949	; 0x79d
   810a4:	f2c0 0208 	movt	r2, #8
   810a8:	4790      	blx	r2
   810aa:	6ba3      	ldr	r3, [r4, #56]	; 0x38
   810ac:	b93b      	cbnz	r3, 810be <vQueueWaitForMessageRestricted+0x46>
   810ae:	f104 0024 	add.w	r0, r4, #36	; 0x24
   810b2:	4629      	mov	r1, r5
   810b4:	f641 22a9 	movw	r2, #6825	; 0x1aa9
   810b8:	f2c0 0208 	movt	r2, #8
   810bc:	4790      	blx	r2
   810be:	4620      	mov	r0, r4
   810c0:	f640 2129 	movw	r1, #2601	; 0xa29
   810c4:	f2c0 0108 	movt	r1, #8
   810c8:	4788      	blx	r1
   810ca:	bd38      	pop	{r3, r4, r5, pc}

000810cc <prvAddCurrentTaskToDelayedList>:
   810cc:	b510      	push	{r4, lr}
   810ce:	4604      	mov	r4, r0
   810d0:	f648 2338 	movw	r3, #35384	; 0x8a38
   810d4:	f2c2 0307 	movt	r3, #8199	; 0x2007
   810d8:	6818      	ldr	r0, [r3, #0]
   810da:	8084      	strh	r4, [r0, #4]
   810dc:	f648 2154 	movw	r1, #35412	; 0x8a54
   810e0:	f2c2 0107 	movt	r1, #8199	; 0x2007
   810e4:	880a      	ldrh	r2, [r1, #0]
   810e6:	b293      	uxth	r3, r2
   810e8:	429c      	cmp	r4, r3
   810ea:	d211      	bcs.n	81110 <prvAddCurrentTaskToDelayedList+0x44>
   810ec:	f648 2358 	movw	r3, #35416	; 0x8a58
   810f0:	f2c2 0307 	movt	r3, #8199	; 0x2007
   810f4:	6818      	ldr	r0, [r3, #0]
   810f6:	f648 2138 	movw	r1, #35384	; 0x8a38
   810fa:	f2c2 0107 	movt	r1, #8199	; 0x2007
   810fe:	6809      	ldr	r1, [r1, #0]
   81100:	f101 0104 	add.w	r1, r1, #4
   81104:	f240 628d 	movw	r2, #1677	; 0x68d
   81108:	f2c0 0208 	movt	r2, #8
   8110c:	4790      	blx	r2
   8110e:	bd10      	pop	{r4, pc}
   81110:	f648 1034 	movw	r0, #35124	; 0x8934
   81114:	f2c2 0007 	movt	r0, #8199	; 0x2007
   81118:	6800      	ldr	r0, [r0, #0]
   8111a:	f648 2138 	movw	r1, #35384	; 0x8a38
   8111e:	f2c2 0107 	movt	r1, #8199	; 0x2007
   81122:	6809      	ldr	r1, [r1, #0]
   81124:	f101 0104 	add.w	r1, r1, #4
   81128:	f240 628d 	movw	r2, #1677	; 0x68d
   8112c:	f2c0 0208 	movt	r2, #8
   81130:	4790      	blx	r2
   81132:	f240 0308 	movw	r3, #8
   81136:	f2c2 0307 	movt	r3, #8199	; 0x2007
   8113a:	8818      	ldrh	r0, [r3, #0]
   8113c:	b281      	uxth	r1, r0
   8113e:	428c      	cmp	r4, r1
   81140:	d204      	bcs.n	8114c <prvAddCurrentTaskToDelayedList+0x80>
   81142:	f240 0208 	movw	r2, #8
   81146:	f2c2 0207 	movt	r2, #8199	; 0x2007
   8114a:	8014      	strh	r4, [r2, #0]
   8114c:	bd10      	pop	{r4, pc}
   8114e:	bf00      	nop

00081150 <xTaskGenericCreate>:
   81150:	e92d 4ff8 	stmdb	sp!, {r3, r4, r5, r6, r7, r8, r9, sl, fp, lr}
   81154:	460f      	mov	r7, r1
   81156:	4690      	mov	r8, r2
   81158:	469a      	mov	sl, r3
   8115a:	9d0a      	ldr	r5, [sp, #40]	; 0x28
   8115c:	9e0c      	ldr	r6, [sp, #48]	; 0x30
   8115e:	4681      	mov	r9, r0
   81160:	b930      	cbnz	r0, 81170 <xTaskGenericCreate+0x20>
   81162:	f240 7761 	movw	r7, #1889	; 0x761
   81166:	f2c0 0708 	movt	r7, #8
   8116a:	47b8      	blx	r7
   8116c:	bf00      	nop
   8116e:	e7fd      	b.n	8116c <xTaskGenericCreate+0x1c>
   81170:	2d09      	cmp	r5, #9
   81172:	d906      	bls.n	81182 <xTaskGenericCreate+0x32>
   81174:	f240 7561 	movw	r5, #1889	; 0x761
   81178:	f2c0 0508 	movt	r5, #8
   8117c:	47a8      	blx	r5
   8117e:	bf00      	nop
   81180:	e7fd      	b.n	8117e <xTaskGenericCreate+0x2e>
   81182:	f04f 0050 	mov.w	r0, #80	; 0x50
   81186:	f640 03f1 	movw	r3, #2289	; 0x8f1
   8118a:	f2c0 0308 	movt	r3, #8
   8118e:	4798      	blx	r3
   81190:	4604      	mov	r4, r0
   81192:	2800      	cmp	r0, #0
   81194:	f000 8136 	beq.w	81404 <xTaskGenericCreate+0x2b4>
   81198:	2e00      	cmp	r6, #0
   8119a:	f040 8131 	bne.w	81400 <xTaskGenericCreate+0x2b0>
   8119e:	ea4f 0088 	mov.w	r0, r8, lsl #2
   811a2:	f640 01f1 	movw	r1, #2289	; 0x8f1
   811a6:	f2c0 0108 	movt	r1, #8
   811aa:	4788      	blx	r1
   811ac:	4606      	mov	r6, r0
   811ae:	6320      	str	r0, [r4, #48]	; 0x30
   811b0:	b930      	cbnz	r0, 811c0 <xTaskGenericCreate+0x70>
   811b2:	4620      	mov	r0, r4
   811b4:	f640 12ed 	movw	r2, #2541	; 0x9ed
   811b8:	f2c0 0208 	movt	r2, #8
   811bc:	4790      	blx	r2
   811be:	e121      	b.n	81404 <xTaskGenericCreate+0x2b4>
   811c0:	4630      	mov	r0, r6
   811c2:	f04f 01a5 	mov.w	r1, #165	; 0xa5
   811c6:	ea4f 0288 	mov.w	r2, r8, lsl #2
   811ca:	f244 667f 	movw	r6, #18047	; 0x467f
   811ce:	f2c0 0608 	movt	r6, #8
   811d2:	47b0      	blx	r6
   811d4:	f108 38ff 	add.w	r8, r8, #4294967295
   811d8:	6b20      	ldr	r0, [r4, #48]	; 0x30
   811da:	eb00 0288 	add.w	r2, r0, r8, lsl #2
   811de:	f022 0b07 	bic.w	fp, r2, #7
   811e2:	f104 0034 	add.w	r0, r4, #52	; 0x34
   811e6:	4639      	mov	r1, r7
   811e8:	f04f 0210 	mov.w	r2, #16
   811ec:	f644 0725 	movw	r7, #18469	; 0x4825
   811f0:	f2c0 0708 	movt	r7, #8
   811f4:	47b8      	blx	r7
   811f6:	f04f 0300 	mov.w	r3, #0
   811fa:	f884 3043 	strb.w	r3, [r4, #67]	; 0x43
   811fe:	2d09      	cmp	r5, #9
   81200:	bf34      	ite	cc
   81202:	462e      	movcc	r6, r5
   81204:	2609      	movcs	r6, #9
   81206:	62e6      	str	r6, [r4, #44]	; 0x2c
   81208:	64e6      	str	r6, [r4, #76]	; 0x4c
   8120a:	f104 0704 	add.w	r7, r4, #4
   8120e:	4638      	mov	r0, r7
   81210:	f240 6865 	movw	r8, #1637	; 0x665
   81214:	f2c0 0808 	movt	r8, #8
   81218:	47c0      	blx	r8
   8121a:	f104 0018 	add.w	r0, r4, #24
   8121e:	47c0      	blx	r8
   81220:	6124      	str	r4, [r4, #16]
   81222:	f1c6 060a 	rsb	r6, r6, #10
   81226:	8326      	strh	r6, [r4, #24]
   81228:	6264      	str	r4, [r4, #36]	; 0x24
   8122a:	4658      	mov	r0, fp
   8122c:	4649      	mov	r1, r9
   8122e:	4652      	mov	r2, sl
   81230:	f240 7311 	movw	r3, #1809	; 0x711
   81234:	f2c0 0308 	movt	r3, #8
   81238:	4798      	blx	r3
   8123a:	6020      	str	r0, [r4, #0]
   8123c:	f010 0f07 	tst.w	r0, #7
   81240:	d006      	beq.n	81250 <xTaskGenericCreate+0x100>
   81242:	f240 7461 	movw	r4, #1889	; 0x761
   81246:	f2c0 0408 	movt	r4, #8
   8124a:	47a0      	blx	r4
   8124c:	bf00      	nop
   8124e:	e7fd      	b.n	8124c <xTaskGenericCreate+0xfc>
   81250:	990b      	ldr	r1, [sp, #44]	; 0x2c
   81252:	b101      	cbz	r1, 81256 <xTaskGenericCreate+0x106>
   81254:	600c      	str	r4, [r1, #0]
   81256:	f240 7075 	movw	r0, #1909	; 0x775
   8125a:	f2c0 0008 	movt	r0, #8
   8125e:	4780      	blx	r0
   81260:	f648 2378 	movw	r3, #35448	; 0x8a78
   81264:	f2c2 0307 	movt	r3, #8199	; 0x2007
   81268:	681a      	ldr	r2, [r3, #0]
   8126a:	f102 0201 	add.w	r2, r2, #1
   8126e:	601a      	str	r2, [r3, #0]
   81270:	f648 2138 	movw	r1, #35384	; 0x8a38
   81274:	f2c2 0107 	movt	r1, #8199	; 0x2007
   81278:	6808      	ldr	r0, [r1, #0]
   8127a:	2800      	cmp	r0, #0
   8127c:	d158      	bne.n	81330 <xTaskGenericCreate+0x1e0>
   8127e:	f648 2138 	movw	r1, #35384	; 0x8a38
   81282:	f2c2 0107 	movt	r1, #8199	; 0x2007
   81286:	600c      	str	r4, [r1, #0]
   81288:	f648 2078 	movw	r0, #35448	; 0x8a78
   8128c:	f2c2 0007 	movt	r0, #8199	; 0x2007
   81290:	6803      	ldr	r3, [r0, #0]
   81292:	2b01      	cmp	r3, #1
   81294:	d15f      	bne.n	81356 <xTaskGenericCreate+0x206>
   81296:	f648 196c 	movw	r9, #35180	; 0x896c
   8129a:	f2c2 0907 	movt	r9, #8199	; 0x2007
   8129e:	4648      	mov	r0, r9
   812a0:	f240 664d 	movw	r6, #1613	; 0x64d
   812a4:	f2c0 0608 	movt	r6, #8
   812a8:	47b0      	blx	r6
   812aa:	f109 0014 	add.w	r0, r9, #20
   812ae:	47b0      	blx	r6
   812b0:	f109 0028 	add.w	r0, r9, #40	; 0x28
   812b4:	47b0      	blx	r6
   812b6:	f109 003c 	add.w	r0, r9, #60	; 0x3c
   812ba:	47b0      	blx	r6
   812bc:	f109 0050 	add.w	r0, r9, #80	; 0x50
   812c0:	47b0      	blx	r6
   812c2:	f109 0064 	add.w	r0, r9, #100	; 0x64
   812c6:	47b0      	blx	r6
   812c8:	f109 0078 	add.w	r0, r9, #120	; 0x78
   812cc:	47b0      	blx	r6
   812ce:	f109 008c 	add.w	r0, r9, #140	; 0x8c
   812d2:	47b0      	blx	r6
   812d4:	f109 00a0 	add.w	r0, r9, #160	; 0xa0
   812d8:	47b0      	blx	r6
   812da:	f109 00b4 	add.w	r0, r9, #180	; 0xb4
   812de:	47b0      	blx	r6
   812e0:	f648 2960 	movw	r9, #35424	; 0x8a60
   812e4:	f2c2 0907 	movt	r9, #8199	; 0x2007
   812e8:	4648      	mov	r0, r9
   812ea:	47b0      	blx	r6
   812ec:	f648 1854 	movw	r8, #35156	; 0x8954
   812f0:	f2c2 0807 	movt	r8, #8199	; 0x2007
   812f4:	4640      	mov	r0, r8
   812f6:	47b0      	blx	r6
   812f8:	f648 203c 	movw	r0, #35388	; 0x8a3c
   812fc:	f2c2 0007 	movt	r0, #8199	; 0x2007
   81300:	47b0      	blx	r6
   81302:	f648 1040 	movw	r0, #35136	; 0x8940
   81306:	f2c2 0007 	movt	r0, #8199	; 0x2007
   8130a:	47b0      	blx	r6
   8130c:	f648 1020 	movw	r0, #35104	; 0x8920
   81310:	f2c2 0007 	movt	r0, #8199	; 0x2007
   81314:	47b0      	blx	r6
   81316:	f648 1234 	movw	r2, #35124	; 0x8934
   8131a:	f2c2 0207 	movt	r2, #8199	; 0x2007
   8131e:	f8c2 9000 	str.w	r9, [r2]
   81322:	f648 2158 	movw	r1, #35416	; 0x8a58
   81326:	f2c2 0107 	movt	r1, #8199	; 0x2007
   8132a:	f8c1 8000 	str.w	r8, [r1]
   8132e:	e012      	b.n	81356 <xTaskGenericCreate+0x206>
   81330:	f648 1338 	movw	r3, #35128	; 0x8938
   81334:	f2c2 0307 	movt	r3, #8199	; 0x2007
   81338:	681a      	ldr	r2, [r3, #0]
   8133a:	b962      	cbnz	r2, 81356 <xTaskGenericCreate+0x206>
   8133c:	f648 2138 	movw	r1, #35384	; 0x8a38
   81340:	f2c2 0107 	movt	r1, #8199	; 0x2007
   81344:	6808      	ldr	r0, [r1, #0]
   81346:	6ac3      	ldr	r3, [r0, #44]	; 0x2c
   81348:	429d      	cmp	r5, r3
   8134a:	d304      	bcc.n	81356 <xTaskGenericCreate+0x206>
   8134c:	f648 2238 	movw	r2, #35384	; 0x8a38
   81350:	f2c2 0207 	movt	r2, #8199	; 0x2007
   81354:	6014      	str	r4, [r2, #0]
   81356:	6ae0      	ldr	r0, [r4, #44]	; 0x2c
   81358:	f648 237c 	movw	r3, #35452	; 0x8a7c
   8135c:	f2c2 0307 	movt	r3, #8199	; 0x2007
   81360:	681a      	ldr	r2, [r3, #0]
   81362:	4290      	cmp	r0, r2
   81364:	d904      	bls.n	81370 <xTaskGenericCreate+0x220>
   81366:	f648 217c 	movw	r1, #35452	; 0x8a7c
   8136a:	f2c2 0107 	movt	r1, #8199	; 0x2007
   8136e:	6008      	str	r0, [r1, #0]
   81370:	f648 235c 	movw	r3, #35420	; 0x8a5c
   81374:	f2c2 0307 	movt	r3, #8199	; 0x2007
   81378:	681a      	ldr	r2, [r3, #0]
   8137a:	6462      	str	r2, [r4, #68]	; 0x44
   8137c:	f102 0201 	add.w	r2, r2, #1
   81380:	601a      	str	r2, [r3, #0]
   81382:	f648 1168 	movw	r1, #35176	; 0x8968
   81386:	f2c2 0107 	movt	r1, #8199	; 0x2007
   8138a:	680b      	ldr	r3, [r1, #0]
   8138c:	4298      	cmp	r0, r3
   8138e:	d904      	bls.n	8139a <xTaskGenericCreate+0x24a>
   81390:	f648 1268 	movw	r2, #35176	; 0x8968
   81394:	f2c2 0207 	movt	r2, #8199	; 0x2007
   81398:	6010      	str	r0, [r2, #0]
   8139a:	eb00 0180 	add.w	r1, r0, r0, lsl #2
   8139e:	f648 106c 	movw	r0, #35180	; 0x896c
   813a2:	4603      	mov	r3, r0
   813a4:	f2c2 0307 	movt	r3, #8199	; 0x2007
   813a8:	eb03 0081 	add.w	r0, r3, r1, lsl #2
   813ac:	4639      	mov	r1, r7
   813ae:	f240 626d 	movw	r2, #1645	; 0x66d
   813b2:	f2c0 0208 	movt	r2, #8
   813b6:	4790      	blx	r2
   813b8:	f240 719d 	movw	r1, #1949	; 0x79d
   813bc:	f2c0 0108 	movt	r1, #8
   813c0:	4788      	blx	r1
   813c2:	f648 1038 	movw	r0, #35128	; 0x8938
   813c6:	f2c2 0007 	movt	r0, #8199	; 0x2007
   813ca:	6803      	ldr	r3, [r0, #0]
   813cc:	b183      	cbz	r3, 813f0 <xTaskGenericCreate+0x2a0>
   813ce:	f648 2238 	movw	r2, #35384	; 0x8a38
   813d2:	f2c2 0207 	movt	r2, #8199	; 0x2007
   813d6:	6811      	ldr	r1, [r2, #0]
   813d8:	6ac8      	ldr	r0, [r1, #44]	; 0x2c
   813da:	4285      	cmp	r5, r0
   813dc:	d90c      	bls.n	813f8 <xTaskGenericCreate+0x2a8>
   813de:	f240 7351 	movw	r3, #1873	; 0x751
   813e2:	f2c0 0308 	movt	r3, #8
   813e6:	4798      	blx	r3
   813e8:	f04f 0001 	mov.w	r0, #1
   813ec:	e8bd 8ff8 	ldmia.w	sp!, {r3, r4, r5, r6, r7, r8, r9, sl, fp, pc}
   813f0:	f04f 0001 	mov.w	r0, #1
   813f4:	e8bd 8ff8 	ldmia.w	sp!, {r3, r4, r5, r6, r7, r8, r9, sl, fp, pc}
   813f8:	f04f 0001 	mov.w	r0, #1
   813fc:	e8bd 8ff8 	ldmia.w	sp!, {r3, r4, r5, r6, r7, r8, r9, sl, fp, pc}
   81400:	6306      	str	r6, [r0, #48]	; 0x30
   81402:	e6dd      	b.n	811c0 <xTaskGenericCreate+0x70>
   81404:	f04f 30ff 	mov.w	r0, #4294967295
   81408:	e8bd 8ff8 	ldmia.w	sp!, {r3, r4, r5, r6, r7, r8, r9, sl, fp, pc}

0008140c <vTaskStartScheduler>:
   8140c:	b510      	push	{r4, lr}
   8140e:	b084      	sub	sp, #16
   81410:	f04f 0300 	mov.w	r3, #0
   81414:	9300      	str	r3, [sp, #0]
   81416:	9301      	str	r3, [sp, #4]
   81418:	9302      	str	r3, [sp, #8]
   8141a:	9303      	str	r3, [sp, #12]
   8141c:	f241 70b9 	movw	r0, #6073	; 0x17b9
   81420:	f2c0 0008 	movt	r0, #8
   81424:	f647 6174 	movw	r1, #32372	; 0x7e74
   81428:	f2c0 0108 	movt	r1, #8
   8142c:	f44f 7280 	mov.w	r2, #256	; 0x100
   81430:	f241 1451 	movw	r4, #4433	; 0x1151
   81434:	f2c0 0408 	movt	r4, #8
   81438:	47a0      	blx	r4
   8143a:	2801      	cmp	r0, #1
   8143c:	d11f      	bne.n	8147e <vTaskStartScheduler+0x72>
   8143e:	f641 63b9 	movw	r3, #7865	; 0x1eb9
   81442:	f2c0 0308 	movt	r3, #8
   81446:	4798      	blx	r3
   81448:	2801      	cmp	r0, #1
   8144a:	d118      	bne.n	8147e <vTaskStartScheduler+0x72>
   8144c:	f240 7161 	movw	r1, #1889	; 0x761
   81450:	f2c0 0108 	movt	r1, #8
   81454:	4788      	blx	r1
   81456:	f648 1338 	movw	r3, #35128	; 0x8938
   8145a:	f2c2 0307 	movt	r3, #8199	; 0x2007
   8145e:	f04f 0201 	mov.w	r2, #1
   81462:	601a      	str	r2, [r3, #0]
   81464:	f648 2054 	movw	r0, #35412	; 0x8a54
   81468:	f2c2 0007 	movt	r0, #8199	; 0x2007
   8146c:	f04f 0100 	mov.w	r1, #0
   81470:	8001      	strh	r1, [r0, #0]
   81472:	f640 0355 	movw	r3, #2133	; 0x855
   81476:	f2c0 0308 	movt	r3, #8
   8147a:	4798      	blx	r3
   8147c:	e007      	b.n	8148e <vTaskStartScheduler+0x82>
   8147e:	b930      	cbnz	r0, 8148e <vTaskStartScheduler+0x82>
   81480:	f240 7061 	movw	r0, #1889	; 0x761
   81484:	f2c0 0008 	movt	r0, #8
   81488:	4780      	blx	r0
   8148a:	bf00      	nop
   8148c:	e7fd      	b.n	8148a <vTaskStartScheduler+0x7e>
   8148e:	b004      	add	sp, #16
   81490:	bd10      	pop	{r4, pc}
   81492:	bf00      	nop

00081494 <vTaskSuspendAll>:
   81494:	f648 2334 	movw	r3, #35380	; 0x8a34
   81498:	f2c2 0307 	movt	r3, #8199	; 0x2007
   8149c:	681a      	ldr	r2, [r3, #0]
   8149e:	f102 0201 	add.w	r2, r2, #1
   814a2:	601a      	str	r2, [r3, #0]
   814a4:	4770      	bx	lr
   814a6:	bf00      	nop

000814a8 <xTaskGetTickCount>:
   814a8:	b510      	push	{r4, lr}
   814aa:	f240 7375 	movw	r3, #1909	; 0x775
   814ae:	f2c0 0308 	movt	r3, #8
   814b2:	4798      	blx	r3
   814b4:	f648 2054 	movw	r0, #35412	; 0x8a54
   814b8:	f2c2 0007 	movt	r0, #8199	; 0x2007
   814bc:	8804      	ldrh	r4, [r0, #0]
   814be:	b2a4      	uxth	r4, r4
   814c0:	f240 719d 	movw	r1, #1949	; 0x79d
   814c4:	f2c0 0108 	movt	r1, #8
   814c8:	4788      	blx	r1
   814ca:	4620      	mov	r0, r4
   814cc:	bd10      	pop	{r4, pc}
   814ce:	bf00      	nop

000814d0 <vTaskIncrementTick>:
   814d0:	e92d 4ff8 	stmdb	sp!, {r3, r4, r5, r6, r7, r8, r9, sl, fp, lr}
   814d4:	f648 2334 	movw	r3, #35380	; 0x8a34
   814d8:	f2c2 0307 	movt	r3, #8199	; 0x2007
   814dc:	6818      	ldr	r0, [r3, #0]
   814de:	2800      	cmp	r0, #0
   814e0:	f040 80b9 	bne.w	81656 <vTaskIncrementTick+0x186>
   814e4:	f648 2354 	movw	r3, #35412	; 0x8a54
   814e8:	f2c2 0307 	movt	r3, #8199	; 0x2007
   814ec:	8818      	ldrh	r0, [r3, #0]
   814ee:	f100 0001 	add.w	r0, r0, #1
   814f2:	b281      	uxth	r1, r0
   814f4:	8019      	strh	r1, [r3, #0]
   814f6:	881a      	ldrh	r2, [r3, #0]
   814f8:	b293      	uxth	r3, r2
   814fa:	2b00      	cmp	r3, #0
   814fc:	d139      	bne.n	81572 <vTaskIncrementTick+0xa2>
   814fe:	f648 1034 	movw	r0, #35124	; 0x8934
   81502:	f2c2 0007 	movt	r0, #8199	; 0x2007
   81506:	6801      	ldr	r1, [r0, #0]
   81508:	680a      	ldr	r2, [r1, #0]
   8150a:	b132      	cbz	r2, 8151a <vTaskIncrementTick+0x4a>
   8150c:	f240 7561 	movw	r5, #1889	; 0x761
   81510:	f2c0 0508 	movt	r5, #8
   81514:	47a8      	blx	r5
   81516:	bf00      	nop
   81518:	e7fd      	b.n	81516 <vTaskIncrementTick+0x46>
   8151a:	f648 1334 	movw	r3, #35124	; 0x8934
   8151e:	f2c2 0307 	movt	r3, #8199	; 0x2007
   81522:	6819      	ldr	r1, [r3, #0]
   81524:	f648 2258 	movw	r2, #35416	; 0x8a58
   81528:	f2c2 0207 	movt	r2, #8199	; 0x2007
   8152c:	6810      	ldr	r0, [r2, #0]
   8152e:	6018      	str	r0, [r3, #0]
   81530:	6011      	str	r1, [r2, #0]
   81532:	f648 2250 	movw	r2, #35408	; 0x8a50
   81536:	f2c2 0207 	movt	r2, #8199	; 0x2007
   8153a:	6811      	ldr	r1, [r2, #0]
   8153c:	f101 0101 	add.w	r1, r1, #1
   81540:	6011      	str	r1, [r2, #0]
   81542:	681b      	ldr	r3, [r3, #0]
   81544:	6818      	ldr	r0, [r3, #0]
   81546:	b938      	cbnz	r0, 81558 <vTaskIncrementTick+0x88>
   81548:	f240 0308 	movw	r3, #8
   8154c:	f2c2 0307 	movt	r3, #8199	; 0x2007
   81550:	f64f 70ff 	movw	r0, #65535	; 0xffff
   81554:	8018      	strh	r0, [r3, #0]
   81556:	e00c      	b.n	81572 <vTaskIncrementTick+0xa2>
   81558:	f648 1234 	movw	r2, #35124	; 0x8934
   8155c:	f2c2 0207 	movt	r2, #8199	; 0x2007
   81560:	6811      	ldr	r1, [r2, #0]
   81562:	68cb      	ldr	r3, [r1, #12]
   81564:	68d8      	ldr	r0, [r3, #12]
   81566:	8882      	ldrh	r2, [r0, #4]
   81568:	f240 0108 	movw	r1, #8
   8156c:	f2c2 0107 	movt	r1, #8199	; 0x2007
   81570:	800a      	strh	r2, [r1, #0]
   81572:	f648 2254 	movw	r2, #35412	; 0x8a54
   81576:	f2c2 0207 	movt	r2, #8199	; 0x2007
   8157a:	8811      	ldrh	r1, [r2, #0]
   8157c:	b288      	uxth	r0, r1
   8157e:	f240 0308 	movw	r3, #8
   81582:	f2c2 0307 	movt	r3, #8199	; 0x2007
   81586:	881a      	ldrh	r2, [r3, #0]
   81588:	b291      	uxth	r1, r2
   8158a:	4288      	cmp	r0, r1
   8158c:	d36b      	bcc.n	81666 <vTaskIncrementTick+0x196>
   8158e:	f648 1034 	movw	r0, #35124	; 0x8934
   81592:	f2c2 0007 	movt	r0, #8199	; 0x2007
   81596:	6803      	ldr	r3, [r0, #0]
   81598:	681a      	ldr	r2, [r3, #0]
   8159a:	b182      	cbz	r2, 815be <vTaskIncrementTick+0xee>
   8159c:	f648 1434 	movw	r4, #35124	; 0x8934
   815a0:	f2c2 0407 	movt	r4, #8199	; 0x2007
   815a4:	6821      	ldr	r1, [r4, #0]
   815a6:	68c8      	ldr	r0, [r1, #12]
   815a8:	68c4      	ldr	r4, [r0, #12]
   815aa:	88a3      	ldrh	r3, [r4, #4]
   815ac:	f648 2254 	movw	r2, #35412	; 0x8a54
   815b0:	f2c2 0207 	movt	r2, #8199	; 0x2007
   815b4:	8811      	ldrh	r1, [r2, #0]
   815b6:	b288      	uxth	r0, r1
   815b8:	4283      	cmp	r3, r0
   815ba:	d91b      	bls.n	815f4 <vTaskIncrementTick+0x124>
   815bc:	e013      	b.n	815e6 <vTaskIncrementTick+0x116>
   815be:	f240 0308 	movw	r3, #8
   815c2:	f2c2 0307 	movt	r3, #8199	; 0x2007
   815c6:	f64f 71ff 	movw	r1, #65535	; 0xffff
   815ca:	8019      	strh	r1, [r3, #0]
   815cc:	e8bd 8ff8 	ldmia.w	sp!, {r3, r4, r5, r6, r7, r8, r9, sl, fp, pc}
   815d0:	6834      	ldr	r4, [r6, #0]
   815d2:	68e2      	ldr	r2, [r4, #12]
   815d4:	68d4      	ldr	r4, [r2, #12]
   815d6:	88a3      	ldrh	r3, [r4, #4]
   815d8:	4648      	mov	r0, r9
   815da:	f2c2 0007 	movt	r0, #8199	; 0x2007
   815de:	8801      	ldrh	r1, [r0, #0]
   815e0:	b28a      	uxth	r2, r1
   815e2:	4293      	cmp	r3, r2
   815e4:	d91c      	bls.n	81620 <vTaskIncrementTick+0x150>
   815e6:	f240 0008 	movw	r0, #8
   815ea:	f2c2 0007 	movt	r0, #8199	; 0x2007
   815ee:	8003      	strh	r3, [r0, #0]
   815f0:	e8bd 8ff8 	ldmia.w	sp!, {r3, r4, r5, r6, r7, r8, r9, sl, fp, pc}
   815f4:	f240 67d1 	movw	r7, #1745	; 0x6d1
   815f8:	f2c0 0708 	movt	r7, #8
   815fc:	f648 1868 	movw	r8, #35176	; 0x8968
   81600:	f2c2 0807 	movt	r8, #8199	; 0x2007
   81604:	f648 1b6c 	movw	fp, #35180	; 0x896c
   81608:	f2c2 0b07 	movt	fp, #8199	; 0x2007
   8160c:	f240 6a6d 	movw	sl, #1645	; 0x66d
   81610:	f2c0 0a08 	movt	sl, #8
   81614:	f648 1634 	movw	r6, #35124	; 0x8934
   81618:	f2c2 0607 	movt	r6, #8199	; 0x2007
   8161c:	f648 2954 	movw	r9, #35412	; 0x8a54
   81620:	f104 0504 	add.w	r5, r4, #4
   81624:	4628      	mov	r0, r5
   81626:	47b8      	blx	r7
   81628:	6aa3      	ldr	r3, [r4, #40]	; 0x28
   8162a:	b113      	cbz	r3, 81632 <vTaskIncrementTick+0x162>
   8162c:	f104 0018 	add.w	r0, r4, #24
   81630:	47b8      	blx	r7
   81632:	6ae1      	ldr	r1, [r4, #44]	; 0x2c
   81634:	f8d8 2000 	ldr.w	r2, [r8]
   81638:	4291      	cmp	r1, r2
   8163a:	bf88      	it	hi
   8163c:	f8c8 1000 	strhi.w	r1, [r8]
   81640:	eb01 0081 	add.w	r0, r1, r1, lsl #2
   81644:	eb0b 0080 	add.w	r0, fp, r0, lsl #2
   81648:	4629      	mov	r1, r5
   8164a:	47d0      	blx	sl
   8164c:	6833      	ldr	r3, [r6, #0]
   8164e:	6819      	ldr	r1, [r3, #0]
   81650:	2900      	cmp	r1, #0
   81652:	d1bd      	bne.n	815d0 <vTaskIncrementTick+0x100>
   81654:	e7b3      	b.n	815be <vTaskIncrementTick+0xee>
   81656:	f648 111c 	movw	r1, #35100	; 0x891c
   8165a:	f2c2 0107 	movt	r1, #8199	; 0x2007
   8165e:	680a      	ldr	r2, [r1, #0]
   81660:	f102 0201 	add.w	r2, r2, #1
   81664:	600a      	str	r2, [r1, #0]
   81666:	e8bd 8ff8 	ldmia.w	sp!, {r3, r4, r5, r6, r7, r8, r9, sl, fp, pc}
   8166a:	bf00      	nop

0008166c <xTaskResumeAll>:
   8166c:	e92d 47f0 	stmdb	sp!, {r4, r5, r6, r7, r8, r9, sl, lr}
   81670:	f648 2334 	movw	r3, #35380	; 0x8a34
   81674:	f2c2 0307 	movt	r3, #8199	; 0x2007
   81678:	6818      	ldr	r0, [r3, #0]
   8167a:	b930      	cbnz	r0, 8168a <xTaskResumeAll+0x1e>
   8167c:	f240 7561 	movw	r5, #1889	; 0x761
   81680:	f2c0 0508 	movt	r5, #8
   81684:	47a8      	blx	r5
   81686:	bf00      	nop
   81688:	e7fd      	b.n	81686 <xTaskResumeAll+0x1a>
   8168a:	f240 7175 	movw	r1, #1909	; 0x775
   8168e:	f2c0 0108 	movt	r1, #8
   81692:	4788      	blx	r1
   81694:	f648 2434 	movw	r4, #35380	; 0x8a34
   81698:	f2c2 0407 	movt	r4, #8199	; 0x2007
   8169c:	6822      	ldr	r2, [r4, #0]
   8169e:	f102 33ff 	add.w	r3, r2, #4294967295
   816a2:	6023      	str	r3, [r4, #0]
   816a4:	6820      	ldr	r0, [r4, #0]
   816a6:	2800      	cmp	r0, #0
   816a8:	d178      	bne.n	8179c <xTaskResumeAll+0x130>
   816aa:	f648 2178 	movw	r1, #35448	; 0x8a78
   816ae:	f2c2 0107 	movt	r1, #8199	; 0x2007
   816b2:	680c      	ldr	r4, [r1, #0]
   816b4:	bb4c      	cbnz	r4, 8170a <xTaskResumeAll+0x9e>
   816b6:	f04f 0400 	mov.w	r4, #0
   816ba:	e074      	b.n	817a6 <xTaskResumeAll+0x13a>
   816bc:	f8d8 200c 	ldr.w	r2, [r8, #12]
   816c0:	68d4      	ldr	r4, [r2, #12]
   816c2:	f104 0018 	add.w	r0, r4, #24
   816c6:	47b8      	blx	r7
   816c8:	f104 0904 	add.w	r9, r4, #4
   816cc:	4648      	mov	r0, r9
   816ce:	47b8      	blx	r7
   816d0:	6ae3      	ldr	r3, [r4, #44]	; 0x2c
   816d2:	6830      	ldr	r0, [r6, #0]
   816d4:	4283      	cmp	r3, r0
   816d6:	bf88      	it	hi
   816d8:	6033      	strhi	r3, [r6, #0]
   816da:	4651      	mov	r1, sl
   816dc:	f2c2 0107 	movt	r1, #8199	; 0x2007
   816e0:	eb03 0283 	add.w	r2, r3, r3, lsl #2
   816e4:	eb01 0082 	add.w	r0, r1, r2, lsl #2
   816e8:	4649      	mov	r1, r9
   816ea:	f240 636d 	movw	r3, #1645	; 0x66d
   816ee:	f2c0 0308 	movt	r3, #8
   816f2:	4798      	blx	r3
   816f4:	f648 2038 	movw	r0, #35384	; 0x8a38
   816f8:	f2c2 0007 	movt	r0, #8199	; 0x2007
   816fc:	6801      	ldr	r1, [r0, #0]
   816fe:	6ae4      	ldr	r4, [r4, #44]	; 0x2c
   81700:	6aca      	ldr	r2, [r1, #44]	; 0x2c
   81702:	4294      	cmp	r4, r2
   81704:	bf28      	it	cs
   81706:	2501      	movcs	r5, #1
   81708:	e00f      	b.n	8172a <xTaskResumeAll+0xbe>
   8170a:	f04f 0500 	mov.w	r5, #0
   8170e:	f648 283c 	movw	r8, #35388	; 0x8a3c
   81712:	f2c2 0807 	movt	r8, #8199	; 0x2007
   81716:	f240 67d1 	movw	r7, #1745	; 0x6d1
   8171a:	f2c0 0708 	movt	r7, #8
   8171e:	f648 1668 	movw	r6, #35176	; 0x8968
   81722:	f2c2 0607 	movt	r6, #8199	; 0x2007
   81726:	f648 1a6c 	movw	sl, #35180	; 0x896c
   8172a:	f8d8 2000 	ldr.w	r2, [r8]
   8172e:	2a00      	cmp	r2, #0
   81730:	d1c4      	bne.n	816bc <xTaskResumeAll+0x50>
   81732:	f648 131c 	movw	r3, #35100	; 0x891c
   81736:	f2c2 0307 	movt	r3, #8199	; 0x2007
   8173a:	6818      	ldr	r0, [r3, #0]
   8173c:	b1b0      	cbz	r0, 8176c <xTaskResumeAll+0x100>
   8173e:	f648 121c 	movw	r2, #35100	; 0x891c
   81742:	f2c2 0207 	movt	r2, #8199	; 0x2007
   81746:	6813      	ldr	r3, [r2, #0]
   81748:	b1cb      	cbz	r3, 8177e <xTaskResumeAll+0x112>
   8174a:	f241 45d1 	movw	r5, #5329	; 0x14d1
   8174e:	f2c0 0508 	movt	r5, #8
   81752:	f648 141c 	movw	r4, #35100	; 0x891c
   81756:	f2c2 0407 	movt	r4, #8199	; 0x2007
   8175a:	47a8      	blx	r5
   8175c:	6820      	ldr	r0, [r4, #0]
   8175e:	f100 31ff 	add.w	r1, r0, #4294967295
   81762:	6021      	str	r1, [r4, #0]
   81764:	6822      	ldr	r2, [r4, #0]
   81766:	2a00      	cmp	r2, #0
   81768:	d1f7      	bne.n	8175a <xTaskResumeAll+0xee>
   8176a:	e008      	b.n	8177e <xTaskResumeAll+0x112>
   8176c:	2d01      	cmp	r5, #1
   8176e:	d006      	beq.n	8177e <xTaskResumeAll+0x112>
   81770:	f648 2174 	movw	r1, #35444	; 0x8a74
   81774:	f2c2 0107 	movt	r1, #8199	; 0x2007
   81778:	680c      	ldr	r4, [r1, #0]
   8177a:	2c01      	cmp	r4, #1
   8177c:	d111      	bne.n	817a2 <xTaskResumeAll+0x136>
   8177e:	f648 2374 	movw	r3, #35444	; 0x8a74
   81782:	f2c2 0307 	movt	r3, #8199	; 0x2007
   81786:	f04f 0400 	mov.w	r4, #0
   8178a:	601c      	str	r4, [r3, #0]
   8178c:	f240 7051 	movw	r0, #1873	; 0x751
   81790:	f2c0 0008 	movt	r0, #8
   81794:	4780      	blx	r0
   81796:	f04f 0401 	mov.w	r4, #1
   8179a:	e004      	b.n	817a6 <xTaskResumeAll+0x13a>
   8179c:	f04f 0400 	mov.w	r4, #0
   817a0:	e001      	b.n	817a6 <xTaskResumeAll+0x13a>
   817a2:	f04f 0400 	mov.w	r4, #0
   817a6:	f240 719d 	movw	r1, #1949	; 0x79d
   817aa:	f2c0 0108 	movt	r1, #8
   817ae:	4788      	blx	r1
   817b0:	4620      	mov	r0, r4
   817b2:	e8bd 87f0 	ldmia.w	sp!, {r4, r5, r6, r7, r8, r9, sl, pc}
   817b6:	bf00      	nop

000817b8 <prvIdleTask>:
   817b8:	e92d 43f8 	stmdb	sp!, {r3, r4, r5, r6, r7, r8, r9, lr}
   817bc:	f648 153c 	movw	r5, #35132	; 0x893c
   817c0:	f2c2 0507 	movt	r5, #8199	; 0x2007
   817c4:	f241 4895 	movw	r8, #5269	; 0x1495
   817c8:	f2c0 0808 	movt	r8, #8
   817cc:	f648 1640 	movw	r6, #35136	; 0x8940
   817d0:	f2c2 0607 	movt	r6, #8199	; 0x2007
   817d4:	f241 676d 	movw	r7, #5741	; 0x166d
   817d8:	e02d      	b.n	81836 <prvIdleTask+0x7e>
   817da:	47c0      	blx	r8
   817dc:	6834      	ldr	r4, [r6, #0]
   817de:	463b      	mov	r3, r7
   817e0:	f2c0 0308 	movt	r3, #8
   817e4:	4798      	blx	r3
   817e6:	b334      	cbz	r4, 81836 <prvIdleTask+0x7e>
   817e8:	f240 7075 	movw	r0, #1909	; 0x775
   817ec:	f2c0 0008 	movt	r0, #8
   817f0:	4780      	blx	r0
   817f2:	68f1      	ldr	r1, [r6, #12]
   817f4:	68cc      	ldr	r4, [r1, #12]
   817f6:	f104 0004 	add.w	r0, r4, #4
   817fa:	f240 62d1 	movw	r2, #1745	; 0x6d1
   817fe:	f2c0 0208 	movt	r2, #8
   81802:	4790      	blx	r2
   81804:	f648 2378 	movw	r3, #35448	; 0x8a78
   81808:	f2c2 0307 	movt	r3, #8199	; 0x2007
   8180c:	6818      	ldr	r0, [r3, #0]
   8180e:	f100 31ff 	add.w	r1, r0, #4294967295
   81812:	6019      	str	r1, [r3, #0]
   81814:	682a      	ldr	r2, [r5, #0]
   81816:	f102 33ff 	add.w	r3, r2, #4294967295
   8181a:	602b      	str	r3, [r5, #0]
   8181c:	f240 709d 	movw	r0, #1949	; 0x79d
   81820:	f2c0 0008 	movt	r0, #8
   81824:	4780      	blx	r0
   81826:	6b20      	ldr	r0, [r4, #48]	; 0x30
   81828:	f640 19ed 	movw	r9, #2541	; 0x9ed
   8182c:	f2c0 0908 	movt	r9, #8
   81830:	47c8      	blx	r9
   81832:	4620      	mov	r0, r4
   81834:	47c8      	blx	r9
   81836:	682b      	ldr	r3, [r5, #0]
   81838:	2b00      	cmp	r3, #0
   8183a:	d1ce      	bne.n	817da <prvIdleTask+0x22>
   8183c:	f648 106c 	movw	r0, #35180	; 0x896c
   81840:	f2c2 0007 	movt	r0, #8199	; 0x2007
   81844:	6801      	ldr	r1, [r0, #0]
   81846:	2901      	cmp	r1, #1
   81848:	d9f5      	bls.n	81836 <prvIdleTask+0x7e>
   8184a:	f240 7251 	movw	r2, #1873	; 0x751
   8184e:	f2c0 0208 	movt	r2, #8
   81852:	4790      	blx	r2
   81854:	e7ef      	b.n	81836 <prvIdleTask+0x7e>
   81856:	bf00      	nop

00081858 <vTaskDelay>:
   81858:	b510      	push	{r4, lr}
   8185a:	4604      	mov	r4, r0
   8185c:	b318      	cbz	r0, 818a6 <vTaskDelay+0x4e>
   8185e:	f241 4395 	movw	r3, #5269	; 0x1495
   81862:	f2c0 0308 	movt	r3, #8
   81866:	4798      	blx	r3
   81868:	f648 2054 	movw	r0, #35412	; 0x8a54
   8186c:	f2c2 0007 	movt	r0, #8199	; 0x2007
   81870:	8801      	ldrh	r1, [r0, #0]
   81872:	1864      	adds	r4, r4, r1
   81874:	b2a4      	uxth	r4, r4
   81876:	f648 2238 	movw	r2, #35384	; 0x8a38
   8187a:	f2c2 0207 	movt	r2, #8199	; 0x2007
   8187e:	6810      	ldr	r0, [r2, #0]
   81880:	f100 0004 	add.w	r0, r0, #4
   81884:	f240 63d1 	movw	r3, #1745	; 0x6d1
   81888:	f2c0 0308 	movt	r3, #8
   8188c:	4798      	blx	r3
   8188e:	4620      	mov	r0, r4
   81890:	f241 01cd 	movw	r1, #4301	; 0x10cd
   81894:	f2c0 0108 	movt	r1, #8
   81898:	4788      	blx	r1
   8189a:	f241 606d 	movw	r0, #5741	; 0x166d
   8189e:	f2c0 0008 	movt	r0, #8
   818a2:	4780      	blx	r0
   818a4:	b920      	cbnz	r0, 818b0 <vTaskDelay+0x58>
   818a6:	f240 7251 	movw	r2, #1873	; 0x751
   818aa:	f2c0 0208 	movt	r2, #8
   818ae:	4790      	blx	r2
   818b0:	bd10      	pop	{r4, pc}
   818b2:	bf00      	nop

000818b4 <vTaskDelayUntil>:
   818b4:	b538      	push	{r3, r4, r5, lr}
   818b6:	460c      	mov	r4, r1
   818b8:	4605      	mov	r5, r0
   818ba:	b930      	cbnz	r0, 818ca <vTaskDelayUntil+0x16>
   818bc:	f240 7461 	movw	r4, #1889	; 0x761
   818c0:	f2c0 0408 	movt	r4, #8
   818c4:	47a0      	blx	r4
   818c6:	bf00      	nop
   818c8:	e7fd      	b.n	818c6 <vTaskDelayUntil+0x12>
   818ca:	b931      	cbnz	r1, 818da <vTaskDelayUntil+0x26>
   818cc:	f240 7561 	movw	r5, #1889	; 0x761
   818d0:	f2c0 0508 	movt	r5, #8
   818d4:	47a8      	blx	r5
   818d6:	bf00      	nop
   818d8:	e7fd      	b.n	818d6 <vTaskDelayUntil+0x22>
   818da:	f241 4395 	movw	r3, #5269	; 0x1495
   818de:	f2c0 0308 	movt	r3, #8
   818e2:	4798      	blx	r3
   818e4:	8828      	ldrh	r0, [r5, #0]
   818e6:	1901      	adds	r1, r0, r4
   818e8:	b28c      	uxth	r4, r1
   818ea:	f648 2254 	movw	r2, #35412	; 0x8a54
   818ee:	f2c2 0207 	movt	r2, #8199	; 0x2007
   818f2:	8813      	ldrh	r3, [r2, #0]
   818f4:	b299      	uxth	r1, r3
   818f6:	4288      	cmp	r0, r1
   818f8:	d90b      	bls.n	81912 <vTaskDelayUntil+0x5e>
   818fa:	42a0      	cmp	r0, r4
   818fc:	d934      	bls.n	81968 <vTaskDelayUntil+0xb4>
   818fe:	f648 2154 	movw	r1, #35412	; 0x8a54
   81902:	f2c2 0107 	movt	r1, #8199	; 0x2007
   81906:	8808      	ldrh	r0, [r1, #0]
   81908:	b282      	uxth	r2, r0
   8190a:	802c      	strh	r4, [r5, #0]
   8190c:	4294      	cmp	r4, r2
   8190e:	d91d      	bls.n	8194c <vTaskDelayUntil+0x98>
   81910:	e00a      	b.n	81928 <vTaskDelayUntil+0x74>
   81912:	42a0      	cmp	r0, r4
   81914:	d826      	bhi.n	81964 <vTaskDelayUntil+0xb0>
   81916:	f648 2054 	movw	r0, #35412	; 0x8a54
   8191a:	f2c2 0007 	movt	r0, #8199	; 0x2007
   8191e:	8802      	ldrh	r2, [r0, #0]
   81920:	b293      	uxth	r3, r2
   81922:	429c      	cmp	r4, r3
   81924:	d81e      	bhi.n	81964 <vTaskDelayUntil+0xb0>
   81926:	e01f      	b.n	81968 <vTaskDelayUntil+0xb4>
   81928:	f648 2338 	movw	r3, #35384	; 0x8a38
   8192c:	f2c2 0307 	movt	r3, #8199	; 0x2007
   81930:	6818      	ldr	r0, [r3, #0]
   81932:	f100 0004 	add.w	r0, r0, #4
   81936:	f240 61d1 	movw	r1, #1745	; 0x6d1
   8193a:	f2c0 0108 	movt	r1, #8
   8193e:	4788      	blx	r1
   81940:	4620      	mov	r0, r4
   81942:	f241 02cd 	movw	r2, #4301	; 0x10cd
   81946:	f2c0 0208 	movt	r2, #8
   8194a:	4790      	blx	r2
   8194c:	f241 606d 	movw	r0, #5741	; 0x166d
   81950:	f2c0 0008 	movt	r0, #8
   81954:	4780      	blx	r0
   81956:	b948      	cbnz	r0, 8196c <vTaskDelayUntil+0xb8>
   81958:	f240 7351 	movw	r3, #1873	; 0x751
   8195c:	f2c0 0308 	movt	r3, #8
   81960:	4798      	blx	r3
   81962:	bd38      	pop	{r3, r4, r5, pc}
   81964:	802c      	strh	r4, [r5, #0]
   81966:	e7df      	b.n	81928 <vTaskDelayUntil+0x74>
   81968:	802c      	strh	r4, [r5, #0]
   8196a:	e7ef      	b.n	8194c <vTaskDelayUntil+0x98>
   8196c:	bd38      	pop	{r3, r4, r5, pc}
   8196e:	bf00      	nop

00081970 <vTaskSwitchContext>:
   81970:	b508      	push	{r3, lr}
   81972:	f648 2334 	movw	r3, #35380	; 0x8a34
   81976:	f2c2 0307 	movt	r3, #8199	; 0x2007
   8197a:	6818      	ldr	r0, [r3, #0]
   8197c:	b9a8      	cbnz	r0, 819aa <vTaskSwitchContext+0x3a>
   8197e:	f648 1168 	movw	r1, #35176	; 0x8968
   81982:	f2c2 0107 	movt	r1, #8199	; 0x2007
   81986:	680a      	ldr	r2, [r1, #0]
   81988:	eb02 0382 	add.w	r3, r2, r2, lsl #2
   8198c:	ea4f 0083 	mov.w	r0, r3, lsl #2
   81990:	f648 116c 	movw	r1, #35180	; 0x896c
   81994:	f2c2 0107 	movt	r1, #8199	; 0x2007
   81998:	580a      	ldr	r2, [r1, r0]
   8199a:	bb52      	cbnz	r2, 819f2 <vTaskSwitchContext+0x82>
   8199c:	f648 1368 	movw	r3, #35176	; 0x8968
   819a0:	f2c2 0307 	movt	r3, #8199	; 0x2007
   819a4:	6818      	ldr	r0, [r3, #0]
   819a6:	b988      	cbnz	r0, 819cc <vTaskSwitchContext+0x5c>
   819a8:	e009      	b.n	819be <vTaskSwitchContext+0x4e>
   819aa:	f648 2174 	movw	r1, #35444	; 0x8a74
   819ae:	f2c2 0107 	movt	r1, #8199	; 0x2007
   819b2:	f04f 0001 	mov.w	r0, #1
   819b6:	6008      	str	r0, [r1, #0]
   819b8:	bd08      	pop	{r3, pc}
   819ba:	681a      	ldr	r2, [r3, #0]
   819bc:	b972      	cbnz	r2, 819dc <vTaskSwitchContext+0x6c>
   819be:	f240 7361 	movw	r3, #1889	; 0x761
   819c2:	f2c0 0308 	movt	r3, #8
   819c6:	4798      	blx	r3
   819c8:	bf00      	nop
   819ca:	e7fd      	b.n	819c8 <vTaskSwitchContext+0x58>
   819cc:	f648 1368 	movw	r3, #35176	; 0x8968
   819d0:	f2c2 0307 	movt	r3, #8199	; 0x2007
   819d4:	f648 116c 	movw	r1, #35180	; 0x896c
   819d8:	f2c2 0107 	movt	r1, #8199	; 0x2007
   819dc:	681a      	ldr	r2, [r3, #0]
   819de:	f102 30ff 	add.w	r0, r2, #4294967295
   819e2:	6018      	str	r0, [r3, #0]
   819e4:	681a      	ldr	r2, [r3, #0]
   819e6:	eb02 0082 	add.w	r0, r2, r2, lsl #2
   819ea:	f851 2020 	ldr.w	r2, [r1, r0, lsl #2]
   819ee:	2a00      	cmp	r2, #0
   819f0:	d0e3      	beq.n	819ba <vTaskSwitchContext+0x4a>
   819f2:	f648 1368 	movw	r3, #35176	; 0x8968
   819f6:	f2c2 0307 	movt	r3, #8199	; 0x2007
   819fa:	6819      	ldr	r1, [r3, #0]
   819fc:	eb01 0081 	add.w	r0, r1, r1, lsl #2
   81a00:	f648 126c 	movw	r2, #35180	; 0x896c
   81a04:	f2c2 0207 	movt	r2, #8199	; 0x2007
   81a08:	eb02 0380 	add.w	r3, r2, r0, lsl #2
   81a0c:	6859      	ldr	r1, [r3, #4]
   81a0e:	6848      	ldr	r0, [r1, #4]
   81a10:	6058      	str	r0, [r3, #4]
   81a12:	f103 0208 	add.w	r2, r3, #8
   81a16:	4290      	cmp	r0, r2
   81a18:	bf04      	itt	eq
   81a1a:	6840      	ldreq	r0, [r0, #4]
   81a1c:	6058      	streq	r0, [r3, #4]
   81a1e:	685b      	ldr	r3, [r3, #4]
   81a20:	68d9      	ldr	r1, [r3, #12]
   81a22:	f648 2038 	movw	r0, #35384	; 0x8a38
   81a26:	f2c2 0007 	movt	r0, #8199	; 0x2007
   81a2a:	6001      	str	r1, [r0, #0]
   81a2c:	bd08      	pop	{r3, pc}
   81a2e:	bf00      	nop

00081a30 <vTaskPlaceOnEventList>:
   81a30:	b538      	push	{r3, r4, r5, lr}
   81a32:	460c      	mov	r4, r1
   81a34:	b930      	cbnz	r0, 81a44 <vTaskPlaceOnEventList+0x14>
   81a36:	f240 7461 	movw	r4, #1889	; 0x761
   81a3a:	f2c0 0408 	movt	r4, #8
   81a3e:	47a0      	blx	r4
   81a40:	bf00      	nop
   81a42:	e7fd      	b.n	81a40 <vTaskPlaceOnEventList+0x10>
   81a44:	f648 2538 	movw	r5, #35384	; 0x8a38
   81a48:	f2c2 0507 	movt	r5, #8199	; 0x2007
   81a4c:	6829      	ldr	r1, [r5, #0]
   81a4e:	f101 0118 	add.w	r1, r1, #24
   81a52:	f240 628d 	movw	r2, #1677	; 0x68d
   81a56:	f2c0 0208 	movt	r2, #8
   81a5a:	4790      	blx	r2
   81a5c:	6828      	ldr	r0, [r5, #0]
   81a5e:	f100 0004 	add.w	r0, r0, #4
   81a62:	f240 61d1 	movw	r1, #1745	; 0x6d1
   81a66:	f2c0 0108 	movt	r1, #8
   81a6a:	4788      	blx	r1
   81a6c:	f64f 70ff 	movw	r0, #65535	; 0xffff
   81a70:	4284      	cmp	r4, r0
   81a72:	d10c      	bne.n	81a8e <vTaskPlaceOnEventList+0x5e>
   81a74:	6829      	ldr	r1, [r5, #0]
   81a76:	f648 1020 	movw	r0, #35104	; 0x8920
   81a7a:	f2c2 0007 	movt	r0, #8199	; 0x2007
   81a7e:	f101 0104 	add.w	r1, r1, #4
   81a82:	f240 626d 	movw	r2, #1645	; 0x66d
   81a86:	f2c0 0208 	movt	r2, #8
   81a8a:	4790      	blx	r2
   81a8c:	bd38      	pop	{r3, r4, r5, pc}
   81a8e:	f648 2354 	movw	r3, #35412	; 0x8a54
   81a92:	f2c2 0307 	movt	r3, #8199	; 0x2007
   81a96:	881a      	ldrh	r2, [r3, #0]
   81a98:	18a1      	adds	r1, r4, r2
   81a9a:	b288      	uxth	r0, r1
   81a9c:	f241 03cd 	movw	r3, #4301	; 0x10cd
   81aa0:	f2c0 0308 	movt	r3, #8
   81aa4:	4798      	blx	r3
   81aa6:	bd38      	pop	{r3, r4, r5, pc}

00081aa8 <vTaskPlaceOnEventListRestricted>:
   81aa8:	b538      	push	{r3, r4, r5, lr}
   81aaa:	460d      	mov	r5, r1
   81aac:	b930      	cbnz	r0, 81abc <vTaskPlaceOnEventListRestricted+0x14>
   81aae:	f240 7461 	movw	r4, #1889	; 0x761
   81ab2:	f2c0 0408 	movt	r4, #8
   81ab6:	47a0      	blx	r4
   81ab8:	bf00      	nop
   81aba:	e7fd      	b.n	81ab8 <vTaskPlaceOnEventListRestricted+0x10>
   81abc:	f648 2438 	movw	r4, #35384	; 0x8a38
   81ac0:	f2c2 0407 	movt	r4, #8199	; 0x2007
   81ac4:	6821      	ldr	r1, [r4, #0]
   81ac6:	f101 0118 	add.w	r1, r1, #24
   81aca:	f240 626d 	movw	r2, #1645	; 0x66d
   81ace:	f2c0 0208 	movt	r2, #8
   81ad2:	4790      	blx	r2
   81ad4:	6820      	ldr	r0, [r4, #0]
   81ad6:	f100 0004 	add.w	r0, r0, #4
   81ada:	f240 61d1 	movw	r1, #1745	; 0x6d1
   81ade:	f2c0 0108 	movt	r1, #8
   81ae2:	4788      	blx	r1
   81ae4:	f648 2054 	movw	r0, #35412	; 0x8a54
   81ae8:	f2c2 0007 	movt	r0, #8199	; 0x2007
   81aec:	8803      	ldrh	r3, [r0, #0]
   81aee:	18ea      	adds	r2, r5, r3
   81af0:	b290      	uxth	r0, r2
   81af2:	f241 01cd 	movw	r1, #4301	; 0x10cd
   81af6:	f2c0 0108 	movt	r1, #8
   81afa:	4788      	blx	r1
   81afc:	bd38      	pop	{r3, r4, r5, pc}
   81afe:	bf00      	nop

00081b00 <xTaskRemoveFromEventList>:
   81b00:	b538      	push	{r3, r4, r5, lr}
   81b02:	68c3      	ldr	r3, [r0, #12]
   81b04:	68dc      	ldr	r4, [r3, #12]
   81b06:	b934      	cbnz	r4, 81b16 <xTaskRemoveFromEventList+0x16>
   81b08:	f240 7461 	movw	r4, #1889	; 0x761
   81b0c:	f2c0 0408 	movt	r4, #8
   81b10:	47a0      	blx	r4
   81b12:	bf00      	nop
   81b14:	e7fd      	b.n	81b12 <xTaskRemoveFromEventList+0x12>
   81b16:	f104 0518 	add.w	r5, r4, #24
   81b1a:	4628      	mov	r0, r5
   81b1c:	f240 61d1 	movw	r1, #1745	; 0x6d1
   81b20:	f2c0 0108 	movt	r1, #8
   81b24:	4788      	blx	r1
   81b26:	f648 2034 	movw	r0, #35380	; 0x8a34
   81b2a:	f2c2 0007 	movt	r0, #8199	; 0x2007
   81b2e:	6802      	ldr	r2, [r0, #0]
   81b30:	bb22      	cbnz	r2, 81b7c <xTaskRemoveFromEventList+0x7c>
   81b32:	f104 0504 	add.w	r5, r4, #4
   81b36:	4628      	mov	r0, r5
   81b38:	f240 61d1 	movw	r1, #1745	; 0x6d1
   81b3c:	f2c0 0108 	movt	r1, #8
   81b40:	4788      	blx	r1
   81b42:	6ae0      	ldr	r0, [r4, #44]	; 0x2c
   81b44:	f648 1268 	movw	r2, #35176	; 0x8968
   81b48:	f2c2 0207 	movt	r2, #8199	; 0x2007
   81b4c:	6813      	ldr	r3, [r2, #0]
   81b4e:	4298      	cmp	r0, r3
   81b50:	d904      	bls.n	81b5c <xTaskRemoveFromEventList+0x5c>
   81b52:	f648 1168 	movw	r1, #35176	; 0x8968
   81b56:	f2c2 0107 	movt	r1, #8199	; 0x2007
   81b5a:	6008      	str	r0, [r1, #0]
   81b5c:	eb00 0380 	add.w	r3, r0, r0, lsl #2
   81b60:	f648 106c 	movw	r0, #35180	; 0x896c
   81b64:	4602      	mov	r2, r0
   81b66:	f2c2 0207 	movt	r2, #8199	; 0x2007
   81b6a:	eb02 0083 	add.w	r0, r2, r3, lsl #2
   81b6e:	4629      	mov	r1, r5
   81b70:	f240 636d 	movw	r3, #1645	; 0x66d
   81b74:	f2c0 0308 	movt	r3, #8
   81b78:	4798      	blx	r3
   81b7a:	e009      	b.n	81b90 <xTaskRemoveFromEventList+0x90>
   81b7c:	f648 203c 	movw	r0, #35388	; 0x8a3c
   81b80:	f2c2 0007 	movt	r0, #8199	; 0x2007
   81b84:	4629      	mov	r1, r5
   81b86:	f240 636d 	movw	r3, #1645	; 0x66d
   81b8a:	f2c0 0308 	movt	r3, #8
   81b8e:	4798      	blx	r3
   81b90:	f648 2138 	movw	r1, #35384	; 0x8a38
   81b94:	f2c2 0107 	movt	r1, #8199	; 0x2007
   81b98:	680a      	ldr	r2, [r1, #0]
   81b9a:	6ae0      	ldr	r0, [r4, #44]	; 0x2c
   81b9c:	6ad3      	ldr	r3, [r2, #44]	; 0x2c
   81b9e:	4298      	cmp	r0, r3
   81ba0:	bf34      	ite	cc
   81ba2:	2000      	movcc	r0, #0
   81ba4:	2001      	movcs	r0, #1
   81ba6:	bd38      	pop	{r3, r4, r5, pc}

00081ba8 <vTaskSetTimeOutState>:
   81ba8:	b508      	push	{r3, lr}
   81baa:	4603      	mov	r3, r0
   81bac:	b930      	cbnz	r0, 81bbc <vTaskSetTimeOutState+0x14>
   81bae:	f240 7361 	movw	r3, #1889	; 0x761
   81bb2:	f2c0 0308 	movt	r3, #8
   81bb6:	4798      	blx	r3
   81bb8:	bf00      	nop
   81bba:	e7fd      	b.n	81bb8 <vTaskSetTimeOutState+0x10>
   81bbc:	f648 2250 	movw	r2, #35408	; 0x8a50
   81bc0:	f2c2 0207 	movt	r2, #8199	; 0x2007
   81bc4:	6810      	ldr	r0, [r2, #0]
   81bc6:	6018      	str	r0, [r3, #0]
   81bc8:	f648 2154 	movw	r1, #35412	; 0x8a54
   81bcc:	f2c2 0107 	movt	r1, #8199	; 0x2007
   81bd0:	880a      	ldrh	r2, [r1, #0]
   81bd2:	809a      	strh	r2, [r3, #4]
   81bd4:	bd08      	pop	{r3, pc}
   81bd6:	bf00      	nop

00081bd8 <xTaskCheckForTimeOut>:
   81bd8:	b538      	push	{r3, r4, r5, lr}
   81bda:	460d      	mov	r5, r1
   81bdc:	4604      	mov	r4, r0
   81bde:	b930      	cbnz	r0, 81bee <xTaskCheckForTimeOut+0x16>
   81be0:	f240 7361 	movw	r3, #1889	; 0x761
   81be4:	f2c0 0308 	movt	r3, #8
   81be8:	4798      	blx	r3
   81bea:	bf00      	nop
   81bec:	e7fd      	b.n	81bea <xTaskCheckForTimeOut+0x12>
   81bee:	b931      	cbnz	r1, 81bfe <xTaskCheckForTimeOut+0x26>
   81bf0:	f240 7561 	movw	r5, #1889	; 0x761
   81bf4:	f2c0 0508 	movt	r5, #8
   81bf8:	47a8      	blx	r5
   81bfa:	bf00      	nop
   81bfc:	e7fd      	b.n	81bfa <xTaskCheckForTimeOut+0x22>
   81bfe:	f240 7375 	movw	r3, #1909	; 0x775
   81c02:	f2c0 0308 	movt	r3, #8
   81c06:	4798      	blx	r3
   81c08:	8828      	ldrh	r0, [r5, #0]
   81c0a:	f64f 72ff 	movw	r2, #65535	; 0xffff
   81c0e:	4290      	cmp	r0, r2
   81c10:	d02c      	beq.n	81c6c <xTaskCheckForTimeOut+0x94>
   81c12:	f648 2150 	movw	r1, #35408	; 0x8a50
   81c16:	f2c2 0107 	movt	r1, #8199	; 0x2007
   81c1a:	680b      	ldr	r3, [r1, #0]
   81c1c:	6822      	ldr	r2, [r4, #0]
   81c1e:	429a      	cmp	r2, r3
   81c20:	d008      	beq.n	81c34 <xTaskCheckForTimeOut+0x5c>
   81c22:	f648 2154 	movw	r1, #35412	; 0x8a54
   81c26:	f2c2 0107 	movt	r1, #8199	; 0x2007
   81c2a:	880b      	ldrh	r3, [r1, #0]
   81c2c:	b29a      	uxth	r2, r3
   81c2e:	88a1      	ldrh	r1, [r4, #4]
   81c30:	4291      	cmp	r1, r2
   81c32:	d91e      	bls.n	81c72 <xTaskCheckForTimeOut+0x9a>
   81c34:	f648 2354 	movw	r3, #35412	; 0x8a54
   81c38:	f2c2 0307 	movt	r3, #8199	; 0x2007
   81c3c:	8819      	ldrh	r1, [r3, #0]
   81c3e:	88a2      	ldrh	r2, [r4, #4]
   81c40:	1a8b      	subs	r3, r1, r2
   81c42:	b299      	uxth	r1, r3
   81c44:	4288      	cmp	r0, r1
   81c46:	d917      	bls.n	81c78 <xTaskCheckForTimeOut+0xa0>
   81c48:	f648 2354 	movw	r3, #35412	; 0x8a54
   81c4c:	f2c2 0307 	movt	r3, #8199	; 0x2007
   81c50:	8819      	ldrh	r1, [r3, #0]
   81c52:	b28b      	uxth	r3, r1
   81c54:	1ad2      	subs	r2, r2, r3
   81c56:	1880      	adds	r0, r0, r2
   81c58:	8028      	strh	r0, [r5, #0]
   81c5a:	4620      	mov	r0, r4
   81c5c:	f641 34a9 	movw	r4, #7081	; 0x1ba9
   81c60:	f2c0 0408 	movt	r4, #8
   81c64:	47a0      	blx	r4
   81c66:	f04f 0400 	mov.w	r4, #0
   81c6a:	e007      	b.n	81c7c <xTaskCheckForTimeOut+0xa4>
   81c6c:	f04f 0400 	mov.w	r4, #0
   81c70:	e004      	b.n	81c7c <xTaskCheckForTimeOut+0xa4>
   81c72:	f04f 0401 	mov.w	r4, #1
   81c76:	e001      	b.n	81c7c <xTaskCheckForTimeOut+0xa4>
   81c78:	f04f 0401 	mov.w	r4, #1
   81c7c:	f240 719d 	movw	r1, #1949	; 0x79d
   81c80:	f2c0 0108 	movt	r1, #8
   81c84:	4788      	blx	r1
   81c86:	4620      	mov	r0, r4
   81c88:	bd38      	pop	{r3, r4, r5, pc}
   81c8a:	bf00      	nop

00081c8c <vTaskMissedYield>:
   81c8c:	f648 2374 	movw	r3, #35444	; 0x8a74
   81c90:	f2c2 0307 	movt	r3, #8199	; 0x2007
   81c94:	f04f 0201 	mov.w	r2, #1
   81c98:	601a      	str	r2, [r3, #0]
   81c9a:	4770      	bx	lr

00081c9c <xTaskGetCurrentTaskHandle>:
   81c9c:	f648 2338 	movw	r3, #35384	; 0x8a38
   81ca0:	f2c2 0307 	movt	r3, #8199	; 0x2007
   81ca4:	6818      	ldr	r0, [r3, #0]
   81ca6:	4770      	bx	lr

00081ca8 <xTaskGetSchedulerState>:
   81ca8:	f648 1338 	movw	r3, #35128	; 0x8938
   81cac:	f2c2 0307 	movt	r3, #8199	; 0x2007
   81cb0:	6818      	ldr	r0, [r3, #0]
   81cb2:	b148      	cbz	r0, 81cc8 <xTaskGetSchedulerState+0x20>
   81cb4:	f648 2134 	movw	r1, #35380	; 0x8a34
   81cb8:	f2c2 0107 	movt	r1, #8199	; 0x2007
   81cbc:	680a      	ldr	r2, [r1, #0]
   81cbe:	2a00      	cmp	r2, #0
   81cc0:	bf14      	ite	ne
   81cc2:	2002      	movne	r0, #2
   81cc4:	2001      	moveq	r0, #1
   81cc6:	4770      	bx	lr
   81cc8:	f04f 0000 	mov.w	r0, #0
   81ccc:	4770      	bx	lr
   81cce:	bf00      	nop

00081cd0 <vTaskPriorityInherit>:
   81cd0:	b538      	push	{r3, r4, r5, lr}
   81cd2:	4604      	mov	r4, r0
   81cd4:	2800      	cmp	r0, #0
   81cd6:	d04e      	beq.n	81d76 <vTaskPriorityInherit+0xa6>
   81cd8:	6ac3      	ldr	r3, [r0, #44]	; 0x2c
   81cda:	f648 2238 	movw	r2, #35384	; 0x8a38
   81cde:	f2c2 0207 	movt	r2, #8199	; 0x2007
   81ce2:	6810      	ldr	r0, [r2, #0]
   81ce4:	6ac1      	ldr	r1, [r0, #44]	; 0x2c
   81ce6:	428b      	cmp	r3, r1
   81ce8:	d245      	bcs.n	81d76 <vTaskPriorityInherit+0xa6>
   81cea:	f648 2238 	movw	r2, #35384	; 0x8a38
   81cee:	f2c2 0207 	movt	r2, #8199	; 0x2007
   81cf2:	6810      	ldr	r0, [r2, #0]
   81cf4:	6ac1      	ldr	r1, [r0, #44]	; 0x2c
   81cf6:	f1c1 020a 	rsb	r2, r1, #10
   81cfa:	8322      	strh	r2, [r4, #24]
   81cfc:	eb03 0383 	add.w	r3, r3, r3, lsl #2
   81d00:	f648 106c 	movw	r0, #35180	; 0x896c
   81d04:	f2c2 0007 	movt	r0, #8199	; 0x2007
   81d08:	eb00 0183 	add.w	r1, r0, r3, lsl #2
   81d0c:	6962      	ldr	r2, [r4, #20]
   81d0e:	428a      	cmp	r2, r1
   81d10:	d12a      	bne.n	81d68 <vTaskPriorityInherit+0x98>
   81d12:	f104 0504 	add.w	r5, r4, #4
   81d16:	4628      	mov	r0, r5
   81d18:	f240 62d1 	movw	r2, #1745	; 0x6d1
   81d1c:	f2c0 0208 	movt	r2, #8
   81d20:	4790      	blx	r2
   81d22:	f648 2338 	movw	r3, #35384	; 0x8a38
   81d26:	f2c2 0307 	movt	r3, #8199	; 0x2007
   81d2a:	6818      	ldr	r0, [r3, #0]
   81d2c:	6ac1      	ldr	r1, [r0, #44]	; 0x2c
   81d2e:	62e1      	str	r1, [r4, #44]	; 0x2c
   81d30:	f648 1268 	movw	r2, #35176	; 0x8968
   81d34:	f2c2 0207 	movt	r2, #8199	; 0x2007
   81d38:	6813      	ldr	r3, [r2, #0]
   81d3a:	4299      	cmp	r1, r3
   81d3c:	d904      	bls.n	81d48 <vTaskPriorityInherit+0x78>
   81d3e:	f648 1068 	movw	r0, #35176	; 0x8968
   81d42:	f2c2 0007 	movt	r0, #8199	; 0x2007
   81d46:	6001      	str	r1, [r0, #0]
   81d48:	eb01 0181 	add.w	r1, r1, r1, lsl #2
   81d4c:	f648 126c 	movw	r2, #35180	; 0x896c
   81d50:	4613      	mov	r3, r2
   81d52:	f2c2 0307 	movt	r3, #8199	; 0x2007
   81d56:	eb03 0081 	add.w	r0, r3, r1, lsl #2
   81d5a:	4629      	mov	r1, r5
   81d5c:	f240 626d 	movw	r2, #1645	; 0x66d
   81d60:	f2c0 0208 	movt	r2, #8
   81d64:	4790      	blx	r2
   81d66:	bd38      	pop	{r3, r4, r5, pc}
   81d68:	f648 2338 	movw	r3, #35384	; 0x8a38
   81d6c:	f2c2 0307 	movt	r3, #8199	; 0x2007
   81d70:	6818      	ldr	r0, [r3, #0]
   81d72:	6ac1      	ldr	r1, [r0, #44]	; 0x2c
   81d74:	62e1      	str	r1, [r4, #44]	; 0x2c
   81d76:	bd38      	pop	{r3, r4, r5, pc}

00081d78 <vTaskPriorityDisinherit>:
   81d78:	b538      	push	{r3, r4, r5, lr}
   81d7a:	4604      	mov	r4, r0
   81d7c:	b350      	cbz	r0, 81dd4 <vTaskPriorityDisinherit+0x5c>
   81d7e:	6ac2      	ldr	r2, [r0, #44]	; 0x2c
   81d80:	6cc3      	ldr	r3, [r0, #76]	; 0x4c
   81d82:	429a      	cmp	r2, r3
   81d84:	d026      	beq.n	81dd4 <vTaskPriorityDisinherit+0x5c>
   81d86:	f100 0504 	add.w	r5, r0, #4
   81d8a:	4628      	mov	r0, r5
   81d8c:	f240 61d1 	movw	r1, #1745	; 0x6d1
   81d90:	f2c0 0108 	movt	r1, #8
   81d94:	4788      	blx	r1
   81d96:	6ce0      	ldr	r0, [r4, #76]	; 0x4c
   81d98:	62e0      	str	r0, [r4, #44]	; 0x2c
   81d9a:	f1c0 020a 	rsb	r2, r0, #10
   81d9e:	8322      	strh	r2, [r4, #24]
   81da0:	f648 1368 	movw	r3, #35176	; 0x8968
   81da4:	f2c2 0307 	movt	r3, #8199	; 0x2007
   81da8:	6819      	ldr	r1, [r3, #0]
   81daa:	4288      	cmp	r0, r1
   81dac:	d904      	bls.n	81db8 <vTaskPriorityDisinherit+0x40>
   81dae:	f648 1268 	movw	r2, #35176	; 0x8968
   81db2:	f2c2 0207 	movt	r2, #8199	; 0x2007
   81db6:	6010      	str	r0, [r2, #0]
   81db8:	eb00 0380 	add.w	r3, r0, r0, lsl #2
   81dbc:	f648 106c 	movw	r0, #35180	; 0x896c
   81dc0:	f2c2 0007 	movt	r0, #8199	; 0x2007
   81dc4:	eb00 0083 	add.w	r0, r0, r3, lsl #2
   81dc8:	4629      	mov	r1, r5
   81dca:	f240 626d 	movw	r2, #1645	; 0x66d
   81dce:	f2c0 0208 	movt	r2, #8
   81dd2:	4790      	blx	r2
   81dd4:	bd38      	pop	{r3, r4, r5, pc}
   81dd6:	bf00      	nop

00081dd8 <prvCheckForValidListAndQueue>:
   81dd8:	b570      	push	{r4, r5, r6, lr}
   81dda:	f240 7375 	movw	r3, #1909	; 0x775
   81dde:	f2c0 0308 	movt	r3, #8
   81de2:	4798      	blx	r3
   81de4:	f648 20b0 	movw	r0, #35504	; 0x8ab0
   81de8:	f2c2 0007 	movt	r0, #8199	; 0x2007
   81dec:	6801      	ldr	r1, [r0, #0]
   81dee:	bb49      	cbnz	r1, 81e44 <prvCheckForValidListAndQueue+0x6c>
   81df0:	f648 2584 	movw	r5, #35460	; 0x8a84
   81df4:	f2c2 0507 	movt	r5, #8199	; 0x2007
   81df8:	4628      	mov	r0, r5
   81dfa:	f240 664d 	movw	r6, #1613	; 0x64d
   81dfe:	f2c0 0608 	movt	r6, #8
   81e02:	47b0      	blx	r6
   81e04:	f648 2498 	movw	r4, #35480	; 0x8a98
   81e08:	f2c2 0407 	movt	r4, #8199	; 0x2007
   81e0c:	4620      	mov	r0, r4
   81e0e:	47b0      	blx	r6
   81e10:	f648 2280 	movw	r2, #35456	; 0x8a80
   81e14:	f2c2 0207 	movt	r2, #8199	; 0x2007
   81e18:	6015      	str	r5, [r2, #0]
   81e1a:	f648 23b4 	movw	r3, #35508	; 0x8ab4
   81e1e:	f2c2 0307 	movt	r3, #8199	; 0x2007
   81e22:	601c      	str	r4, [r3, #0]
   81e24:	f04f 0005 	mov.w	r0, #5
   81e28:	f04f 010c 	mov.w	r1, #12
   81e2c:	f04f 0200 	mov.w	r2, #0
   81e30:	f640 430d 	movw	r3, #3085	; 0xc0d
   81e34:	f2c0 0308 	movt	r3, #8
   81e38:	4798      	blx	r3
   81e3a:	f648 21b0 	movw	r1, #35504	; 0x8ab0
   81e3e:	f2c2 0107 	movt	r1, #8199	; 0x2007
   81e42:	6008      	str	r0, [r1, #0]
   81e44:	f240 709d 	movw	r0, #1949	; 0x79d
   81e48:	f2c0 0008 	movt	r0, #8
   81e4c:	4780      	blx	r0
   81e4e:	bd70      	pop	{r4, r5, r6, pc}

00081e50 <prvInsertTimerInActiveList>:
   81e50:	b510      	push	{r4, lr}
   81e52:	4604      	mov	r4, r0
   81e54:	8081      	strh	r1, [r0, #4]
   81e56:	6120      	str	r0, [r4, #16]
   81e58:	4291      	cmp	r1, r2
   81e5a:	d813      	bhi.n	81e84 <prvInsertTimerInActiveList+0x34>
   81e5c:	1ad0      	subs	r0, r2, r3
   81e5e:	8b21      	ldrh	r1, [r4, #24]
   81e60:	b283      	uxth	r3, r0
   81e62:	4299      	cmp	r1, r3
   81e64:	d921      	bls.n	81eaa <prvInsertTimerInActiveList+0x5a>
   81e66:	f648 22b4 	movw	r2, #35508	; 0x8ab4
   81e6a:	f2c2 0207 	movt	r2, #8199	; 0x2007
   81e6e:	6810      	ldr	r0, [r2, #0]
   81e70:	f104 0104 	add.w	r1, r4, #4
   81e74:	f240 638d 	movw	r3, #1677	; 0x68d
   81e78:	f2c0 0308 	movt	r3, #8
   81e7c:	4798      	blx	r3
   81e7e:	f04f 0000 	mov.w	r0, #0
   81e82:	bd10      	pop	{r4, pc}
   81e84:	429a      	cmp	r2, r3
   81e86:	d201      	bcs.n	81e8c <prvInsertTimerInActiveList+0x3c>
   81e88:	4299      	cmp	r1, r3
   81e8a:	d211      	bcs.n	81eb0 <prvInsertTimerInActiveList+0x60>
   81e8c:	f648 2380 	movw	r3, #35456	; 0x8a80
   81e90:	f2c2 0307 	movt	r3, #8199	; 0x2007
   81e94:	6818      	ldr	r0, [r3, #0]
   81e96:	f104 0104 	add.w	r1, r4, #4
   81e9a:	f240 628d 	movw	r2, #1677	; 0x68d
   81e9e:	f2c0 0208 	movt	r2, #8
   81ea2:	4790      	blx	r2
   81ea4:	f04f 0000 	mov.w	r0, #0
   81ea8:	bd10      	pop	{r4, pc}
   81eaa:	f04f 0001 	mov.w	r0, #1
   81eae:	bd10      	pop	{r4, pc}
   81eb0:	f04f 0001 	mov.w	r0, #1
   81eb4:	bd10      	pop	{r4, pc}
   81eb6:	bf00      	nop

00081eb8 <xTimerCreateTimerTask>:
   81eb8:	b510      	push	{r4, lr}
   81eba:	b084      	sub	sp, #16
   81ebc:	f641 53d9 	movw	r3, #7641	; 0x1dd9
   81ec0:	f2c0 0308 	movt	r3, #8
   81ec4:	4798      	blx	r3
   81ec6:	f648 20b0 	movw	r0, #35504	; 0x8ab0
   81eca:	f2c2 0007 	movt	r0, #8199	; 0x2007
   81ece:	6801      	ldr	r1, [r0, #0]
   81ed0:	b1b9      	cbz	r1, 81f02 <xTimerCreateTimerTask+0x4a>
   81ed2:	f04f 0209 	mov.w	r2, #9
   81ed6:	9200      	str	r2, [sp, #0]
   81ed8:	f04f 0300 	mov.w	r3, #0
   81edc:	9301      	str	r3, [sp, #4]
   81ede:	9302      	str	r3, [sp, #8]
   81ee0:	9303      	str	r3, [sp, #12]
   81ee2:	f242 0061 	movw	r0, #8289	; 0x2061
   81ee6:	f2c0 0008 	movt	r0, #8
   81eea:	f647 6180 	movw	r1, #32384	; 0x7e80
   81eee:	f2c0 0108 	movt	r1, #8
   81ef2:	f44f 7200 	mov.w	r2, #512	; 0x200
   81ef6:	f241 1451 	movw	r4, #4433	; 0x1151
   81efa:	f2c0 0408 	movt	r4, #8
   81efe:	47a0      	blx	r4
   81f00:	b930      	cbnz	r0, 81f10 <xTimerCreateTimerTask+0x58>
   81f02:	f240 7461 	movw	r4, #1889	; 0x761
   81f06:	f2c0 0408 	movt	r4, #8
   81f0a:	47a0      	blx	r4
   81f0c:	bf00      	nop
   81f0e:	e7fd      	b.n	81f0c <xTimerCreateTimerTask+0x54>
   81f10:	b004      	add	sp, #16
   81f12:	bd10      	pop	{r4, pc}

00081f14 <xTimerGenericCommand>:
   81f14:	b510      	push	{r4, lr}
   81f16:	b084      	sub	sp, #16
   81f18:	f648 24b0 	movw	r4, #35504	; 0x8ab0
   81f1c:	f2c2 0407 	movt	r4, #8199	; 0x2007
   81f20:	6824      	ldr	r4, [r4, #0]
   81f22:	b33c      	cbz	r4, 81f74 <xTimerGenericCommand+0x60>
   81f24:	9101      	str	r1, [sp, #4]
   81f26:	f8ad 2008 	strh.w	r2, [sp, #8]
   81f2a:	9003      	str	r0, [sp, #12]
   81f2c:	b9bb      	cbnz	r3, 81f5e <xTimerGenericCommand+0x4a>
   81f2e:	f641 43a9 	movw	r3, #7337	; 0x1ca9
   81f32:	f2c0 0308 	movt	r3, #8
   81f36:	4798      	blx	r3
   81f38:	2801      	cmp	r0, #1
   81f3a:	f648 23b0 	movw	r3, #35504	; 0x8ab0
   81f3e:	f2c2 0307 	movt	r3, #8199	; 0x2007
   81f42:	6818      	ldr	r0, [r3, #0]
   81f44:	a901      	add	r1, sp, #4
   81f46:	bf07      	ittee	eq
   81f48:	f8bd 2018 	ldrheq.w	r2, [sp, #24]
   81f4c:	2300      	moveq	r3, #0
   81f4e:	2200      	movne	r2, #0
   81f50:	4613      	movne	r3, r2
   81f52:	f640 4479 	movw	r4, #3193	; 0xc79
   81f56:	f2c0 0408 	movt	r4, #8
   81f5a:	47a0      	blx	r4
   81f5c:	e00c      	b.n	81f78 <xTimerGenericCommand+0x64>
   81f5e:	4620      	mov	r0, r4
   81f60:	a901      	add	r1, sp, #4
   81f62:	461a      	mov	r2, r3
   81f64:	f04f 0300 	mov.w	r3, #0
   81f68:	f640 54f9 	movw	r4, #3577	; 0xdf9
   81f6c:	f2c0 0408 	movt	r4, #8
   81f70:	47a0      	blx	r4
   81f72:	e001      	b.n	81f78 <xTimerGenericCommand+0x64>
   81f74:	f04f 0000 	mov.w	r0, #0
   81f78:	b004      	add	sp, #16
   81f7a:	bd10      	pop	{r4, pc}

00081f7c <prvSampleTimeNow>:
   81f7c:	e92d 4ff0 	stmdb	sp!, {r4, r5, r6, r7, r8, r9, sl, fp, lr}
   81f80:	b085      	sub	sp, #20
   81f82:	4682      	mov	sl, r0
   81f84:	f241 43a9 	movw	r3, #5289	; 0x14a9
   81f88:	f2c0 0308 	movt	r3, #8
   81f8c:	4798      	blx	r3
   81f8e:	4681      	mov	r9, r0
   81f90:	f648 20ac 	movw	r0, #35500	; 0x8aac
   81f94:	f2c2 0007 	movt	r0, #8199	; 0x2007
   81f98:	8801      	ldrh	r1, [r0, #0]
   81f9a:	4549      	cmp	r1, r9
   81f9c:	d951      	bls.n	82042 <prvSampleTimeNow+0xc6>
   81f9e:	e02d      	b.n	81ffc <prvSampleTimeNow+0x80>
   81fa0:	68dc      	ldr	r4, [r3, #12]
   81fa2:	8826      	ldrh	r6, [r4, #0]
   81fa4:	b2b6      	uxth	r6, r6
   81fa6:	68dd      	ldr	r5, [r3, #12]
   81fa8:	68ec      	ldr	r4, [r5, #12]
   81faa:	f104 0504 	add.w	r5, r4, #4
   81fae:	4628      	mov	r0, r5
   81fb0:	47c0      	blx	r8
   81fb2:	6a61      	ldr	r1, [r4, #36]	; 0x24
   81fb4:	4620      	mov	r0, r4
   81fb6:	4788      	blx	r1
   81fb8:	69e0      	ldr	r0, [r4, #28]
   81fba:	2801      	cmp	r0, #1
   81fbc:	d12d      	bne.n	8201a <prvSampleTimeNow+0x9e>
   81fbe:	8b23      	ldrh	r3, [r4, #24]
   81fc0:	18f2      	adds	r2, r6, r3
   81fc2:	b291      	uxth	r1, r2
   81fc4:	42b1      	cmp	r1, r6
   81fc6:	d909      	bls.n	81fdc <prvSampleTimeNow+0x60>
   81fc8:	80a1      	strh	r1, [r4, #4]
   81fca:	6124      	str	r4, [r4, #16]
   81fcc:	6838      	ldr	r0, [r7, #0]
   81fce:	4629      	mov	r1, r5
   81fd0:	f240 638d 	movw	r3, #1677	; 0x68d
   81fd4:	f2c0 0308 	movt	r3, #8
   81fd8:	4798      	blx	r3
   81fda:	e01e      	b.n	8201a <prvSampleTimeNow+0x9e>
   81fdc:	f8cd b000 	str.w	fp, [sp]
   81fe0:	4620      	mov	r0, r4
   81fe2:	4659      	mov	r1, fp
   81fe4:	4632      	mov	r2, r6
   81fe6:	465b      	mov	r3, fp
   81fe8:	9c03      	ldr	r4, [sp, #12]
   81fea:	47a0      	blx	r4
   81fec:	b9a8      	cbnz	r0, 8201a <prvSampleTimeNow+0x9e>
   81fee:	f240 7761 	movw	r7, #1889	; 0x761
   81ff2:	f2c0 0708 	movt	r7, #8
   81ff6:	47b8      	blx	r7
   81ff8:	bf00      	nop
   81ffa:	e7fd      	b.n	81ff8 <prvSampleTimeNow+0x7c>
   81ffc:	f648 2780 	movw	r7, #35456	; 0x8a80
   82000:	f2c2 0707 	movt	r7, #8199	; 0x2007
   82004:	f240 68d1 	movw	r8, #1745	; 0x6d1
   82008:	f2c0 0808 	movt	r8, #8
   8200c:	f04f 0b00 	mov.w	fp, #0
   82010:	f641 7315 	movw	r3, #7957	; 0x1f15
   82014:	f2c0 0308 	movt	r3, #8
   82018:	9303      	str	r3, [sp, #12]
   8201a:	683b      	ldr	r3, [r7, #0]
   8201c:	6818      	ldr	r0, [r3, #0]
   8201e:	2800      	cmp	r0, #0
   82020:	d1be      	bne.n	81fa0 <prvSampleTimeNow+0x24>
   82022:	f648 22b4 	movw	r2, #35508	; 0x8ab4
   82026:	f2c2 0207 	movt	r2, #8199	; 0x2007
   8202a:	6811      	ldr	r1, [r2, #0]
   8202c:	f648 2080 	movw	r0, #35456	; 0x8a80
   82030:	f2c2 0007 	movt	r0, #8199	; 0x2007
   82034:	6001      	str	r1, [r0, #0]
   82036:	6013      	str	r3, [r2, #0]
   82038:	f04f 0301 	mov.w	r3, #1
   8203c:	f8ca 3000 	str.w	r3, [sl]
   82040:	e003      	b.n	8204a <prvSampleTimeNow+0xce>
   82042:	f04f 0200 	mov.w	r2, #0
   82046:	f8ca 2000 	str.w	r2, [sl]
   8204a:	f648 22ac 	movw	r2, #35500	; 0x8aac
   8204e:	f2c2 0207 	movt	r2, #8199	; 0x2007
   82052:	f8a2 9000 	strh.w	r9, [r2]
   82056:	4648      	mov	r0, r9
   82058:	b005      	add	sp, #20
   8205a:	e8bd 8ff0 	ldmia.w	sp!, {r4, r5, r6, r7, r8, r9, sl, fp, pc}
   8205e:	bf00      	nop

00082060 <prvTimerTask>:
   82060:	e92d 4ff0 	stmdb	sp!, {r4, r5, r6, r7, r8, r9, sl, fp, lr}
   82064:	b089      	sub	sp, #36	; 0x24
   82066:	f648 2b80 	movw	fp, #35456	; 0x8a80
   8206a:	f2c2 0b07 	movt	fp, #8199	; 0x2007
   8206e:	f241 4395 	movw	r3, #5269	; 0x1495
   82072:	f2c0 0308 	movt	r3, #8
   82076:	9303      	str	r3, [sp, #12]
   82078:	f641 7a7d 	movw	sl, #8061	; 0x1f7d
   8207c:	f2c0 0a08 	movt	sl, #8
   82080:	f8db 0000 	ldr.w	r0, [fp]
   82084:	6802      	ldr	r2, [r0, #0]
   82086:	2a00      	cmp	r2, #0
   82088:	f000 80cd 	beq.w	82226 <prvTimerTask+0x1c6>
   8208c:	68c7      	ldr	r7, [r0, #12]
   8208e:	883b      	ldrh	r3, [r7, #0]
   82090:	b29d      	uxth	r5, r3
   82092:	9803      	ldr	r0, [sp, #12]
   82094:	4780      	blx	r0
   82096:	a804      	add	r0, sp, #16
   82098:	47d0      	blx	sl
   8209a:	4606      	mov	r6, r0
   8209c:	9a04      	ldr	r2, [sp, #16]
   8209e:	2a00      	cmp	r2, #0
   820a0:	d152      	bne.n	82148 <prvTimerTask+0xe8>
   820a2:	4285      	cmp	r5, r0
   820a4:	d838      	bhi.n	82118 <prvTimerTask+0xb8>
   820a6:	f241 606d 	movw	r0, #5741	; 0x166d
   820aa:	f2c0 0008 	movt	r0, #8
   820ae:	4780      	blx	r0
   820b0:	f8db 2000 	ldr.w	r2, [fp]
   820b4:	68d1      	ldr	r1, [r2, #12]
   820b6:	68cc      	ldr	r4, [r1, #12]
   820b8:	f104 0004 	add.w	r0, r4, #4
   820bc:	f240 67d1 	movw	r7, #1745	; 0x6d1
   820c0:	f2c0 0708 	movt	r7, #8
   820c4:	47b8      	blx	r7
   820c6:	69e3      	ldr	r3, [r4, #28]
   820c8:	2b01      	cmp	r3, #1
   820ca:	d11f      	bne.n	8210c <prvTimerTask+0xac>
   820cc:	8b20      	ldrh	r0, [r4, #24]
   820ce:	182a      	adds	r2, r5, r0
   820d0:	4620      	mov	r0, r4
   820d2:	b291      	uxth	r1, r2
   820d4:	4632      	mov	r2, r6
   820d6:	462b      	mov	r3, r5
   820d8:	f641 6651 	movw	r6, #7761	; 0x1e51
   820dc:	f2c0 0608 	movt	r6, #8
   820e0:	47b0      	blx	r6
   820e2:	2801      	cmp	r0, #1
   820e4:	d112      	bne.n	8210c <prvTimerTask+0xac>
   820e6:	f04f 0300 	mov.w	r3, #0
   820ea:	9300      	str	r3, [sp, #0]
   820ec:	4620      	mov	r0, r4
   820ee:	4619      	mov	r1, r3
   820f0:	462a      	mov	r2, r5
   820f2:	f641 7515 	movw	r5, #7957	; 0x1f15
   820f6:	f2c0 0508 	movt	r5, #8
   820fa:	47a8      	blx	r5
   820fc:	b930      	cbnz	r0, 8210c <prvTimerTask+0xac>
   820fe:	f240 7761 	movw	r7, #1889	; 0x761
   82102:	f2c0 0708 	movt	r7, #8
   82106:	47b8      	blx	r7
   82108:	bf00      	nop
   8210a:	e7fd      	b.n	82108 <prvTimerTask+0xa8>
   8210c:	6a61      	ldr	r1, [r4, #36]	; 0x24
   8210e:	4620      	mov	r0, r4
   82110:	4788      	blx	r1
   82112:	e01e      	b.n	82152 <prvTimerTask+0xf2>
   82114:	f04f 0500 	mov.w	r5, #0
   82118:	1bae      	subs	r6, r5, r6
   8211a:	f648 24b0 	movw	r4, #35504	; 0x8ab0
   8211e:	f2c2 0407 	movt	r4, #8199	; 0x2007
   82122:	6820      	ldr	r0, [r4, #0]
   82124:	b2b1      	uxth	r1, r6
   82126:	f241 0579 	movw	r5, #4217	; 0x1079
   8212a:	f2c0 0508 	movt	r5, #8
   8212e:	47a8      	blx	r5
   82130:	f241 676d 	movw	r7, #5741	; 0x166d
   82134:	f2c0 0708 	movt	r7, #8
   82138:	47b8      	blx	r7
   8213a:	b950      	cbnz	r0, 82152 <prvTimerTask+0xf2>
   8213c:	f240 7351 	movw	r3, #1873	; 0x751
   82140:	f2c0 0308 	movt	r3, #8
   82144:	4798      	blx	r3
   82146:	e004      	b.n	82152 <prvTimerTask+0xf2>
   82148:	f241 616d 	movw	r1, #5741	; 0x166d
   8214c:	f2c0 0108 	movt	r1, #8
   82150:	4788      	blx	r1
   82152:	a804      	add	r0, sp, #16
   82154:	47d0      	blx	sl
   82156:	4607      	mov	r7, r0
   82158:	f648 26b0 	movw	r6, #35504	; 0x8ab0
   8215c:	f2c2 0607 	movt	r6, #8199	; 0x2007
   82160:	f640 65a9 	movw	r5, #3753	; 0xea9
   82164:	f2c0 0508 	movt	r5, #8
   82168:	f240 68d1 	movw	r8, #1745	; 0x6d1
   8216c:	f2c0 0808 	movt	r8, #8
   82170:	f641 6951 	movw	r9, #7761	; 0x1e51
   82174:	f2c0 0908 	movt	r9, #8
   82178:	e04c      	b.n	82214 <prvTimerTask+0x1b4>
   8217a:	9c07      	ldr	r4, [sp, #28]
   8217c:	b124      	cbz	r4, 82188 <prvTimerTask+0x128>
   8217e:	6963      	ldr	r3, [r4, #20]
   82180:	b113      	cbz	r3, 82188 <prvTimerTask+0x128>
   82182:	f104 0004 	add.w	r0, r4, #4
   82186:	47c0      	blx	r8
   82188:	9805      	ldr	r0, [sp, #20]
   8218a:	2802      	cmp	r0, #2
   8218c:	d02a      	beq.n	821e4 <prvTimerTask+0x184>
   8218e:	2803      	cmp	r0, #3
   82190:	d03a      	beq.n	82208 <prvTimerTask+0x1a8>
   82192:	2800      	cmp	r0, #0
   82194:	d13e      	bne.n	82214 <prvTimerTask+0x1b4>
   82196:	f8bd 3018 	ldrh.w	r3, [sp, #24]
   8219a:	8b22      	ldrh	r2, [r4, #24]
   8219c:	1899      	adds	r1, r3, r2
   8219e:	4620      	mov	r0, r4
   821a0:	b289      	uxth	r1, r1
   821a2:	463a      	mov	r2, r7
   821a4:	47c8      	blx	r9
   821a6:	2801      	cmp	r0, #1
   821a8:	d134      	bne.n	82214 <prvTimerTask+0x1b4>
   821aa:	6a63      	ldr	r3, [r4, #36]	; 0x24
   821ac:	4620      	mov	r0, r4
   821ae:	4798      	blx	r3
   821b0:	69e0      	ldr	r0, [r4, #28]
   821b2:	2801      	cmp	r0, #1
   821b4:	d12e      	bne.n	82214 <prvTimerTask+0x1b4>
   821b6:	8b22      	ldrh	r2, [r4, #24]
   821b8:	f8bd 1018 	ldrh.w	r1, [sp, #24]
   821bc:	1852      	adds	r2, r2, r1
   821be:	f04f 0300 	mov.w	r3, #0
   821c2:	9300      	str	r3, [sp, #0]
   821c4:	4620      	mov	r0, r4
   821c6:	4619      	mov	r1, r3
   821c8:	b292      	uxth	r2, r2
   821ca:	f641 7415 	movw	r4, #7957	; 0x1f15
   821ce:	f2c0 0408 	movt	r4, #8
   821d2:	47a0      	blx	r4
   821d4:	b9f0      	cbnz	r0, 82214 <prvTimerTask+0x1b4>
   821d6:	f240 7561 	movw	r5, #1889	; 0x761
   821da:	f2c0 0508 	movt	r5, #8
   821de:	47a8      	blx	r5
   821e0:	bf00      	nop
   821e2:	e7fd      	b.n	821e0 <prvTimerTask+0x180>
   821e4:	f8bd 0018 	ldrh.w	r0, [sp, #24]
   821e8:	8320      	strh	r0, [r4, #24]
   821ea:	b930      	cbnz	r0, 821fa <prvTimerTask+0x19a>
   821ec:	f240 7661 	movw	r6, #1889	; 0x761
   821f0:	f2c0 0608 	movt	r6, #8
   821f4:	47b0      	blx	r6
   821f6:	bf00      	nop
   821f8:	e7fd      	b.n	821f6 <prvTimerTask+0x196>
   821fa:	1839      	adds	r1, r7, r0
   821fc:	4620      	mov	r0, r4
   821fe:	b289      	uxth	r1, r1
   82200:	463a      	mov	r2, r7
   82202:	463b      	mov	r3, r7
   82204:	47c8      	blx	r9
   82206:	e005      	b.n	82214 <prvTimerTask+0x1b4>
   82208:	4620      	mov	r0, r4
   8220a:	f640 13ed 	movw	r3, #2541	; 0x9ed
   8220e:	f2c0 0308 	movt	r3, #8
   82212:	4798      	blx	r3
   82214:	6830      	ldr	r0, [r6, #0]
   82216:	a905      	add	r1, sp, #20
   82218:	f04f 0200 	mov.w	r2, #0
   8221c:	4613      	mov	r3, r2
   8221e:	47a8      	blx	r5
   82220:	2800      	cmp	r0, #0
   82222:	d1aa      	bne.n	8217a <prvTimerTask+0x11a>
   82224:	e72c      	b.n	82080 <prvTimerTask+0x20>
   82226:	9903      	ldr	r1, [sp, #12]
   82228:	4788      	blx	r1
   8222a:	a804      	add	r0, sp, #16
   8222c:	47d0      	blx	sl
   8222e:	4606      	mov	r6, r0
   82230:	9c04      	ldr	r4, [sp, #16]
   82232:	2c00      	cmp	r4, #0
   82234:	f43f af6e 	beq.w	82114 <prvTimerTask+0xb4>
   82238:	e786      	b.n	82148 <prvTimerTask+0xe8>
   8223a:	bf00      	nop

0008223c <lcd_write>:
   8223c:	e92d 41f0 	stmdb	sp!, {r4, r5, r6, r7, r8, lr}
   82240:	b084      	sub	sp, #16
   82242:	4607      	mov	r7, r0
   82244:	460d      	mov	r5, r1
   82246:	f647 6388 	movw	r3, #32392	; 0x7e88
   8224a:	f2c0 0308 	movt	r3, #8
   8224e:	466c      	mov	r4, sp
   82250:	6818      	ldr	r0, [r3, #0]
   82252:	6859      	ldr	r1, [r3, #4]
   82254:	689a      	ldr	r2, [r3, #8]
   82256:	68db      	ldr	r3, [r3, #12]
   82258:	c40f      	stmia	r4!, {r0, r1, r2, r3}
   8225a:	eb04 1017 	add.w	r0, r4, r7, lsr #4
   8225e:	f810 1c10 	ldrb.w	r1, [r0, #-16]
   82262:	ea4f 56c1 	mov.w	r6, r1, lsl #23
   82266:	ea4f 1301 	mov.w	r3, r1, lsl #4
   8226a:	fa5f f883 	uxtb.w	r8, r3
   8226e:	b13d      	cbz	r5, 82280 <lcd_write+0x44>
   82270:	f44f 5290 	mov.w	r2, #4608	; 0x1200
   82274:	f2c4 020e 	movt	r2, #16398	; 0x400e
   82278:	f44f 0080 	mov.w	r0, #4194304	; 0x400000
   8227c:	6310      	str	r0, [r2, #48]	; 0x30
   8227e:	e006      	b.n	8228e <lcd_write+0x52>
   82280:	f44f 5590 	mov.w	r5, #4608	; 0x1200
   82284:	f2c4 050e 	movt	r5, #16398	; 0x400e
   82288:	f44f 0480 	mov.w	r4, #4194304	; 0x400000
   8228c:	636c      	str	r4, [r5, #52]	; 0x34
   8228e:	f006 61f0 	and.w	r1, r6, #125829120	; 0x7800000
   82292:	f44f 5490 	mov.w	r4, #4608	; 0x1200
   82296:	f2c4 040e 	movt	r4, #16398	; 0x400e
   8229a:	6321      	str	r1, [r4, #48]	; 0x30
   8229c:	ea6f 0606 	mvn.w	r6, r6
   822a0:	f006 63f0 	and.w	r3, r6, #125829120	; 0x7800000
   822a4:	6363      	str	r3, [r4, #52]	; 0x34
   822a6:	f44f 1600 	mov.w	r6, #2097152	; 0x200000
   822aa:	6326      	str	r6, [r4, #48]	; 0x30
   822ac:	f04f 0001 	mov.w	r0, #1
   822b0:	f240 3531 	movw	r5, #817	; 0x331
   822b4:	f2c0 0508 	movt	r5, #8
   822b8:	47a8      	blx	r5
   822ba:	6366      	str	r6, [r4, #52]	; 0x34
   822bc:	f04f 0064 	mov.w	r0, #100	; 0x64
   822c0:	47a8      	blx	r5
   822c2:	f007 070f 	and.w	r7, r7, #15
   822c6:	aa04      	add	r2, sp, #16
   822c8:	19d0      	adds	r0, r2, r7
   822ca:	f810 1c10 	ldrb.w	r1, [r0, #-16]
   822ce:	ea4f 53c1 	mov.w	r3, r1, lsl #23
   822d2:	eb08 0701 	add.w	r7, r8, r1
   822d6:	b2ff      	uxtb	r7, r7
   822d8:	f003 62f0 	and.w	r2, r3, #125829120	; 0x7800000
   822dc:	6322      	str	r2, [r4, #48]	; 0x30
   822de:	ea6f 0003 	mvn.w	r0, r3
   822e2:	f000 61f0 	and.w	r1, r0, #125829120	; 0x7800000
   822e6:	6361      	str	r1, [r4, #52]	; 0x34
   822e8:	6326      	str	r6, [r4, #48]	; 0x30
   822ea:	f04f 0001 	mov.w	r0, #1
   822ee:	47a8      	blx	r5
   822f0:	6366      	str	r6, [r4, #52]	; 0x34
   822f2:	f04f 0064 	mov.w	r0, #100	; 0x64
   822f6:	47a8      	blx	r5
   822f8:	4638      	mov	r0, r7
   822fa:	b004      	add	sp, #16
   822fc:	e8bd 81f0 	ldmia.w	sp!, {r4, r5, r6, r7, r8, pc}

00082300 <lcd_put_cursor>:
   82300:	b508      	push	{r3, lr}
   82302:	ea4f 1080 	mov.w	r0, r0, lsl #6
   82306:	f060 027f 	orn	r2, r0, #127	; 0x7f
   8230a:	430a      	orrs	r2, r1
   8230c:	b2d0      	uxtb	r0, r2
   8230e:	f04f 0100 	mov.w	r1, #0
   82312:	f242 233d 	movw	r3, #8765	; 0x223d
   82316:	f2c0 0308 	movt	r3, #8
   8231a:	4798      	blx	r3
   8231c:	f04f 0028 	mov.w	r0, #40	; 0x28
   82320:	f240 3131 	movw	r1, #817	; 0x331
   82324:	f2c0 0108 	movt	r1, #8
   82328:	4788      	blx	r1
   8232a:	f04f 0001 	mov.w	r0, #1
   8232e:	bd08      	pop	{r3, pc}

00082330 <lcd_set_cursor>:
   82330:	b508      	push	{r3, lr}
   82332:	f040 000c 	orr.w	r0, r0, #12
   82336:	f04f 0100 	mov.w	r1, #0
   8233a:	f242 233d 	movw	r3, #8765	; 0x223d
   8233e:	f2c0 0308 	movt	r3, #8
   82342:	4798      	blx	r3
   82344:	f04f 0001 	mov.w	r0, #1
   82348:	bd08      	pop	{r3, pc}
   8234a:	bf00      	nop

0008234c <lcd_clear>:
   8234c:	b508      	push	{r3, lr}
   8234e:	f04f 0001 	mov.w	r0, #1
   82352:	f04f 0100 	mov.w	r1, #0
   82356:	f242 233d 	movw	r3, #8765	; 0x223d
   8235a:	f2c0 0308 	movt	r3, #8
   8235e:	4798      	blx	r3
   82360:	f44f 60c8 	mov.w	r0, #1600	; 0x640
   82364:	f240 3131 	movw	r1, #817	; 0x331
   82368:	f2c0 0108 	movt	r1, #8
   8236c:	4788      	blx	r1
   8236e:	f04f 0001 	mov.w	r0, #1
   82372:	bd08      	pop	{r3, pc}

00082374 <lcd_init>:
   82374:	e92d 47f0 	stmdb	sp!, {r4, r5, r6, r7, r8, r9, sl, lr}
   82378:	f44f 5490 	mov.w	r4, #4608	; 0x1200
   8237c:	f2c4 040e 	movt	r4, #16398	; 0x400e
   82380:	f44f 0780 	mov.w	r7, #4194304	; 0x400000
   82384:	6127      	str	r7, [r4, #16]
   82386:	f8c4 70a0 	str.w	r7, [r4, #160]	; 0xa0
   8238a:	f44f 1500 	mov.w	r5, #2097152	; 0x200000
   8238e:	6125      	str	r5, [r4, #16]
   82390:	f8c4 50a0 	str.w	r5, [r4, #160]	; 0xa0
   82394:	f04f 5300 	mov.w	r3, #536870912	; 0x20000000
   82398:	6123      	str	r3, [r4, #16]
   8239a:	f8c4 30a0 	str.w	r3, [r4, #160]	; 0xa0
   8239e:	6323      	str	r3, [r4, #48]	; 0x30
   823a0:	f04f 60f0 	mov.w	r0, #125829120	; 0x7800000
   823a4:	6120      	str	r0, [r4, #16]
   823a6:	f8c4 00a0 	str.w	r0, [r4, #160]	; 0xa0
   823aa:	6365      	str	r5, [r4, #52]	; 0x34
   823ac:	f247 5030 	movw	r0, #30000	; 0x7530
   823b0:	f240 3631 	movw	r6, #817	; 0x331
   823b4:	f2c0 0608 	movt	r6, #8
   823b8:	47b0      	blx	r6
   823ba:	6367      	str	r7, [r4, #52]	; 0x34
   823bc:	f04f 6a80 	mov.w	sl, #67108864	; 0x4000000
   823c0:	f8c4 a030 	str.w	sl, [r4, #48]	; 0x30
   823c4:	f04f 7900 	mov.w	r9, #33554432	; 0x2000000
   823c8:	f8c4 9030 	str.w	r9, [r4, #48]	; 0x30
   823cc:	f04f 7880 	mov.w	r8, #16777216	; 0x1000000
   823d0:	f8c4 8034 	str.w	r8, [r4, #52]	; 0x34
   823d4:	f44f 0700 	mov.w	r7, #8388608	; 0x800000
   823d8:	6367      	str	r7, [r4, #52]	; 0x34
   823da:	6325      	str	r5, [r4, #48]	; 0x30
   823dc:	f04f 0001 	mov.w	r0, #1
   823e0:	47b0      	blx	r6
   823e2:	6365      	str	r5, [r4, #52]	; 0x34
   823e4:	f241 0004 	movw	r0, #4100	; 0x1004
   823e8:	47b0      	blx	r6
   823ea:	f8c4 a030 	str.w	sl, [r4, #48]	; 0x30
   823ee:	f8c4 9030 	str.w	r9, [r4, #48]	; 0x30
   823f2:	f8c4 8034 	str.w	r8, [r4, #52]	; 0x34
   823f6:	6367      	str	r7, [r4, #52]	; 0x34
   823f8:	6325      	str	r5, [r4, #48]	; 0x30
   823fa:	f04f 0001 	mov.w	r0, #1
   823fe:	47b0      	blx	r6
   82400:	6365      	str	r5, [r4, #52]	; 0x34
   82402:	f04f 0064 	mov.w	r0, #100	; 0x64
   82406:	47b0      	blx	r6
   82408:	f8c4 a030 	str.w	sl, [r4, #48]	; 0x30
   8240c:	f8c4 9030 	str.w	r9, [r4, #48]	; 0x30
   82410:	f8c4 8034 	str.w	r8, [r4, #52]	; 0x34
   82414:	6367      	str	r7, [r4, #52]	; 0x34
   82416:	6325      	str	r5, [r4, #48]	; 0x30
   82418:	f04f 0001 	mov.w	r0, #1
   8241c:	47b0      	blx	r6
   8241e:	6365      	str	r5, [r4, #52]	; 0x34
   82420:	f04f 0064 	mov.w	r0, #100	; 0x64
   82424:	47b0      	blx	r6
   82426:	f8c4 a034 	str.w	sl, [r4, #52]	; 0x34
   8242a:	f8c4 9030 	str.w	r9, [r4, #48]	; 0x30
   8242e:	f8c4 8034 	str.w	r8, [r4, #52]	; 0x34
   82432:	6367      	str	r7, [r4, #52]	; 0x34
   82434:	6325      	str	r5, [r4, #48]	; 0x30
   82436:	f04f 0001 	mov.w	r0, #1
   8243a:	47b0      	blx	r6
   8243c:	6365      	str	r5, [r4, #52]	; 0x34
   8243e:	f04f 0064 	mov.w	r0, #100	; 0x64
   82442:	47b0      	blx	r6
   82444:	f04f 0028 	mov.w	r0, #40	; 0x28
   82448:	f04f 0100 	mov.w	r1, #0
   8244c:	f242 243d 	movw	r4, #8765	; 0x223d
   82450:	f2c0 0408 	movt	r4, #8
   82454:	47a0      	blx	r4
   82456:	f04f 0008 	mov.w	r0, #8
   8245a:	f04f 0100 	mov.w	r1, #0
   8245e:	47a0      	blx	r4
   82460:	f242 314d 	movw	r1, #9037	; 0x234d
   82464:	f2c0 0108 	movt	r1, #8
   82468:	4788      	blx	r1
   8246a:	f640 30b8 	movw	r0, #3000	; 0xbb8
   8246e:	47b0      	blx	r6
   82470:	f04f 0006 	mov.w	r0, #6
   82474:	f04f 0100 	mov.w	r1, #0
   82478:	47a0      	blx	r4
   8247a:	f04f 0000 	mov.w	r0, #0
   8247e:	f242 3231 	movw	r2, #9009	; 0x2331
   82482:	f2c0 0208 	movt	r2, #8
   82486:	4790      	blx	r2
   82488:	f04f 0001 	mov.w	r0, #1
   8248c:	e8bd 87f0 	ldmia.w	sp!, {r4, r5, r6, r7, r8, r9, sl, pc}

00082490 <lcd_write_str>:
   82490:	b570      	push	{r4, r5, r6, lr}
   82492:	4604      	mov	r4, r0
   82494:	7800      	ldrb	r0, [r0, #0]
   82496:	b158      	cbz	r0, 824b0 <lcd_write_str+0x20>
   82498:	f04f 0601 	mov.w	r6, #1
   8249c:	f242 253d 	movw	r5, #8765	; 0x223d
   824a0:	f2c0 0508 	movt	r5, #8
   824a4:	4631      	mov	r1, r6
   824a6:	47a8      	blx	r5
   824a8:	f814 0f01 	ldrb.w	r0, [r4, #1]!
   824ac:	2800      	cmp	r0, #0
   824ae:	d1f9      	bne.n	824a4 <lcd_write_str+0x14>
   824b0:	f04f 0001 	mov.w	r0, #1
   824b4:	bd70      	pop	{r4, r5, r6, pc}
   824b6:	bf00      	nop

000824b8 <lcd_write_int>:
   824b8:	b500      	push	{lr}
   824ba:	b087      	sub	sp, #28
   824bc:	4602      	mov	r2, r0
   824be:	a801      	add	r0, sp, #4
   824c0:	f647 6198 	movw	r1, #32408	; 0x7e98
   824c4:	f2c0 0108 	movt	r1, #8
   824c8:	f244 73cd 	movw	r3, #18381	; 0x47cd
   824cc:	f2c0 0308 	movt	r3, #8
   824d0:	4798      	blx	r3
   824d2:	a801      	add	r0, sp, #4
   824d4:	f242 4191 	movw	r1, #9361	; 0x2491
   824d8:	f2c0 0108 	movt	r1, #8
   824dc:	4788      	blx	r1
   824de:	b007      	add	sp, #28
   824e0:	bd00      	pop	{pc}
   824e2:	bf00      	nop

000824e4 <usart_serial_getchar>:
 * \param p_usart   Base address of the USART instance.
 * \param data   Data to read
 *
 */
static inline void usart_serial_getchar(usart_if p_usart, uint8_t *data)
{
   824e4:	b5f0      	push	{r4, r5, r6, r7, lr}
   824e6:	b083      	sub	sp, #12
   824e8:	4604      	mov	r4, r0
   824ea:	460d      	mov	r5, r1
	uint32_t val = 0;
   824ec:	f04f 0300 	mov.w	r3, #0
   824f0:	9301      	str	r3, [sp, #4]

	/* Avoid Cppcheck Warning */
	UNUSED(val);

#ifdef UART
	if (UART == (Uart*)p_usart) {
   824f2:	f44f 6000 	mov.w	r0, #2048	; 0x800
   824f6:	f2c4 000e 	movt	r0, #16398	; 0x400e
   824fa:	4284      	cmp	r4, r0
   824fc:	d10d      	bne.n	8251a <usart_serial_getchar+0x36>
		while (uart_read((Uart*)p_usart, data));
   824fe:	f44f 6600 	mov.w	r6, #2048	; 0x800
   82502:	f2c4 060e 	movt	r6, #16398	; 0x400e
   82506:	f240 57f5 	movw	r7, #1525	; 0x5f5
   8250a:	f2c0 0708 	movt	r7, #8
   8250e:	4630      	mov	r0, r6
   82510:	4629      	mov	r1, r5
   82512:	47b8      	blx	r7
   82514:	2800      	cmp	r0, #0
   82516:	d1fa      	bne.n	8250e <usart_serial_getchar+0x2a>
   82518:	e02b      	b.n	82572 <usart_serial_getchar+0x8e>
		while (usart_read(p_usart, &val));
		*data = (uint8_t)(val & 0xFF);
	}
#else
# ifdef USART0
	if (USART0 == p_usart) {
   8251a:	f44f 4100 	mov.w	r1, #32768	; 0x8000
   8251e:	f2c4 0109 	movt	r1, #16393	; 0x4009
   82522:	428c      	cmp	r4, r1
   82524:	d10f      	bne.n	82546 <usart_serial_getchar+0x62>
		while (usart_read(p_usart, &val));
   82526:	f44f 4600 	mov.w	r6, #32768	; 0x8000
   8252a:	f2c4 0609 	movt	r6, #16393	; 0x4009
   8252e:	f240 672d 	movw	r7, #1581	; 0x62d
   82532:	f2c0 0708 	movt	r7, #8
   82536:	4630      	mov	r0, r6
   82538:	a901      	add	r1, sp, #4
   8253a:	47b8      	blx	r7
   8253c:	2800      	cmp	r0, #0
   8253e:	d1fa      	bne.n	82536 <usart_serial_getchar+0x52>
		*data = (uint8_t)(val & 0xFF);
   82540:	9801      	ldr	r0, [sp, #4]
   82542:	7028      	strb	r0, [r5, #0]
   82544:	e02b      	b.n	8259e <usart_serial_getchar+0xba>
	}
# endif
# ifdef USART1
	if (USART1 == p_usart) {
   82546:	f44f 4240 	mov.w	r2, #49152	; 0xc000
   8254a:	f2c4 0209 	movt	r2, #16393	; 0x4009
   8254e:	4294      	cmp	r4, r2
   82550:	d10f      	bne.n	82572 <usart_serial_getchar+0x8e>
		while (usart_read(p_usart, &val));
   82552:	f44f 4440 	mov.w	r4, #49152	; 0xc000
   82556:	f2c4 0409 	movt	r4, #16393	; 0x4009
   8255a:	f240 662d 	movw	r6, #1581	; 0x62d
   8255e:	f2c0 0608 	movt	r6, #8
   82562:	4620      	mov	r0, r4
   82564:	a901      	add	r1, sp, #4
   82566:	47b0      	blx	r6
   82568:	2800      	cmp	r0, #0
   8256a:	d1fa      	bne.n	82562 <usart_serial_getchar+0x7e>
		*data = (uint8_t)(val & 0xFF);
   8256c:	9b01      	ldr	r3, [sp, #4]
   8256e:	702b      	strb	r3, [r5, #0]
   82570:	e02a      	b.n	825c8 <usart_serial_getchar+0xe4>
	}
# endif
# ifdef USART2
	if (USART2 == p_usart) {
   82572:	f04f 0100 	mov.w	r1, #0
   82576:	f2c4 010a 	movt	r1, #16394	; 0x400a
   8257a:	428c      	cmp	r4, r1
   8257c:	d10f      	bne.n	8259e <usart_serial_getchar+0xba>
		while (usart_read(p_usart, &val));
   8257e:	f04f 0400 	mov.w	r4, #0
   82582:	f2c4 040a 	movt	r4, #16394	; 0x400a
   82586:	f240 662d 	movw	r6, #1581	; 0x62d
   8258a:	f2c0 0608 	movt	r6, #8
   8258e:	4620      	mov	r0, r4
   82590:	a901      	add	r1, sp, #4
   82592:	47b0      	blx	r6
   82594:	2800      	cmp	r0, #0
   82596:	d1fa      	bne.n	8258e <usart_serial_getchar+0xaa>
		*data = (uint8_t)(val & 0xFF);
   82598:	9801      	ldr	r0, [sp, #4]
   8259a:	7028      	strb	r0, [r5, #0]
   8259c:	e014      	b.n	825c8 <usart_serial_getchar+0xe4>
	}
# endif
# ifdef USART3
	if (USART3 == p_usart) {
   8259e:	f44f 4280 	mov.w	r2, #16384	; 0x4000
   825a2:	f2c4 020a 	movt	r2, #16394	; 0x400a
   825a6:	4294      	cmp	r4, r2
   825a8:	d10e      	bne.n	825c8 <usart_serial_getchar+0xe4>
		while (usart_read(p_usart, &val));
   825aa:	f44f 4480 	mov.w	r4, #16384	; 0x4000
   825ae:	f2c4 040a 	movt	r4, #16394	; 0x400a
   825b2:	f240 662d 	movw	r6, #1581	; 0x62d
   825b6:	f2c0 0608 	movt	r6, #8
   825ba:	4620      	mov	r0, r4
   825bc:	a901      	add	r1, sp, #4
   825be:	47b0      	blx	r6
   825c0:	2800      	cmp	r0, #0
   825c2:	d1fa      	bne.n	825ba <usart_serial_getchar+0xd6>
		*data = (uint8_t)(val & 0xFF);
   825c4:	9b01      	ldr	r3, [sp, #4]
   825c6:	702b      	strb	r3, [r5, #0]
		*data = (uint8_t)(val & 0xFF);
	}
# endif
#endif /* ifdef USART */

}
   825c8:	b003      	add	sp, #12
   825ca:	bdf0      	pop	{r4, r5, r6, r7, pc}

000825cc <usart_serial_putchar>:
 *   \retval 1  The character was written.
 *   \retval 0  The function timed out before the USART transmitter became
 * ready to send.
 */
static inline int usart_serial_putchar(usart_if p_usart, const uint8_t c)
{
   825cc:	b570      	push	{r4, r5, r6, lr}
   825ce:	460c      	mov	r4, r1
#ifdef UART
	if (UART == (Uart*)p_usart) {
   825d0:	f44f 6300 	mov.w	r3, #2048	; 0x800
   825d4:	f2c4 030e 	movt	r3, #16398	; 0x400e
   825d8:	4298      	cmp	r0, r3
   825da:	d10f      	bne.n	825fc <usart_serial_putchar+0x30>
		while (uart_write((Uart*)p_usart, c)!=0);
   825dc:	f44f 6500 	mov.w	r5, #2048	; 0x800
   825e0:	f2c4 050e 	movt	r5, #16398	; 0x400e
   825e4:	f240 56dd 	movw	r6, #1501	; 0x5dd
   825e8:	f2c0 0608 	movt	r6, #8
   825ec:	4628      	mov	r0, r5
   825ee:	4621      	mov	r1, r4
   825f0:	47b0      	blx	r6
   825f2:	2800      	cmp	r0, #0
   825f4:	d1fa      	bne.n	825ec <usart_serial_putchar+0x20>
		return 1;
   825f6:	f04f 0001 	mov.w	r0, #1
   825fa:	bd70      	pop	{r4, r5, r6, pc}
		while (usart_write(p_usart, c)!=0);
		return 1;
	}
#else
# ifdef USART0
	if (USART0 == p_usart) {
   825fc:	f44f 4100 	mov.w	r1, #32768	; 0x8000
   82600:	f2c4 0109 	movt	r1, #16393	; 0x4009
   82604:	4288      	cmp	r0, r1
   82606:	d10f      	bne.n	82628 <usart_serial_putchar+0x5c>
		while (usart_write(p_usart, c)!=0);
   82608:	f44f 4500 	mov.w	r5, #32768	; 0x8000
   8260c:	f2c4 0509 	movt	r5, #16393	; 0x4009
   82610:	f240 660d 	movw	r6, #1549	; 0x60d
   82614:	f2c0 0608 	movt	r6, #8
   82618:	4628      	mov	r0, r5
   8261a:	4621      	mov	r1, r4
   8261c:	47b0      	blx	r6
   8261e:	2800      	cmp	r0, #0
   82620:	d1fa      	bne.n	82618 <usart_serial_putchar+0x4c>
		return 1;
   82622:	f04f 0001 	mov.w	r0, #1
   82626:	bd70      	pop	{r4, r5, r6, pc}
	}
# endif
# ifdef USART1
	if (USART1 == p_usart) {
   82628:	f44f 4240 	mov.w	r2, #49152	; 0xc000
   8262c:	f2c4 0209 	movt	r2, #16393	; 0x4009
   82630:	4290      	cmp	r0, r2
   82632:	d10f      	bne.n	82654 <usart_serial_putchar+0x88>
		while (usart_write(p_usart, c)!=0);
   82634:	f44f 4540 	mov.w	r5, #49152	; 0xc000
   82638:	f2c4 0509 	movt	r5, #16393	; 0x4009
   8263c:	f240 660d 	movw	r6, #1549	; 0x60d
   82640:	f2c0 0608 	movt	r6, #8
   82644:	4628      	mov	r0, r5
   82646:	4621      	mov	r1, r4
   82648:	47b0      	blx	r6
   8264a:	2800      	cmp	r0, #0
   8264c:	d1fa      	bne.n	82644 <usart_serial_putchar+0x78>
		return 1;
   8264e:	f04f 0001 	mov.w	r0, #1
   82652:	bd70      	pop	{r4, r5, r6, pc}
	}
# endif
# ifdef USART2
	if (USART2 == p_usart) {
   82654:	f04f 0300 	mov.w	r3, #0
   82658:	f2c4 030a 	movt	r3, #16394	; 0x400a
   8265c:	4298      	cmp	r0, r3
   8265e:	d10f      	bne.n	82680 <usart_serial_putchar+0xb4>
		while (usart_write(p_usart, c)!=0);
   82660:	f04f 0500 	mov.w	r5, #0
   82664:	f2c4 050a 	movt	r5, #16394	; 0x400a
   82668:	f240 660d 	movw	r6, #1549	; 0x60d
   8266c:	f2c0 0608 	movt	r6, #8
   82670:	4628      	mov	r0, r5
   82672:	4621      	mov	r1, r4
   82674:	47b0      	blx	r6
   82676:	2800      	cmp	r0, #0
   82678:	d1fa      	bne.n	82670 <usart_serial_putchar+0xa4>
		return 1;
   8267a:	f04f 0001 	mov.w	r0, #1
   8267e:	bd70      	pop	{r4, r5, r6, pc}
	}
# endif
# ifdef USART3
	if (USART3 == p_usart) {
   82680:	f44f 4180 	mov.w	r1, #16384	; 0x4000
   82684:	f2c4 010a 	movt	r1, #16394	; 0x400a
   82688:	4288      	cmp	r0, r1
   8268a:	d10f      	bne.n	826ac <usart_serial_putchar+0xe0>
		while (usart_write(p_usart, c)!=0);
   8268c:	f44f 4580 	mov.w	r5, #16384	; 0x4000
   82690:	f2c4 050a 	movt	r5, #16394	; 0x400a
   82694:	f240 660d 	movw	r6, #1549	; 0x60d
   82698:	f2c0 0608 	movt	r6, #8
   8269c:	4628      	mov	r0, r5
   8269e:	4621      	mov	r1, r4
   826a0:	47b0      	blx	r6
   826a2:	2800      	cmp	r0, #0
   826a4:	d1fa      	bne.n	8269c <usart_serial_putchar+0xd0>
		return 1;
   826a6:	f04f 0001 	mov.w	r0, #1
   826aa:	bd70      	pop	{r4, r5, r6, pc}
		return 1;
	}
# endif
#endif /* ifdef USART */

	return 0;
   826ac:	f04f 0000 	mov.w	r0, #0
}
   826b0:	bd70      	pop	{r4, r5, r6, pc}
   826b2:	bf00      	nop

000826b4 <display_program_text>:
	lcd_init();
	
}

void display_program_text(void)
{
   826b4:	b538      	push	{r3, r4, r5, lr}
	/* initial program text */
// 	lcd_put_cursor(0, 0);
// 	lcd_write_str("*");
	lcd_put_cursor(0, 1);
   826b6:	f04f 0000 	mov.w	r0, #0
   826ba:	f04f 0101 	mov.w	r1, #1
   826be:	f242 3501 	movw	r5, #8961	; 0x2301
   826c2:	f2c0 0508 	movt	r5, #8
   826c6:	47a8      	blx	r5
	lcd_write_str("B");
   826c8:	f647 609c 	movw	r0, #32412	; 0x7e9c
   826cc:	f2c0 0008 	movt	r0, #8
   826d0:	f242 4491 	movw	r4, #9361	; 0x2491
   826d4:	f2c0 0408 	movt	r4, #8
   826d8:	47a0      	blx	r4
	lcd_put_cursor(0, 5);
   826da:	f04f 0000 	mov.w	r0, #0
   826de:	f04f 0105 	mov.w	r1, #5
   826e2:	47a8      	blx	r5
	lcd_write_str("Kp");
   826e4:	f647 60a0 	movw	r0, #32416	; 0x7ea0
   826e8:	f2c0 0008 	movt	r0, #8
   826ec:	47a0      	blx	r4
	lcd_put_cursor(0, 10);
   826ee:	f04f 0000 	mov.w	r0, #0
   826f2:	f04f 010a 	mov.w	r1, #10
   826f6:	47a8      	blx	r5
	lcd_write_str("Ti");
   826f8:	f647 60a4 	movw	r0, #32420	; 0x7ea4
   826fc:	f2c0 0008 	movt	r0, #8
   82700:	47a0      	blx	r4
	lcd_put_cursor(0, 14);
   82702:	f04f 0000 	mov.w	r0, #0
   82706:	f04f 010e 	mov.w	r1, #14
   8270a:	47a8      	blx	r5
	lcd_write_str("Td");
   8270c:	f647 60a8 	movw	r0, #32424	; 0x7ea8
   82710:	f2c0 0008 	movt	r0, #8
   82714:	47a0      	blx	r4
   82716:	bd38      	pop	{r3, r4, r5, pc}

00082718 <configure_console>:
	lcd_write_str("0.0");
	*/
}

void configure_console(void)
{
   82718:	b530      	push	{r4, r5, lr}
   8271a:	b085      	sub	sp, #20
 *
 * \param ul_id Id (number) of the peripheral clock.
 */
static inline void sysclk_enable_peripheral_clock(uint32_t ul_id)
{
	pmc_enable_periph_clk(ul_id);
   8271c:	f04f 0008 	mov.w	r0, #8
   82720:	f642 7535 	movw	r5, #12085	; 0x2f35
   82724:	f2c0 0508 	movt	r5, #8
   82728:	47a8      	blx	r5
 * \param opt         Options needed to set up RS232 communication (see \ref usart_options_t).
 *
 */
static inline void stdio_serial_init(volatile void *usart, const usart_serial_options_t *opt)
{
	stdio_base = (void *)usart;
   8272a:	f44f 6400 	mov.w	r4, #2048	; 0x800
   8272e:	f2c4 040e 	movt	r4, #16398	; 0x400e
   82732:	f648 339c 	movw	r3, #35740	; 0x8b9c
   82736:	f2c2 0307 	movt	r3, #8199	; 0x2007
   8273a:	601c      	str	r4, [r3, #0]
	ptr_put = (int (*)(void volatile*,char))&usart_serial_putchar;
   8273c:	f648 3098 	movw	r0, #35736	; 0x8b98
   82740:	f2c2 0007 	movt	r0, #8199	; 0x2007
   82744:	f242 52cd 	movw	r2, #9677	; 0x25cd
   82748:	f2c0 0208 	movt	r2, #8
   8274c:	6002      	str	r2, [r0, #0]
	ptr_get = (void (*)(void volatile*,char*))&usart_serial_getchar;
   8274e:	f648 3194 	movw	r1, #35732	; 0x8b94
   82752:	f2c2 0107 	movt	r1, #8199	; 0x2007
   82756:	f242 43e5 	movw	r3, #9445	; 0x24e5
   8275a:	f2c0 0308 	movt	r3, #8
   8275e:	600b      	str	r3, [r1, #0]
static inline void usart_serial_init(usart_if p_usart,
		usart_serial_options_t *opt)
{
#if (!SAM4L)
	sam_uart_opt_t uart_settings;
	uart_settings.ul_mck = sysclk_get_peripheral_hz();
   82760:	f44f 403d 	mov.w	r0, #48384	; 0xbd00
   82764:	f2c0 5001 	movt	r0, #1281	; 0x501
   82768:	9000      	str	r0, [sp, #0]
	uart_settings.ul_baudrate = opt->baudrate;
   8276a:	f44f 32e1 	mov.w	r2, #115200	; 0x1c200
   8276e:	9201      	str	r2, [sp, #4]
	uart_settings.ul_mode = opt->paritytype;
   82770:	f44f 6100 	mov.w	r1, #2048	; 0x800
   82774:	9102      	str	r1, [sp, #8]
   82776:	f04f 0008 	mov.w	r0, #8
   8277a:	47a8      	blx	r5
	
#ifdef UART
	if (UART == (Uart*)p_usart) {
		sysclk_enable_peripheral_clock(ID_UART);
		/* Configure UART */
		uart_init((Uart*)p_usart, &uart_settings);
   8277c:	4620      	mov	r0, r4
   8277e:	4669      	mov	r1, sp
   82780:	f240 5599 	movw	r5, #1433	; 0x599
   82784:	f2c0 0508 	movt	r5, #8
   82788:	47a8      	blx	r5
	fdevopen((int (*)(char, FILE*))(_write),(int (*)(FILE*))(_read));
#  endif
#  if UC3 || SAM
	// For AVR32 and SAM GCC
	// Specify that stdout and stdin should not be buffered.
	setbuf(stdout, NULL);
   8278a:	f240 0518 	movw	r5, #24
   8278e:	f2c2 0507 	movt	r5, #8199	; 0x2007
   82792:	682c      	ldr	r4, [r5, #0]
   82794:	68a0      	ldr	r0, [r4, #8]
   82796:	f04f 0100 	mov.w	r1, #0
   8279a:	f244 648f 	movw	r4, #18063	; 0x468f
   8279e:	f2c0 0408 	movt	r4, #8
   827a2:	47a0      	blx	r4
	setbuf(stdin, NULL);
   827a4:	682b      	ldr	r3, [r5, #0]
   827a6:	6858      	ldr	r0, [r3, #4]
   827a8:	f04f 0100 	mov.w	r1, #0
   827ac:	47a0      	blx	r4
	};
	sysclk_enable_peripheral_clock(CONSOLE_UART_ID);
	stdio_serial_init(CONF_UART, & uart_serial_options); //& betyder att man hmtar minnesplatsen fr det objektet!
	/* Stdout shall not be buffered */
	#if defined(__GNUC__)
	setbuf(stdout, NULL);
   827ae:	6828      	ldr	r0, [r5, #0]
   827b0:	6880      	ldr	r0, [r0, #8]
   827b2:	f04f 0100 	mov.w	r1, #0
   827b6:	47a0      	blx	r4
	/* Redan i fallet IAR's Normal DLIB default
	konfiguration:
	* snder en tecken tgngen
	*/
	#endif
}
   827b8:	b005      	add	sp, #20
   827ba:	bd30      	pop	{r4, r5, pc}

000827bc <main>:

int main(void)
{
   827bc:	e92d 4ff0 	stmdb	sp!, {r4, r5, r6, r7, r8, r9, sl, fp, lr}
   827c0:	b085      	sub	sp, #20
 * Making some necessary initializations for hardware and interrupts.
 */
static void init_hardware(void)
{
	/* Initiera SAM systemet */
	sysclk_init();
   827c2:	f642 1369 	movw	r3, #10601	; 0x2969
   827c6:	f2c0 0308 	movt	r3, #8
   827ca:	4798      	blx	r3
	board_init();
   827cc:	f642 10e1 	movw	r0, #10721	; 0x29e1
   827d0:	f2c0 0008 	movt	r0, #8
   827d4:	4780      	blx	r0
	delay_init(0); /* timer 0: for delay() */
   827d6:	f04f 0000 	mov.w	r0, #0
   827da:	f240 21cd 	movw	r1, #717	; 0x2cd
   827de:	f2c0 0108 	movt	r1, #8
   827e2:	4788      	blx	r1
   827e4:	f04f 000b 	mov.w	r0, #11
   827e8:	f642 7435 	movw	r4, #12085	; 0x2f35
   827ec:	f2c0 0408 	movt	r4, #8
   827f0:	47a0      	blx	r4
   827f2:	f04f 000c 	mov.w	r0, #12
   827f6:	47a0      	blx	r4
   827f8:	f04f 000d 	mov.w	r0, #13
   827fc:	47a0      	blx	r4
   827fe:	f04f 000e 	mov.w	r0, #14
   82802:	47a0      	blx	r4
	ioport_init();
	adc_setup();
   82804:	f243 32d5 	movw	r2, #13269	; 0x33d5
   82808:	f2c0 0208 	movt	r2, #8
   8280c:	4790      	blx	r2
	uint16_t I;
	uint16_t D;
} reglering;

static void dacc_setup(void) {
	pmc_enable_periph_clk(ID_DACC);
   8280e:	f04f 0026 	mov.w	r0, #38	; 0x26
   82812:	47a0      	blx	r4
	dacc_reset(DACC);
   82814:	f44f 4600 	mov.w	r6, #32768	; 0x8000
   82818:	f2c4 060c 	movt	r6, #16396	; 0x400c
   8281c:	4630      	mov	r0, r6
   8281e:	f240 15a5 	movw	r5, #421	; 0x1a5
   82822:	f2c0 0508 	movt	r5, #8
   82826:	47a8      	blx	r5
	dacc_set_transfer_mode(DACC, 0);
   82828:	4630      	mov	r0, r6
   8282a:	f04f 0100 	mov.w	r1, #0
   8282e:	f240 17ad 	movw	r7, #429	; 0x1ad
   82832:	f2c0 0708 	movt	r7, #8
   82836:	47b8      	blx	r7
	dacc_set_timing(DACC,1,1,0); //1 is shortest refresh period, 1 max. speed, 0 startup time
   82838:	4630      	mov	r0, r6
   8283a:	f04f 0101 	mov.w	r1, #1
   8283e:	460a      	mov	r2, r1
   82840:	f04f 0300 	mov.w	r3, #0
   82844:	f240 14e9 	movw	r4, #489	; 0x1e9
   82848:	f2c0 0408 	movt	r4, #8
   8284c:	47a0      	blx	r4
	dacc_set_channel_selection(DACC,0); //Channel DAC0
   8284e:	4630      	mov	r0, r6
   82850:	f04f 0100 	mov.w	r1, #0
   82854:	f240 13cd 	movw	r3, #461	; 0x1cd
   82858:	f2c0 0308 	movt	r3, #8
   8285c:	4798      	blx	r3
	dacc_enable_channel(DACC, 0); //enable DAC0
   8285e:	4630      	mov	r0, r6
   82860:	f04f 0100 	mov.w	r1, #0
   82864:	f240 221d 	movw	r2, #541	; 0x21d
   82868:	f2c0 0208 	movt	r2, #8
   8286c:	4790      	blx	r2
	ioport_init();
	adc_setup();
	dacc_setup();
	//adc_start(ADC);
	//config_timer_irq(1, 10); /* timer 1: for reading ADC, 10 times/second */
	lcd_init();
   8286e:	f242 3075 	movw	r0, #9077	; 0x2375
   82872:	f2c0 0008 	movt	r0, #8
   82876:	4780      	blx	r0
}

int main(void)
{
	init_hardware(); //LCD_Shield
	display_program_text(); //Setpoint, P, I, D- text.
   82878:	f242 61b5 	movw	r1, #9909	; 0x26b5
   8287c:	f2c0 0108 	movt	r1, #8
   82880:	4788      	blx	r1
	while(1) {
		reglering.setpoint = SETPOINT_START_VALUE;
   82882:	f648 35a0 	movw	r5, #35744	; 0x8ba0
   82886:	f2c2 0507 	movt	r5, #8199	; 0x2007
   8288a:	f44f 6780 	mov.w	r7, #1024	; 0x400
   8288e:	46bb      	mov	fp, r7
		reglering.P = P_START_VALUE;
		reglering.I = I_START_VALUE;
		reglering.D = D_START_VALUE;
		
		configure_console();
   82890:	f242 7a19 	movw	sl, #10009	; 0x2719
   82894:	f2c0 0a08 	movt	sl, #8
		/*printf("-- Freertos Exempel - Semaforer --\n\r");
		printf("-- %s\n\r", BOARD_NAME);
		printf("-- Kompilerad: %s %s --\n\r", __DATE__, __TIME__);*/
	
		/* a semaphore cannot be used wihtout calling vSemaphoreCreateBinary() */
		vSemaphoreCreateBinary(semafor_signal);
   82898:	f648 28b8 	movw	r8, #35512	; 0x8ab8
   8289c:	f2c2 0807 	movt	r8, #8199	; 0x2007
		/* Create the task giving the semaphore */
		if (xTaskCreate(pid_reg, (const signed char * const) "Task1", 1024, NULL, 3, NULL) != pdPASS) {
   828a0:	f243 4651 	movw	r6, #13393	; 0x3451
   828a4:	46b1      	mov	r9, r6
   828a6:	f2c0 0908 	movt	r9, #8
int main(void)
{
	init_hardware(); //LCD_Shield
	display_program_text(); //Setpoint, P, I, D- text.
	while(1) {
		reglering.setpoint = SETPOINT_START_VALUE;
   828aa:	f8a5 b000 	strh.w	fp, [r5]
		reglering.P = P_START_VALUE;
   828ae:	f04f 0401 	mov.w	r4, #1
   828b2:	806c      	strh	r4, [r5, #2]
		reglering.I = I_START_VALUE;
   828b4:	f240 33e7 	movw	r3, #999	; 0x3e7
   828b8:	80ab      	strh	r3, [r5, #4]
		reglering.D = D_START_VALUE;
   828ba:	f04f 020a 	mov.w	r2, #10
   828be:	80ea      	strh	r2, [r5, #6]
		
		configure_console();
   828c0:	47d0      	blx	sl
		/*printf("-- Freertos Exempel - Semaforer --\n\r");
		printf("-- %s\n\r", BOARD_NAME);
		printf("-- Kompilerad: %s %s --\n\r", __DATE__, __TIME__);*/
	
		/* a semaphore cannot be used wihtout calling vSemaphoreCreateBinary() */
		vSemaphoreCreateBinary(semafor_signal);
   828c2:	4620      	mov	r0, r4
   828c4:	f04f 0100 	mov.w	r1, #0
   828c8:	f04f 0203 	mov.w	r2, #3
   828cc:	f640 460d 	movw	r6, #3085	; 0xc0d
   828d0:	f2c0 0608 	movt	r6, #8
   828d4:	47b0      	blx	r6
   828d6:	f8c8 0000 	str.w	r0, [r8]
   828da:	b140      	cbz	r0, 828ee <main+0x132>
   828dc:	f04f 0100 	mov.w	r1, #0
   828e0:	460a      	mov	r2, r1
   828e2:	460b      	mov	r3, r1
   828e4:	f640 4479 	movw	r4, #3193	; 0xc79
   828e8:	f2c0 0408 	movt	r4, #8
   828ec:	47a0      	blx	r4
		/* Create the task giving the semaphore */
		if (xTaskCreate(pid_reg, (const signed char * const) "Task1", 1024, NULL, 3, NULL) != pdPASS) {
   828ee:	f04f 0003 	mov.w	r0, #3
   828f2:	9000      	str	r0, [sp, #0]
   828f4:	f04f 0400 	mov.w	r4, #0
   828f8:	9401      	str	r4, [sp, #4]
   828fa:	9402      	str	r4, [sp, #8]
   828fc:	9403      	str	r4, [sp, #12]
   828fe:	4648      	mov	r0, r9
   82900:	f647 61ac 	movw	r1, #32428	; 0x7eac
   82904:	f2c0 0108 	movt	r1, #8
   82908:	463a      	mov	r2, r7
   8290a:	4623      	mov	r3, r4
   8290c:	f241 1651 	movw	r6, #4433	; 0x1151
   82910:	f2c0 0608 	movt	r6, #8
   82914:	47b0      	blx	r6
		}
		/* Create a task taking the semaphore and doing its stuff */
		if (xTaskCreate(disp_buttons, (const signed char * const) "Task2", 1024, NULL, 2, NULL) != pdPASS) {
   82916:	f04f 0102 	mov.w	r1, #2
   8291a:	9100      	str	r1, [sp, #0]
   8291c:	9401      	str	r4, [sp, #4]
   8291e:	9402      	str	r4, [sp, #8]
   82920:	9403      	str	r4, [sp, #12]
   82922:	f643 40fd 	movw	r0, #15613	; 0x3cfd
   82926:	f2c0 0008 	movt	r0, #8
   8292a:	f647 61b4 	movw	r1, #32436	; 0x7eb4
   8292e:	f2c0 0108 	movt	r1, #8
   82932:	463a      	mov	r2, r7
   82934:	4623      	mov	r3, r4
   82936:	47b0      	blx	r6
		}
		/* Create a task taking the semaphore and doing its stuff */
		if (xTaskCreate(communication, (const signed char * const) "Task3", 1024, NULL, 1, NULL) != pdPASS) {
   82938:	f04f 0301 	mov.w	r3, #1
   8293c:	9300      	str	r3, [sp, #0]
   8293e:	9401      	str	r4, [sp, #4]
   82940:	9402      	str	r4, [sp, #8]
   82942:	9403      	str	r4, [sp, #12]
   82944:	f240 2039 	movw	r0, #569	; 0x239
   82948:	f2c0 0008 	movt	r0, #8
   8294c:	f647 61bc 	movw	r1, #32444	; 0x7ebc
   82950:	f2c0 0108 	movt	r1, #8
   82954:	463a      	mov	r2, r7
   82956:	4623      	mov	r3, r4
   82958:	47b0      	blx	r6
		}
		vTaskStartScheduler();
   8295a:	f241 420d 	movw	r2, #5133	; 0x140d
   8295e:	f2c0 0208 	movt	r2, #8
   82962:	4790      	blx	r2
	}
   82964:	e7a1      	b.n	828aa <main+0xee>
   82966:	bf00      	nop

00082968 <sysclk_init>:
   82968:	b510      	push	{r4, lr}
   8296a:	f44f 403d 	mov.w	r0, #48384	; 0xbd00
   8296e:	f2c0 5001 	movt	r0, #1281	; 0x501
   82972:	f243 23bd 	movw	r3, #12989	; 0x32bd
   82976:	f2c0 0308 	movt	r3, #8
   8297a:	4798      	blx	r3
   8297c:	f04f 0000 	mov.w	r0, #0
   82980:	f04f 013e 	mov.w	r1, #62	; 0x3e
   82984:	f642 6295 	movw	r2, #11925	; 0x2e95
   82988:	f2c0 0208 	movt	r2, #8
   8298c:	4790      	blx	r2
   8298e:	f642 7405 	movw	r4, #12037	; 0x2f05
   82992:	f2c0 0408 	movt	r4, #8
   82996:	47a0      	blx	r4
   82998:	2800      	cmp	r0, #0
   8299a:	d0fc      	beq.n	82996 <sysclk_init+0x2e>
   8299c:	f642 7015 	movw	r0, #12053	; 0x2f15
   829a0:	f2c0 0008 	movt	r0, #8
   829a4:	4780      	blx	r0
   829a6:	f44f 61c0 	mov.w	r1, #1536	; 0x600
   829aa:	f2c4 010e 	movt	r1, #16398	; 0x400e
   829ae:	f643 7301 	movw	r3, #16129	; 0x3f01
   829b2:	f2c2 030d 	movt	r3, #8205	; 0x200d
   829b6:	628b      	str	r3, [r1, #40]	; 0x28
   829b8:	f642 7425 	movw	r4, #12069	; 0x2f25
   829bc:	f2c0 0408 	movt	r4, #8
   829c0:	47a0      	blx	r4
   829c2:	2800      	cmp	r0, #0
   829c4:	d0fc      	beq.n	829c0 <sysclk_init+0x58>
   829c6:	f04f 0010 	mov.w	r0, #16
   829ca:	f642 52f5 	movw	r2, #11765	; 0x2df5
   829ce:	f2c0 0208 	movt	r2, #8
   829d2:	4790      	blx	r2
   829d4:	f243 00f5 	movw	r0, #12533	; 0x30f5
   829d8:	f2c0 0008 	movt	r0, #8
   829dc:	4780      	blx	r0
   829de:	bd10      	pop	{r4, pc}

000829e0 <board_init>:
   829e0:	b510      	push	{r4, lr}
   829e2:	f641 2350 	movw	r3, #6736	; 0x1a50
   829e6:	f2c4 030e 	movt	r3, #16398	; 0x400e
   829ea:	f44f 4200 	mov.w	r2, #32768	; 0x8000
   829ee:	605a      	str	r2, [r3, #4]
   829f0:	f04f 000b 	mov.w	r0, #11
   829f4:	f642 7435 	movw	r4, #12085	; 0x2f35
   829f8:	f2c0 0408 	movt	r4, #8
   829fc:	47a0      	blx	r4
   829fe:	f04f 000c 	mov.w	r0, #12
   82a02:	47a0      	blx	r4
   82a04:	f04f 000d 	mov.w	r0, #13
   82a08:	47a0      	blx	r4
   82a0a:	f04f 000e 	mov.w	r0, #14
   82a0e:	47a0      	blx	r4
   82a10:	f04f 003b 	mov.w	r0, #59	; 0x3b
   82a14:	f04f 5160 	mov.w	r1, #939524096	; 0x38000000
   82a18:	f642 3469 	movw	r4, #11113	; 0x2b69
   82a1c:	f2c0 0408 	movt	r4, #8
   82a20:	47a0      	blx	r4
   82a22:	f04f 0055 	mov.w	r0, #85	; 0x55
   82a26:	f04f 5160 	mov.w	r1, #939524096	; 0x38000000
   82a2a:	47a0      	blx	r4
   82a2c:	f04f 0056 	mov.w	r0, #86	; 0x56
   82a30:	f04f 5160 	mov.w	r1, #939524096	; 0x38000000
   82a34:	47a0      	blx	r4
   82a36:	f04f 0068 	mov.w	r0, #104	; 0x68
   82a3a:	f04f 0179 	mov.w	r1, #121	; 0x79
   82a3e:	f6c2 0100 	movt	r1, #10240	; 0x2800
   82a42:	47a0      	blx	r4
   82a44:	f04f 005c 	mov.w	r0, #92	; 0x5c
   82a48:	f04f 0101 	mov.w	r1, #1
   82a4c:	f6c2 0100 	movt	r1, #10240	; 0x2800
   82a50:	47a0      	blx	r4
   82a52:	f44f 6060 	mov.w	r0, #3584	; 0xe00
   82a56:	f2c4 000e 	movt	r0, #16398	; 0x400e
   82a5a:	f44f 7140 	mov.w	r1, #768	; 0x300
   82a5e:	f04f 6200 	mov.w	r2, #134217728	; 0x8000000
   82a62:	f642 4369 	movw	r3, #11369	; 0x2c69
   82a66:	f2c0 0308 	movt	r3, #8
   82a6a:	4798      	blx	r3
   82a6c:	f04f 002b 	mov.w	r0, #43	; 0x2b
   82a70:	f04f 6100 	mov.w	r1, #134217728	; 0x8000000
   82a74:	47a0      	blx	r4
   82a76:	f04f 002a 	mov.w	r0, #42	; 0x2a
   82a7a:	f04f 6100 	mov.w	r1, #134217728	; 0x8000000
   82a7e:	47a0      	blx	r4
   82a80:	bd10      	pop	{r4, pc}
   82a82:	bf00      	nop

00082a84 <pio_pull_up>:
   82a84:	b10a      	cbz	r2, 82a8a <pio_pull_up+0x6>
   82a86:	6641      	str	r1, [r0, #100]	; 0x64
   82a88:	4770      	bx	lr
   82a8a:	6601      	str	r1, [r0, #96]	; 0x60
   82a8c:	4770      	bx	lr
   82a8e:	bf00      	nop

00082a90 <pio_set_peripheral>:
   82a90:	6442      	str	r2, [r0, #68]	; 0x44
   82a92:	f1b1 5f80 	cmp.w	r1, #268435456	; 0x10000000
   82a96:	d016      	beq.n	82ac6 <pio_set_peripheral+0x36>
   82a98:	d804      	bhi.n	82aa4 <pio_set_peripheral+0x14>
   82a9a:	b1c9      	cbz	r1, 82ad0 <pio_set_peripheral+0x40>
   82a9c:	f1b1 6f00 	cmp.w	r1, #134217728	; 0x8000000
   82aa0:	d115      	bne.n	82ace <pio_set_peripheral+0x3e>
   82aa2:	e009      	b.n	82ab8 <pio_set_peripheral+0x28>
   82aa4:	f1b1 5f40 	cmp.w	r1, #805306368	; 0x30000000
   82aa8:	d012      	beq.n	82ad0 <pio_set_peripheral+0x40>
   82aaa:	f1b1 5f60 	cmp.w	r1, #939524096	; 0x38000000
   82aae:	d00f      	beq.n	82ad0 <pio_set_peripheral+0x40>
   82ab0:	f1b1 5f20 	cmp.w	r1, #671088640	; 0x28000000
   82ab4:	d10b      	bne.n	82ace <pio_set_peripheral+0x3e>
   82ab6:	4770      	bx	lr
   82ab8:	6f03      	ldr	r3, [r0, #112]	; 0x70
   82aba:	6f01      	ldr	r1, [r0, #112]	; 0x70
   82abc:	400b      	ands	r3, r1
   82abe:	ea23 0302 	bic.w	r3, r3, r2
   82ac2:	6703      	str	r3, [r0, #112]	; 0x70
   82ac4:	e003      	b.n	82ace <pio_set_peripheral+0x3e>
   82ac6:	6f03      	ldr	r3, [r0, #112]	; 0x70
   82ac8:	ea42 0103 	orr.w	r1, r2, r3
   82acc:	6701      	str	r1, [r0, #112]	; 0x70
   82ace:	6042      	str	r2, [r0, #4]
   82ad0:	4770      	bx	lr
   82ad2:	bf00      	nop

00082ad4 <pio_disable_interrupt>:
   82ad4:	6441      	str	r1, [r0, #68]	; 0x44
   82ad6:	4770      	bx	lr

00082ad8 <pio_set_output>:
   82ad8:	b5f8      	push	{r3, r4, r5, r6, r7, lr}
   82ada:	4604      	mov	r4, r0
   82adc:	460d      	mov	r5, r1
   82ade:	4616      	mov	r6, r2
   82ae0:	461f      	mov	r7, r3
   82ae2:	f642 23d5 	movw	r3, #10965	; 0x2ad5
   82ae6:	f2c0 0308 	movt	r3, #8
   82aea:	4798      	blx	r3
   82aec:	4620      	mov	r0, r4
   82aee:	4629      	mov	r1, r5
   82af0:	9a06      	ldr	r2, [sp, #24]
   82af2:	f642 2385 	movw	r3, #10885	; 0x2a85
   82af6:	f2c0 0308 	movt	r3, #8
   82afa:	4798      	blx	r3
   82afc:	b10f      	cbz	r7, 82b02 <pio_set_output+0x2a>
   82afe:	6525      	str	r5, [r4, #80]	; 0x50
   82b00:	e000      	b.n	82b04 <pio_set_output+0x2c>
   82b02:	6565      	str	r5, [r4, #84]	; 0x54
   82b04:	b10e      	cbz	r6, 82b0a <pio_set_output+0x32>
   82b06:	6325      	str	r5, [r4, #48]	; 0x30
   82b08:	e000      	b.n	82b0c <pio_set_output+0x34>
   82b0a:	6365      	str	r5, [r4, #52]	; 0x34
   82b0c:	6125      	str	r5, [r4, #16]
   82b0e:	6025      	str	r5, [r4, #0]
   82b10:	bdf8      	pop	{r3, r4, r5, r6, r7, pc}
   82b12:	bf00      	nop

00082b14 <pio_set_input>:
   82b14:	b570      	push	{r4, r5, r6, lr}
   82b16:	4604      	mov	r4, r0
   82b18:	460d      	mov	r5, r1
   82b1a:	4616      	mov	r6, r2
   82b1c:	f642 23d5 	movw	r3, #10965	; 0x2ad5
   82b20:	f2c0 0308 	movt	r3, #8
   82b24:	4798      	blx	r3
   82b26:	4620      	mov	r0, r4
   82b28:	4629      	mov	r1, r5
   82b2a:	f006 0201 	and.w	r2, r6, #1
   82b2e:	f642 2385 	movw	r3, #10885	; 0x2a85
   82b32:	f2c0 0308 	movt	r3, #8
   82b36:	4798      	blx	r3
   82b38:	f016 0f0a 	tst.w	r6, #10
   82b3c:	bf14      	ite	ne
   82b3e:	6225      	strne	r5, [r4, #32]
   82b40:	6265      	streq	r5, [r4, #36]	; 0x24
   82b42:	f016 0f02 	tst.w	r6, #2
   82b46:	d002      	beq.n	82b4e <pio_set_input+0x3a>
   82b48:	f8c4 5080 	str.w	r5, [r4, #128]	; 0x80
   82b4c:	e004      	b.n	82b58 <pio_set_input+0x44>
   82b4e:	f016 0f08 	tst.w	r6, #8
   82b52:	bf18      	it	ne
   82b54:	f8c4 5080 	strne.w	r5, [r4, #128]	; 0x80
   82b58:	6165      	str	r5, [r4, #20]
   82b5a:	6025      	str	r5, [r4, #0]
   82b5c:	bd70      	pop	{r4, r5, r6, pc}
   82b5e:	bf00      	nop

00082b60 <pio_get_interrupt_status>:
   82b60:	6cc0      	ldr	r0, [r0, #76]	; 0x4c
   82b62:	4770      	bx	lr

00082b64 <pio_get_interrupt_mask>:
   82b64:	6c80      	ldr	r0, [r0, #72]	; 0x48
   82b66:	4770      	bx	lr

00082b68 <pio_configure_pin>:
   82b68:	b5f0      	push	{r4, r5, r6, r7, lr}
   82b6a:	b083      	sub	sp, #12
   82b6c:	460d      	mov	r5, r1
   82b6e:	ea4f 1650 	mov.w	r6, r0, lsr #5
   82b72:	f506 1100 	add.w	r1, r6, #2097152	; 0x200000
   82b76:	f201 7207 	addw	r2, r1, #1799	; 0x707
   82b7a:	ea4f 2642 	mov.w	r6, r2, lsl #9
   82b7e:	f005 44f0 	and.w	r4, r5, #2013265920	; 0x78000000
   82b82:	f1b4 5f20 	cmp.w	r4, #671088640	; 0x28000000
   82b86:	d042      	beq.n	82c0e <pio_configure_pin+0xa6>
   82b88:	d806      	bhi.n	82b98 <pio_configure_pin+0x30>
   82b8a:	f1b4 6f00 	cmp.w	r4, #134217728	; 0x8000000
   82b8e:	d00a      	beq.n	82ba6 <pio_configure_pin+0x3e>
   82b90:	f1b4 5f80 	cmp.w	r4, #268435456	; 0x10000000
   82b94:	d164      	bne.n	82c60 <pio_configure_pin+0xf8>
   82b96:	e020      	b.n	82bda <pio_configure_pin+0x72>
   82b98:	f1b4 5f40 	cmp.w	r4, #805306368	; 0x30000000
   82b9c:	d046      	beq.n	82c2c <pio_configure_pin+0xc4>
   82b9e:	f1b4 5f60 	cmp.w	r4, #939524096	; 0x38000000
   82ba2:	d15d      	bne.n	82c60 <pio_configure_pin+0xf8>
   82ba4:	e042      	b.n	82c2c <pio_configure_pin+0xc4>
   82ba6:	f000 071f 	and.w	r7, r0, #31
   82baa:	f04f 0401 	mov.w	r4, #1
   82bae:	fa04 f707 	lsl.w	r7, r4, r7
   82bb2:	4630      	mov	r0, r6
   82bb4:	f04f 6100 	mov.w	r1, #134217728	; 0x8000000
   82bb8:	463a      	mov	r2, r7
   82bba:	f642 2391 	movw	r3, #10897	; 0x2a91
   82bbe:	f2c0 0308 	movt	r3, #8
   82bc2:	4798      	blx	r3
   82bc4:	4630      	mov	r0, r6
   82bc6:	4639      	mov	r1, r7
   82bc8:	ea05 0204 	and.w	r2, r5, r4
   82bcc:	f642 2385 	movw	r3, #10885	; 0x2a85
   82bd0:	f2c0 0308 	movt	r3, #8
   82bd4:	4798      	blx	r3
   82bd6:	4620      	mov	r0, r4
   82bd8:	e044      	b.n	82c64 <pio_configure_pin+0xfc>
   82bda:	f000 001f 	and.w	r0, r0, #31
   82bde:	f04f 0401 	mov.w	r4, #1
   82be2:	fa04 f700 	lsl.w	r7, r4, r0
   82be6:	4630      	mov	r0, r6
   82be8:	f04f 5180 	mov.w	r1, #268435456	; 0x10000000
   82bec:	463a      	mov	r2, r7
   82bee:	f642 2391 	movw	r3, #10897	; 0x2a91
   82bf2:	f2c0 0308 	movt	r3, #8
   82bf6:	4798      	blx	r3
   82bf8:	4630      	mov	r0, r6
   82bfa:	4639      	mov	r1, r7
   82bfc:	ea05 0204 	and.w	r2, r5, r4
   82c00:	f642 2385 	movw	r3, #10885	; 0x2a85
   82c04:	f2c0 0308 	movt	r3, #8
   82c08:	4798      	blx	r3
   82c0a:	4620      	mov	r0, r4
   82c0c:	e02a      	b.n	82c64 <pio_configure_pin+0xfc>
   82c0e:	f000 021f 	and.w	r2, r0, #31
   82c12:	f04f 0401 	mov.w	r4, #1
   82c16:	4630      	mov	r0, r6
   82c18:	fa04 f102 	lsl.w	r1, r4, r2
   82c1c:	462a      	mov	r2, r5
   82c1e:	f642 3315 	movw	r3, #11029	; 0x2b15
   82c22:	f2c0 0308 	movt	r3, #8
   82c26:	4798      	blx	r3
   82c28:	4620      	mov	r0, r4
   82c2a:	e01b      	b.n	82c64 <pio_configure_pin+0xfc>
   82c2c:	f000 021f 	and.w	r2, r0, #31
   82c30:	f04f 0401 	mov.w	r4, #1
   82c34:	f005 5360 	and.w	r3, r5, #939524096	; 0x38000000
   82c38:	ea05 0104 	and.w	r1, r5, r4
   82c3c:	9100      	str	r1, [sp, #0]
   82c3e:	4630      	mov	r0, r6
   82c40:	fa04 f102 	lsl.w	r1, r4, r2
   82c44:	f1b3 5f60 	cmp.w	r3, #939524096	; 0x38000000
   82c48:	bf14      	ite	ne
   82c4a:	2200      	movne	r2, #0
   82c4c:	2201      	moveq	r2, #1
   82c4e:	f3c5 0380 	ubfx	r3, r5, #2, #1
   82c52:	f642 25d9 	movw	r5, #10969	; 0x2ad9
   82c56:	f2c0 0508 	movt	r5, #8
   82c5a:	47a8      	blx	r5
   82c5c:	4620      	mov	r0, r4
   82c5e:	e001      	b.n	82c64 <pio_configure_pin+0xfc>
   82c60:	f04f 0000 	mov.w	r0, #0
   82c64:	b003      	add	sp, #12
   82c66:	bdf0      	pop	{r4, r5, r6, r7, pc}

00082c68 <pio_configure_pin_group>:
   82c68:	b5f0      	push	{r4, r5, r6, r7, lr}
   82c6a:	b083      	sub	sp, #12
   82c6c:	4607      	mov	r7, r0
   82c6e:	460e      	mov	r6, r1
   82c70:	4615      	mov	r5, r2
   82c72:	f002 44f0 	and.w	r4, r2, #2013265920	; 0x78000000
   82c76:	f1b4 5f20 	cmp.w	r4, #671088640	; 0x28000000
   82c7a:	d036      	beq.n	82cea <pio_configure_pin_group+0x82>
   82c7c:	d806      	bhi.n	82c8c <pio_configure_pin_group+0x24>
   82c7e:	f1b4 6f00 	cmp.w	r4, #134217728	; 0x8000000
   82c82:	d00a      	beq.n	82c9a <pio_configure_pin_group+0x32>
   82c84:	f1b4 5f80 	cmp.w	r4, #268435456	; 0x10000000
   82c88:	d14d      	bne.n	82d26 <pio_configure_pin_group+0xbe>
   82c8a:	e01a      	b.n	82cc2 <pio_configure_pin_group+0x5a>
   82c8c:	f1b4 5f40 	cmp.w	r4, #805306368	; 0x30000000
   82c90:	d033      	beq.n	82cfa <pio_configure_pin_group+0x92>
   82c92:	f1b4 5f60 	cmp.w	r4, #939524096	; 0x38000000
   82c96:	d146      	bne.n	82d26 <pio_configure_pin_group+0xbe>
   82c98:	e02f      	b.n	82cfa <pio_configure_pin_group+0x92>
   82c9a:	f04f 6100 	mov.w	r1, #134217728	; 0x8000000
   82c9e:	4632      	mov	r2, r6
   82ca0:	f642 2391 	movw	r3, #10897	; 0x2a91
   82ca4:	f2c0 0308 	movt	r3, #8
   82ca8:	4798      	blx	r3
   82caa:	4638      	mov	r0, r7
   82cac:	4631      	mov	r1, r6
   82cae:	f005 0201 	and.w	r2, r5, #1
   82cb2:	f642 2385 	movw	r3, #10885	; 0x2a85
   82cb6:	f2c0 0308 	movt	r3, #8
   82cba:	4798      	blx	r3
   82cbc:	f04f 0001 	mov.w	r0, #1
   82cc0:	e033      	b.n	82d2a <pio_configure_pin_group+0xc2>
   82cc2:	f04f 5180 	mov.w	r1, #268435456	; 0x10000000
   82cc6:	4632      	mov	r2, r6
   82cc8:	f642 2391 	movw	r3, #10897	; 0x2a91
   82ccc:	f2c0 0308 	movt	r3, #8
   82cd0:	4798      	blx	r3
   82cd2:	4638      	mov	r0, r7
   82cd4:	4631      	mov	r1, r6
   82cd6:	f005 0201 	and.w	r2, r5, #1
   82cda:	f642 2385 	movw	r3, #10885	; 0x2a85
   82cde:	f2c0 0308 	movt	r3, #8
   82ce2:	4798      	blx	r3
   82ce4:	f04f 0001 	mov.w	r0, #1
   82ce8:	e01f      	b.n	82d2a <pio_configure_pin_group+0xc2>
   82cea:	f642 3315 	movw	r3, #11029	; 0x2b15
   82cee:	f2c0 0308 	movt	r3, #8
   82cf2:	4798      	blx	r3
   82cf4:	f04f 0001 	mov.w	r0, #1
   82cf8:	e017      	b.n	82d2a <pio_configure_pin_group+0xc2>
   82cfa:	f005 5260 	and.w	r2, r5, #939524096	; 0x38000000
   82cfe:	f005 0001 	and.w	r0, r5, #1
   82d02:	9000      	str	r0, [sp, #0]
   82d04:	4638      	mov	r0, r7
   82d06:	4631      	mov	r1, r6
   82d08:	f1b2 5f60 	cmp.w	r2, #939524096	; 0x38000000
   82d0c:	bf14      	ite	ne
   82d0e:	2200      	movne	r2, #0
   82d10:	2201      	moveq	r2, #1
   82d12:	f3c5 0380 	ubfx	r3, r5, #2, #1
   82d16:	f642 24d9 	movw	r4, #10969	; 0x2ad9
   82d1a:	f2c0 0408 	movt	r4, #8
   82d1e:	47a0      	blx	r4
   82d20:	f04f 0001 	mov.w	r0, #1
   82d24:	e001      	b.n	82d2a <pio_configure_pin_group+0xc2>
   82d26:	f04f 0000 	mov.w	r0, #0
   82d2a:	b003      	add	sp, #12
   82d2c:	bdf0      	pop	{r4, r5, r6, r7, pc}
   82d2e:	bf00      	nop

00082d30 <pio_handler_process>:
   82d30:	b5f8      	push	{r3, r4, r5, r6, r7, lr}
   82d32:	4604      	mov	r4, r0
   82d34:	460e      	mov	r6, r1
   82d36:	f642 3361 	movw	r3, #11105	; 0x2b61
   82d3a:	f2c0 0308 	movt	r3, #8
   82d3e:	4798      	blx	r3
   82d40:	4605      	mov	r5, r0
   82d42:	4620      	mov	r0, r4
   82d44:	f642 3165 	movw	r1, #11109	; 0x2b65
   82d48:	f2c0 0108 	movt	r1, #8
   82d4c:	4788      	blx	r1
   82d4e:	4005      	ands	r5, r0
   82d50:	d014      	beq.n	82d7c <pio_handler_process+0x4c>
   82d52:	4c0b      	ldr	r4, [pc, #44]	; (82d80 <pio_handler_process+0x50>)
   82d54:	4627      	mov	r7, r4
   82d56:	f854 0c0c 	ldr.w	r0, [r4, #-12]
   82d5a:	42b0      	cmp	r0, r6
   82d5c:	d10a      	bne.n	82d74 <pio_handler_process+0x44>
   82d5e:	f854 1c08 	ldr.w	r1, [r4, #-8]
   82d62:	4229      	tst	r1, r5
   82d64:	d006      	beq.n	82d74 <pio_handler_process+0x44>
   82d66:	6822      	ldr	r2, [r4, #0]
   82d68:	4630      	mov	r0, r6
   82d6a:	4790      	blx	r2
   82d6c:	f854 3c08 	ldr.w	r3, [r4, #-8]
   82d70:	ea25 0503 	bic.w	r5, r5, r3
   82d74:	f104 0410 	add.w	r4, r4, #16
   82d78:	2d00      	cmp	r5, #0
   82d7a:	d1eb      	bne.n	82d54 <pio_handler_process+0x24>
   82d7c:	bdf8      	pop	{r3, r4, r5, r6, r7, pc}
   82d7e:	bf00      	nop
   82d80:	20078ac8 	.word	0x20078ac8

00082d84 <PIOA_Handler>:
   82d84:	b508      	push	{r3, lr}
   82d86:	f44f 6060 	mov.w	r0, #3584	; 0xe00
   82d8a:	f2c4 000e 	movt	r0, #16398	; 0x400e
   82d8e:	f04f 010b 	mov.w	r1, #11
   82d92:	f642 5331 	movw	r3, #11569	; 0x2d31
   82d96:	f2c0 0308 	movt	r3, #8
   82d9a:	4798      	blx	r3
   82d9c:	bd08      	pop	{r3, pc}
   82d9e:	bf00      	nop

00082da0 <PIOB_Handler>:
   82da0:	b508      	push	{r3, lr}
   82da2:	f44f 5080 	mov.w	r0, #4096	; 0x1000
   82da6:	f2c4 000e 	movt	r0, #16398	; 0x400e
   82daa:	f04f 010c 	mov.w	r1, #12
   82dae:	f642 5331 	movw	r3, #11569	; 0x2d31
   82db2:	f2c0 0308 	movt	r3, #8
   82db6:	4798      	blx	r3
   82db8:	bd08      	pop	{r3, pc}
   82dba:	bf00      	nop

00082dbc <PIOC_Handler>:
   82dbc:	b508      	push	{r3, lr}
   82dbe:	f44f 5090 	mov.w	r0, #4608	; 0x1200
   82dc2:	f2c4 000e 	movt	r0, #16398	; 0x400e
   82dc6:	f04f 010d 	mov.w	r1, #13
   82dca:	f642 5331 	movw	r3, #11569	; 0x2d31
   82dce:	f2c0 0308 	movt	r3, #8
   82dd2:	4798      	blx	r3
   82dd4:	bd08      	pop	{r3, pc}
   82dd6:	bf00      	nop

00082dd8 <PIOD_Handler>:
   82dd8:	b508      	push	{r3, lr}
   82dda:	f44f 50a0 	mov.w	r0, #5120	; 0x1400
   82dde:	f2c4 000e 	movt	r0, #16398	; 0x400e
   82de2:	f04f 010e 	mov.w	r1, #14
   82de6:	f642 5331 	movw	r3, #11569	; 0x2d31
   82dea:	f2c0 0308 	movt	r3, #8
   82dee:	4798      	blx	r3
   82df0:	bd08      	pop	{r3, pc}
   82df2:	bf00      	nop

00082df4 <pmc_switch_mck_to_pllack>:
   82df4:	f44f 63c0 	mov.w	r3, #1536	; 0x600
   82df8:	f2c4 030e 	movt	r3, #16398	; 0x400e
   82dfc:	6b1a      	ldr	r2, [r3, #48]	; 0x30
   82dfe:	f022 0170 	bic.w	r1, r2, #112	; 0x70
   82e02:	4308      	orrs	r0, r1
   82e04:	6318      	str	r0, [r3, #48]	; 0x30
   82e06:	6e98      	ldr	r0, [r3, #104]	; 0x68
   82e08:	f010 0f08 	tst.w	r0, #8
   82e0c:	d007      	beq.n	82e1e <pmc_switch_mck_to_pllack+0x2a>
   82e0e:	e010      	b.n	82e32 <pmc_switch_mck_to_pllack+0x3e>
   82e10:	f100 33ff 	add.w	r3, r0, #4294967295
   82e14:	6e90      	ldr	r0, [r2, #104]	; 0x68
   82e16:	f010 0f08 	tst.w	r0, #8
   82e1a:	d038      	beq.n	82e8e <pmc_switch_mck_to_pllack+0x9a>
   82e1c:	e009      	b.n	82e32 <pmc_switch_mck_to_pllack+0x3e>
   82e1e:	f44f 6000 	mov.w	r0, #2048	; 0x800
   82e22:	f44f 62c0 	mov.w	r2, #1536	; 0x600
   82e26:	f2c4 020e 	movt	r2, #16398	; 0x400e
   82e2a:	6e91      	ldr	r1, [r2, #104]	; 0x68
   82e2c:	f011 0f08 	tst.w	r1, #8
   82e30:	d0ee      	beq.n	82e10 <pmc_switch_mck_to_pllack+0x1c>
   82e32:	f44f 61c0 	mov.w	r1, #1536	; 0x600
   82e36:	f2c4 010e 	movt	r1, #16398	; 0x400e
   82e3a:	6b0a      	ldr	r2, [r1, #48]	; 0x30
   82e3c:	f022 0303 	bic.w	r3, r2, #3
   82e40:	f043 0002 	orr.w	r0, r3, #2
   82e44:	6308      	str	r0, [r1, #48]	; 0x30
   82e46:	6e89      	ldr	r1, [r1, #104]	; 0x68
   82e48:	f011 0f08 	tst.w	r1, #8
   82e4c:	d009      	beq.n	82e62 <pmc_switch_mck_to_pllack+0x6e>
   82e4e:	f04f 0000 	mov.w	r0, #0
   82e52:	4770      	bx	lr
   82e54:	f103 33ff 	add.w	r3, r3, #4294967295
   82e58:	6e91      	ldr	r1, [r2, #104]	; 0x68
   82e5a:	f011 0f08 	tst.w	r1, #8
   82e5e:	d013      	beq.n	82e88 <pmc_switch_mck_to_pllack+0x94>
   82e60:	e009      	b.n	82e76 <pmc_switch_mck_to_pllack+0x82>
   82e62:	f44f 6300 	mov.w	r3, #2048	; 0x800
   82e66:	f44f 62c0 	mov.w	r2, #1536	; 0x600
   82e6a:	f2c4 020e 	movt	r2, #16398	; 0x400e
   82e6e:	6e90      	ldr	r0, [r2, #104]	; 0x68
   82e70:	f010 0f08 	tst.w	r0, #8
   82e74:	d0ee      	beq.n	82e54 <pmc_switch_mck_to_pllack+0x60>
   82e76:	f04f 0000 	mov.w	r0, #0
   82e7a:	4770      	bx	lr
   82e7c:	f04f 0001 	mov.w	r0, #1
   82e80:	4770      	bx	lr
   82e82:	f04f 0001 	mov.w	r0, #1
   82e86:	4770      	bx	lr
   82e88:	3b01      	subs	r3, #1
   82e8a:	d1f0      	bne.n	82e6e <pmc_switch_mck_to_pllack+0x7a>
   82e8c:	e7f9      	b.n	82e82 <pmc_switch_mck_to_pllack+0x8e>
   82e8e:	1e58      	subs	r0, r3, #1
   82e90:	d1cb      	bne.n	82e2a <pmc_switch_mck_to_pllack+0x36>
   82e92:	e7f3      	b.n	82e7c <pmc_switch_mck_to_pllack+0x88>

00082e94 <pmc_switch_mainck_to_xtal>:
   82e94:	b188      	cbz	r0, 82eba <pmc_switch_mainck_to_xtal+0x26>
   82e96:	f44f 61c0 	mov.w	r1, #1536	; 0x600
   82e9a:	f2c4 010e 	movt	r1, #16398	; 0x400e
   82e9e:	6a08      	ldr	r0, [r1, #32]
   82ea0:	f64f 72fc 	movw	r2, #65532	; 0xfffc
   82ea4:	f6cf 62c8 	movt	r2, #65224	; 0xfec8
   82ea8:	4002      	ands	r2, r0
   82eaa:	f04f 0302 	mov.w	r3, #2
   82eae:	f2c0 1337 	movt	r3, #311	; 0x137
   82eb2:	ea42 0003 	orr.w	r0, r2, r3
   82eb6:	6208      	str	r0, [r1, #32]
   82eb8:	4770      	bx	lr
   82eba:	f44f 63c0 	mov.w	r3, #1536	; 0x600
   82ebe:	f2c4 030e 	movt	r3, #16398	; 0x400e
   82ec2:	6a1a      	ldr	r2, [r3, #32]
   82ec4:	f422 105c 	bic.w	r0, r2, #3604480	; 0x370000
   82ec8:	f020 0203 	bic.w	r2, r0, #3
   82ecc:	f442 105c 	orr.w	r0, r2, #3604480	; 0x370000
   82ed0:	f040 0201 	orr.w	r2, r0, #1
   82ed4:	ea4f 6101 	mov.w	r1, r1, lsl #24
   82ed8:	ea42 4011 	orr.w	r0, r2, r1, lsr #16
   82edc:	6218      	str	r0, [r3, #32]
   82ede:	f44f 62c0 	mov.w	r2, #1536	; 0x600
   82ee2:	f2c4 020e 	movt	r2, #16398	; 0x400e
   82ee6:	6e93      	ldr	r3, [r2, #104]	; 0x68
   82ee8:	f013 0f01 	tst.w	r3, #1
   82eec:	d0fb      	beq.n	82ee6 <pmc_switch_mainck_to_xtal+0x52>
   82eee:	f44f 61c0 	mov.w	r1, #1536	; 0x600
   82ef2:	f2c4 010e 	movt	r1, #16398	; 0x400e
   82ef6:	6a08      	ldr	r0, [r1, #32]
   82ef8:	f040 729b 	orr.w	r2, r0, #20316160	; 0x1360000
   82efc:	f442 3380 	orr.w	r3, r2, #65536	; 0x10000
   82f00:	620b      	str	r3, [r1, #32]
   82f02:	4770      	bx	lr

00082f04 <pmc_osc_is_ready_mainck>:
   82f04:	f44f 63c0 	mov.w	r3, #1536	; 0x600
   82f08:	f2c4 030e 	movt	r3, #16398	; 0x400e
   82f0c:	6e98      	ldr	r0, [r3, #104]	; 0x68
   82f0e:	f400 3080 	and.w	r0, r0, #65536	; 0x10000
   82f12:	4770      	bx	lr

00082f14 <pmc_disable_pllack>:
   82f14:	f44f 63c0 	mov.w	r3, #1536	; 0x600
   82f18:	f2c4 030e 	movt	r3, #16398	; 0x400e
   82f1c:	f04f 5200 	mov.w	r2, #536870912	; 0x20000000
   82f20:	629a      	str	r2, [r3, #40]	; 0x28
   82f22:	4770      	bx	lr

00082f24 <pmc_is_locked_pllack>:
   82f24:	f44f 63c0 	mov.w	r3, #1536	; 0x600
   82f28:	f2c4 030e 	movt	r3, #16398	; 0x400e
   82f2c:	6e98      	ldr	r0, [r3, #104]	; 0x68
   82f2e:	f000 0002 	and.w	r0, r0, #2
   82f32:	4770      	bx	lr

00082f34 <pmc_enable_periph_clk>:
   82f34:	282c      	cmp	r0, #44	; 0x2c
   82f36:	d835      	bhi.n	82fa4 <pmc_enable_periph_clk+0x70>
   82f38:	281f      	cmp	r0, #31
   82f3a:	d817      	bhi.n	82f6c <pmc_enable_periph_clk+0x38>
   82f3c:	f44f 61c0 	mov.w	r1, #1536	; 0x600
   82f40:	f2c4 010e 	movt	r1, #16398	; 0x400e
   82f44:	698a      	ldr	r2, [r1, #24]
   82f46:	f04f 0301 	mov.w	r3, #1
   82f4a:	fa03 f300 	lsl.w	r3, r3, r0
   82f4e:	401a      	ands	r2, r3
   82f50:	4293      	cmp	r3, r2
   82f52:	d02a      	beq.n	82faa <pmc_enable_periph_clk+0x76>
   82f54:	f04f 0101 	mov.w	r1, #1
   82f58:	fa01 f000 	lsl.w	r0, r1, r0
   82f5c:	f44f 62c0 	mov.w	r2, #1536	; 0x600
   82f60:	f2c4 020e 	movt	r2, #16398	; 0x400e
   82f64:	6110      	str	r0, [r2, #16]
   82f66:	f04f 0000 	mov.w	r0, #0
   82f6a:	4770      	bx	lr
   82f6c:	f44f 63c0 	mov.w	r3, #1536	; 0x600
   82f70:	f2c4 030e 	movt	r3, #16398	; 0x400e
   82f74:	f8d3 2108 	ldr.w	r2, [r3, #264]	; 0x108
   82f78:	f1a0 0020 	sub.w	r0, r0, #32
   82f7c:	f04f 0101 	mov.w	r1, #1
   82f80:	fa01 f100 	lsl.w	r1, r1, r0
   82f84:	400a      	ands	r2, r1
   82f86:	4291      	cmp	r1, r2
   82f88:	d012      	beq.n	82fb0 <pmc_enable_periph_clk+0x7c>
   82f8a:	f04f 0301 	mov.w	r3, #1
   82f8e:	fa03 f000 	lsl.w	r0, r3, r0
   82f92:	f44f 62c0 	mov.w	r2, #1536	; 0x600
   82f96:	f2c4 020e 	movt	r2, #16398	; 0x400e
   82f9a:	f8c2 0100 	str.w	r0, [r2, #256]	; 0x100
   82f9e:	f04f 0000 	mov.w	r0, #0
   82fa2:	4770      	bx	lr
   82fa4:	f04f 0001 	mov.w	r0, #1
   82fa8:	4770      	bx	lr
   82faa:	f04f 0000 	mov.w	r0, #0
   82fae:	4770      	bx	lr
   82fb0:	f04f 0000 	mov.w	r0, #0
   82fb4:	4770      	bx	lr
   82fb6:	bf00      	nop

00082fb8 <Dummy_Handler>:
   82fb8:	e7fe      	b.n	82fb8 <Dummy_Handler>
   82fba:	bf00      	nop

00082fbc <Reset_Handler>:
   82fbc:	b538      	push	{r3, r4, r5, lr}
   82fbe:	f240 0300 	movw	r3, #0
   82fc2:	f2c2 0307 	movt	r3, #8199	; 0x2007
   82fc6:	f647 728c 	movw	r2, #32652	; 0x7f8c
   82fca:	f2c0 0208 	movt	r2, #8
   82fce:	429a      	cmp	r2, r3
   82fd0:	d003      	beq.n	82fda <Reset_Handler+0x1e>
   82fd2:	4840      	ldr	r0, [pc, #256]	; (830d4 <Reset_Handler+0x118>)
   82fd4:	4940      	ldr	r1, [pc, #256]	; (830d8 <Reset_Handler+0x11c>)
   82fd6:	4281      	cmp	r1, r0
   82fd8:	d304      	bcc.n	82fe4 <Reset_Handler+0x28>
   82fda:	4b40      	ldr	r3, [pc, #256]	; (830dc <Reset_Handler+0x120>)
   82fdc:	4a40      	ldr	r2, [pc, #256]	; (830e0 <Reset_Handler+0x124>)
   82fde:	429a      	cmp	r2, r3
   82fe0:	d325      	bcc.n	8302e <Reset_Handler+0x72>
   82fe2:	e042      	b.n	8306a <Reset_Handler+0xae>
   82fe4:	4d3f      	ldr	r5, [pc, #252]	; (830e4 <Reset_Handler+0x128>)
   82fe6:	4c40      	ldr	r4, [pc, #256]	; (830e8 <Reset_Handler+0x12c>)
   82fe8:	1b63      	subs	r3, r4, r5
   82fea:	f023 0503 	bic.w	r5, r3, #3
   82fee:	f04f 0300 	mov.w	r3, #0
   82ff2:	f240 0200 	movw	r2, #0
   82ff6:	f2c2 0207 	movt	r2, #8199	; 0x2007
   82ffa:	f647 718c 	movw	r1, #32652	; 0x7f8c
   82ffe:	f2c0 0108 	movt	r1, #8
   83002:	f105 0004 	add.w	r0, r5, #4
   83006:	f3c5 0480 	ubfx	r4, r5, #2, #1
   8300a:	585d      	ldr	r5, [r3, r1]
   8300c:	509d      	str	r5, [r3, r2]
   8300e:	f103 0304 	add.w	r3, r3, #4
   83012:	4283      	cmp	r3, r0
   83014:	d155      	bne.n	830c2 <Reset_Handler+0x106>
   83016:	e7e0      	b.n	82fda <Reset_Handler+0x1e>
   83018:	585d      	ldr	r5, [r3, r1]
   8301a:	509d      	str	r5, [r3, r2]
   8301c:	f103 0304 	add.w	r3, r3, #4
   83020:	585c      	ldr	r4, [r3, r1]
   83022:	509c      	str	r4, [r3, r2]
   83024:	f103 0304 	add.w	r3, r3, #4
   83028:	4283      	cmp	r3, r0
   8302a:	d1f5      	bne.n	83018 <Reset_Handler+0x5c>
   8302c:	e7d5      	b.n	82fda <Reset_Handler+0x1e>
   8302e:	4d2f      	ldr	r5, [pc, #188]	; (830ec <Reset_Handler+0x130>)
   83030:	492f      	ldr	r1, [pc, #188]	; (830f0 <Reset_Handler+0x134>)
   83032:	1b48      	subs	r0, r1, r5
   83034:	f020 0403 	bic.w	r4, r0, #3
   83038:	f640 03d8 	movw	r3, #2264	; 0x8d8
   8303c:	f2c2 0307 	movt	r3, #8199	; 0x2007
   83040:	18e2      	adds	r2, r4, r3
   83042:	f04f 0100 	mov.w	r1, #0
   83046:	1b50      	subs	r0, r2, r5
   83048:	f1a0 0004 	sub.w	r0, r0, #4
   8304c:	f3c0 0480 	ubfx	r4, r0, #2, #1
   83050:	f845 1f04 	str.w	r1, [r5, #4]!
   83054:	4295      	cmp	r5, r2
   83056:	d12d      	bne.n	830b4 <Reset_Handler+0xf8>
   83058:	e007      	b.n	8306a <Reset_Handler+0xae>
   8305a:	f105 0304 	add.w	r3, r5, #4
   8305e:	6069      	str	r1, [r5, #4]
   83060:	f105 0508 	add.w	r5, r5, #8
   83064:	6059      	str	r1, [r3, #4]
   83066:	4295      	cmp	r5, r2
   83068:	d1f7      	bne.n	8305a <Reset_Handler+0x9e>
   8306a:	f240 0500 	movw	r5, #0
   8306e:	f2c0 0508 	movt	r5, #8
   83072:	f025 4260 	bic.w	r2, r5, #3758096384	; 0xe0000000
   83076:	f022 017f 	bic.w	r1, r2, #127	; 0x7f
   8307a:	f44f 406d 	mov.w	r0, #60672	; 0xed00
   8307e:	f2ce 0000 	movt	r0, #57344	; 0xe000
   83082:	6081      	str	r1, [r0, #8]
   83084:	f105 4460 	add.w	r4, r5, #3758096384	; 0xe0000000
   83088:	f5b4 1f80 	cmp.w	r4, #1048576	; 0x100000
   8308c:	d207      	bcs.n	8309e <Reset_Handler+0xe2>
   8308e:	f44f 436d 	mov.w	r3, #60672	; 0xed00
   83092:	f2ce 0300 	movt	r3, #57344	; 0xe000
   83096:	689d      	ldr	r5, [r3, #8]
   83098:	f045 5200 	orr.w	r2, r5, #536870912	; 0x20000000
   8309c:	609a      	str	r2, [r3, #8]
   8309e:	f244 51e1 	movw	r1, #17889	; 0x45e1
   830a2:	f2c0 0108 	movt	r1, #8
   830a6:	4788      	blx	r1
   830a8:	f242 70bd 	movw	r0, #10173	; 0x27bd
   830ac:	f2c0 0008 	movt	r0, #8
   830b0:	4780      	blx	r0
   830b2:	e7fe      	b.n	830b2 <Reset_Handler+0xf6>
   830b4:	2c00      	cmp	r4, #0
   830b6:	d0d0      	beq.n	8305a <Reset_Handler+0x9e>
   830b8:	f845 1f04 	str.w	r1, [r5, #4]!
   830bc:	4295      	cmp	r5, r2
   830be:	d1cc      	bne.n	8305a <Reset_Handler+0x9e>
   830c0:	e7d3      	b.n	8306a <Reset_Handler+0xae>
   830c2:	2c00      	cmp	r4, #0
   830c4:	d0a8      	beq.n	83018 <Reset_Handler+0x5c>
   830c6:	585c      	ldr	r4, [r3, r1]
   830c8:	509c      	str	r4, [r3, r2]
   830ca:	f103 0304 	add.w	r3, r3, #4
   830ce:	4283      	cmp	r3, r0
   830d0:	d1a2      	bne.n	83018 <Reset_Handler+0x5c>
   830d2:	e782      	b.n	82fda <Reset_Handler+0x1e>
   830d4:	200708d8 	.word	0x200708d8
   830d8:	20070000 	.word	0x20070000
   830dc:	20078bac 	.word	0x20078bac
   830e0:	200708d8 	.word	0x200708d8
   830e4:	20070004 	.word	0x20070004
   830e8:	200708db 	.word	0x200708db
   830ec:	200708d4 	.word	0x200708d4
   830f0:	20078ba7 	.word	0x20078ba7

000830f4 <SystemCoreClockUpdate>:
   830f4:	f44f 63c0 	mov.w	r3, #1536	; 0x600
   830f8:	f2c4 030e 	movt	r3, #16398	; 0x400e
   830fc:	6b18      	ldr	r0, [r3, #48]	; 0x30
   830fe:	f000 0103 	and.w	r1, r0, #3
   83102:	2903      	cmp	r1, #3
   83104:	f200 80b1 	bhi.w	8326a <SystemCoreClockUpdate+0x176>
   83108:	e8df f001 	tbb	[pc, r1]
   8310c:	4f4f1402 	.word	0x4f4f1402
   83110:	f641 2010 	movw	r0, #6672	; 0x1a10
   83114:	f2c4 000e 	movt	r0, #16398	; 0x400e
   83118:	6941      	ldr	r1, [r0, #20]
   8311a:	f011 0f80 	tst.w	r1, #128	; 0x80
   8311e:	f240 030c 	movw	r3, #12
   83122:	f2c2 0307 	movt	r3, #8199	; 0x2007
   83126:	bf14      	ite	ne
   83128:	f44f 4200 	movne.w	r2, #32768	; 0x8000
   8312c:	f44f 42fa 	moveq.w	r2, #32000	; 0x7d00
   83130:	601a      	str	r2, [r3, #0]
   83132:	e09a      	b.n	8326a <SystemCoreClockUpdate+0x176>
   83134:	f44f 63c0 	mov.w	r3, #1536	; 0x600
   83138:	f2c4 030e 	movt	r3, #16398	; 0x400e
   8313c:	6a18      	ldr	r0, [r3, #32]
   8313e:	f010 7f80 	tst.w	r0, #16777216	; 0x1000000
   83142:	d009      	beq.n	83158 <SystemCoreClockUpdate+0x64>
   83144:	f44f 53d8 	mov.w	r3, #6912	; 0x1b00
   83148:	f2c0 03b7 	movt	r3, #183	; 0xb7
   8314c:	f240 020c 	movw	r2, #12
   83150:	f2c2 0207 	movt	r2, #8199	; 0x2007
   83154:	6013      	str	r3, [r2, #0]
   83156:	e088      	b.n	8326a <SystemCoreClockUpdate+0x176>
   83158:	f44f 6110 	mov.w	r1, #2304	; 0x900
   8315c:	f2c0 013d 	movt	r1, #61	; 0x3d
   83160:	f240 020c 	movw	r2, #12
   83164:	f2c2 0207 	movt	r2, #8199	; 0x2007
   83168:	6011      	str	r1, [r2, #0]
   8316a:	f44f 63c0 	mov.w	r3, #1536	; 0x600
   8316e:	f2c4 030e 	movt	r3, #16398	; 0x400e
   83172:	6a18      	ldr	r0, [r3, #32]
   83174:	f000 0170 	and.w	r1, r0, #112	; 0x70
   83178:	2910      	cmp	r1, #16
   8317a:	d002      	beq.n	83182 <SystemCoreClockUpdate+0x8e>
   8317c:	2920      	cmp	r1, #32
   8317e:	d174      	bne.n	8326a <SystemCoreClockUpdate+0x176>
   83180:	e009      	b.n	83196 <SystemCoreClockUpdate+0xa2>
   83182:	f44f 5090 	mov.w	r0, #4608	; 0x1200
   83186:	f2c0 007a 	movt	r0, #122	; 0x7a
   8318a:	f240 010c 	movw	r1, #12
   8318e:	f2c2 0107 	movt	r1, #8199	; 0x2007
   83192:	6008      	str	r0, [r1, #0]
   83194:	e069      	b.n	8326a <SystemCoreClockUpdate+0x176>
   83196:	f44f 53d8 	mov.w	r3, #6912	; 0x1b00
   8319a:	f2c0 03b7 	movt	r3, #183	; 0xb7
   8319e:	f240 020c 	movw	r2, #12
   831a2:	f2c2 0207 	movt	r2, #8199	; 0x2007
   831a6:	6013      	str	r3, [r2, #0]
   831a8:	e05f      	b.n	8326a <SystemCoreClockUpdate+0x176>
   831aa:	f44f 62c0 	mov.w	r2, #1536	; 0x600
   831ae:	f2c4 020e 	movt	r2, #16398	; 0x400e
   831b2:	6a13      	ldr	r3, [r2, #32]
   831b4:	f013 7f80 	tst.w	r3, #16777216	; 0x1000000
   831b8:	d009      	beq.n	831ce <SystemCoreClockUpdate+0xda>
   831ba:	f44f 51d8 	mov.w	r1, #6912	; 0x1b00
   831be:	f2c0 01b7 	movt	r1, #183	; 0xb7
   831c2:	f240 020c 	movw	r2, #12
   831c6:	f2c2 0207 	movt	r2, #8199	; 0x2007
   831ca:	6011      	str	r1, [r2, #0]
   831cc:	e027      	b.n	8321e <SystemCoreClockUpdate+0x12a>
   831ce:	f44f 6010 	mov.w	r0, #2304	; 0x900
   831d2:	f2c0 003d 	movt	r0, #61	; 0x3d
   831d6:	f240 010c 	movw	r1, #12
   831da:	f2c2 0107 	movt	r1, #8199	; 0x2007
   831de:	6008      	str	r0, [r1, #0]
   831e0:	f44f 62c0 	mov.w	r2, #1536	; 0x600
   831e4:	f2c4 020e 	movt	r2, #16398	; 0x400e
   831e8:	6a13      	ldr	r3, [r2, #32]
   831ea:	f003 0070 	and.w	r0, r3, #112	; 0x70
   831ee:	2810      	cmp	r0, #16
   831f0:	d002      	beq.n	831f8 <SystemCoreClockUpdate+0x104>
   831f2:	2820      	cmp	r0, #32
   831f4:	d113      	bne.n	8321e <SystemCoreClockUpdate+0x12a>
   831f6:	e009      	b.n	8320c <SystemCoreClockUpdate+0x118>
   831f8:	f44f 5390 	mov.w	r3, #4608	; 0x1200
   831fc:	f2c0 037a 	movt	r3, #122	; 0x7a
   83200:	f240 000c 	movw	r0, #12
   83204:	f2c2 0007 	movt	r0, #8199	; 0x2007
   83208:	6003      	str	r3, [r0, #0]
   8320a:	e008      	b.n	8321e <SystemCoreClockUpdate+0x12a>
   8320c:	f44f 51d8 	mov.w	r1, #6912	; 0x1b00
   83210:	f2c0 01b7 	movt	r1, #183	; 0xb7
   83214:	f240 020c 	movw	r2, #12
   83218:	f2c2 0207 	movt	r2, #8199	; 0x2007
   8321c:	6011      	str	r1, [r2, #0]
   8321e:	f44f 63c0 	mov.w	r3, #1536	; 0x600
   83222:	f2c4 030e 	movt	r3, #16398	; 0x400e
   83226:	6b18      	ldr	r0, [r3, #48]	; 0x30
   83228:	f000 0103 	and.w	r1, r0, #3
   8322c:	2902      	cmp	r1, #2
   8322e:	d113      	bne.n	83258 <SystemCoreClockUpdate+0x164>
   83230:	f44f 61c0 	mov.w	r1, #1536	; 0x600
   83234:	f2c4 010e 	movt	r1, #16398	; 0x400e
   83238:	6a88      	ldr	r0, [r1, #40]	; 0x28
   8323a:	6a89      	ldr	r1, [r1, #40]	; 0x28
   8323c:	f240 030c 	movw	r3, #12
   83240:	f2c2 0307 	movt	r3, #8199	; 0x2007
   83244:	f3c0 400a 	ubfx	r0, r0, #16, #11
   83248:	681a      	ldr	r2, [r3, #0]
   8324a:	fb00 2002 	mla	r0, r0, r2, r2
   8324e:	b2c9      	uxtb	r1, r1
   83250:	fbb0 f2f1 	udiv	r2, r0, r1
   83254:	601a      	str	r2, [r3, #0]
   83256:	e008      	b.n	8326a <SystemCoreClockUpdate+0x176>
   83258:	f44f 53e0 	mov.w	r3, #7168	; 0x1c00
   8325c:	f6c0 634e 	movt	r3, #3662	; 0xe4e
   83260:	f240 020c 	movw	r2, #12
   83264:	f2c2 0207 	movt	r2, #8199	; 0x2007
   83268:	6013      	str	r3, [r2, #0]
   8326a:	f44f 62c0 	mov.w	r2, #1536	; 0x600
   8326e:	f2c4 020e 	movt	r2, #16398	; 0x400e
   83272:	6b10      	ldr	r0, [r2, #48]	; 0x30
   83274:	f000 0170 	and.w	r1, r0, #112	; 0x70
   83278:	2970      	cmp	r1, #112	; 0x70
   8327a:	d10e      	bne.n	8329a <SystemCoreClockUpdate+0x1a6>
   8327c:	f240 030c 	movw	r3, #12
   83280:	f2c2 0307 	movt	r3, #8199	; 0x2007
   83284:	6818      	ldr	r0, [r3, #0]
   83286:	f64a 22ab 	movw	r2, #43691	; 0xaaab
   8328a:	f6ca 22aa 	movt	r2, #43690	; 0xaaaa
   8328e:	fba2 0100 	umull	r0, r1, r2, r0
   83292:	ea4f 0051 	mov.w	r0, r1, lsr #1
   83296:	6018      	str	r0, [r3, #0]
   83298:	4770      	bx	lr
   8329a:	f44f 63c0 	mov.w	r3, #1536	; 0x600
   8329e:	f2c4 030e 	movt	r3, #16398	; 0x400e
   832a2:	6b1a      	ldr	r2, [r3, #48]	; 0x30
   832a4:	f240 000c 	movw	r0, #12
   832a8:	f2c2 0007 	movt	r0, #8199	; 0x2007
   832ac:	f3c2 1102 	ubfx	r1, r2, #4, #3
   832b0:	6803      	ldr	r3, [r0, #0]
   832b2:	fa23 f301 	lsr.w	r3, r3, r1
   832b6:	6003      	str	r3, [r0, #0]
   832b8:	4770      	bx	lr
   832ba:	bf00      	nop

000832bc <system_init_flash>:
   832bc:	f64e 23bf 	movw	r3, #60095	; 0xeabf
   832c0:	f2c0 1321 	movt	r3, #289	; 0x121
   832c4:	4298      	cmp	r0, r3
   832c6:	d80c      	bhi.n	832e2 <system_init_flash+0x26>
   832c8:	f44f 6320 	mov.w	r3, #2560	; 0xa00
   832cc:	f2c4 030e 	movt	r3, #16398	; 0x400e
   832d0:	f04f 0000 	mov.w	r0, #0
   832d4:	6018      	str	r0, [r3, #0]
   832d6:	f44f 6140 	mov.w	r1, #3072	; 0xc00
   832da:	f2c4 010e 	movt	r1, #16398	; 0x400e
   832de:	6008      	str	r0, [r1, #0]
   832e0:	4770      	bx	lr
   832e2:	f24f 017f 	movw	r1, #61567	; 0xf07f
   832e6:	f2c0 21fa 	movt	r1, #762	; 0x2fa
   832ea:	4288      	cmp	r0, r1
   832ec:	d80c      	bhi.n	83308 <system_init_flash+0x4c>
   832ee:	f44f 6020 	mov.w	r0, #2560	; 0xa00
   832f2:	f2c4 000e 	movt	r0, #16398	; 0x400e
   832f6:	f44f 7180 	mov.w	r1, #256	; 0x100
   832fa:	6001      	str	r1, [r0, #0]
   832fc:	f44f 6240 	mov.w	r2, #3072	; 0xc00
   83300:	f2c4 020e 	movt	r2, #16398	; 0x400e
   83304:	6011      	str	r1, [r2, #0]
   83306:	4770      	bx	lr
   83308:	f648 73ff 	movw	r3, #36863	; 0x8fff
   8330c:	f2c0 33d0 	movt	r3, #976	; 0x3d0
   83310:	4298      	cmp	r0, r3
   83312:	d80c      	bhi.n	8332e <system_init_flash+0x72>
   83314:	f44f 6120 	mov.w	r1, #2560	; 0xa00
   83318:	f2c4 010e 	movt	r1, #16398	; 0x400e
   8331c:	f44f 7200 	mov.w	r2, #512	; 0x200
   83320:	600a      	str	r2, [r1, #0]
   83322:	f44f 6340 	mov.w	r3, #3072	; 0xc00
   83326:	f2c4 030e 	movt	r3, #16398	; 0x400e
   8332a:	601a      	str	r2, [r3, #0]
   8332c:	4770      	bx	lr
   8332e:	f24b 31ff 	movw	r1, #46079	; 0xb3ff
   83332:	f2c0 41c4 	movt	r1, #1220	; 0x4c4
   83336:	4288      	cmp	r0, r1
   83338:	d80c      	bhi.n	83354 <system_init_flash+0x98>
   8333a:	f44f 6320 	mov.w	r3, #2560	; 0xa00
   8333e:	f2c4 030e 	movt	r3, #16398	; 0x400e
   83342:	f44f 7240 	mov.w	r2, #768	; 0x300
   83346:	601a      	str	r2, [r3, #0]
   83348:	f44f 6040 	mov.w	r0, #3072	; 0xc00
   8334c:	f2c4 000e 	movt	r0, #16398	; 0x400e
   83350:	6002      	str	r2, [r0, #0]
   83352:	4770      	bx	lr
   83354:	f644 237f 	movw	r3, #19071	; 0x4a7f
   83358:	f2c0 535d 	movt	r3, #1373	; 0x55d
   8335c:	4298      	cmp	r0, r3
   8335e:	f44f 6020 	mov.w	r0, #2560	; 0xa00
   83362:	f2c4 000e 	movt	r0, #16398	; 0x400e
   83366:	bf94      	ite	ls
   83368:	f44f 6280 	movls.w	r2, #1024	; 0x400
   8336c:	f44f 62a0 	movhi.w	r2, #1280	; 0x500
   83370:	6002      	str	r2, [r0, #0]
   83372:	f44f 6140 	mov.w	r1, #3072	; 0xc00
   83376:	f2c4 010e 	movt	r1, #16398	; 0x400e
   8337a:	600a      	str	r2, [r1, #0]
   8337c:	4770      	bx	lr
   8337e:	bf00      	nop

00083380 <_sbrk>:
   83380:	f648 332c 	movw	r3, #35628	; 0x8b2c
   83384:	f2c2 0307 	movt	r3, #8199	; 0x2007
   83388:	6819      	ldr	r1, [r3, #0]
   8338a:	b941      	cbnz	r1, 8339e <_sbrk+0x1e>
   8338c:	f648 332c 	movw	r3, #35628	; 0x8b2c
   83390:	f2c2 0307 	movt	r3, #8199	; 0x2007
   83394:	f64a 32b0 	movw	r2, #43952	; 0xabb0
   83398:	f2c2 0207 	movt	r2, #8199	; 0x2007
   8339c:	601a      	str	r2, [r3, #0]
   8339e:	f648 312c 	movw	r1, #35628	; 0x8b2c
   833a2:	f2c2 0107 	movt	r1, #8199	; 0x2007
   833a6:	680b      	ldr	r3, [r1, #0]
   833a8:	1818      	adds	r0, r3, r0
   833aa:	6008      	str	r0, [r1, #0]
   833ac:	4618      	mov	r0, r3
   833ae:	4770      	bx	lr

000833b0 <_close>:
   833b0:	f04f 30ff 	mov.w	r0, #4294967295
   833b4:	4770      	bx	lr
   833b6:	bf00      	nop

000833b8 <_fstat>:
   833b8:	f44f 5300 	mov.w	r3, #8192	; 0x2000
   833bc:	604b      	str	r3, [r1, #4]
   833be:	f04f 0000 	mov.w	r0, #0
   833c2:	4770      	bx	lr

000833c4 <_isatty>:
   833c4:	f04f 0001 	mov.w	r0, #1
   833c8:	4770      	bx	lr
   833ca:	bf00      	nop

000833cc <_lseek>:
   833cc:	f04f 0000 	mov.w	r0, #0
   833d0:	4770      	bx	lr
   833d2:	bf00      	nop

000833d4 <adc_setup>:
   833d4:	b538      	push	{r3, r4, r5, lr}
   833d6:	f04f 0025 	mov.w	r0, #37	; 0x25
   833da:	f642 7335 	movw	r3, #12085	; 0x2f35
   833de:	f2c0 0308 	movt	r3, #8
   833e2:	4798      	blx	r3
   833e4:	f04f 0400 	mov.w	r4, #0
   833e8:	f2c4 040c 	movt	r4, #16396	; 0x400c
   833ec:	4620      	mov	r0, r4
   833ee:	f44f 41f4 	mov.w	r1, #31232	; 0x7a00
   833f2:	f6c0 2103 	movt	r1, #2563	; 0xa03
   833f6:	f649 7280 	movw	r2, #40832	; 0x9f80
   833fa:	f2c0 02d5 	movt	r2, #213	; 0xd5
   833fe:	f04f 0308 	mov.w	r3, #8
   83402:	f240 45b5 	movw	r5, #1205	; 0x4b5
   83406:	f2c0 0508 	movt	r5, #8
   8340a:	47a8      	blx	r5
   8340c:	4620      	mov	r0, r4
   8340e:	f04f 0100 	mov.w	r1, #0
   83412:	f44f 1240 	mov.w	r2, #3145728	; 0x300000
   83416:	f04f 0301 	mov.w	r3, #1
   8341a:	f240 5515 	movw	r5, #1301	; 0x515
   8341e:	f2c0 0508 	movt	r5, #8
   83422:	47a8      	blx	r5
   83424:	4620      	mov	r0, r4
   83426:	f04f 0100 	mov.w	r1, #0
   8342a:	f240 42f5 	movw	r2, #1269	; 0x4f5
   8342e:	f2c0 0208 	movt	r2, #8
   83432:	4790      	blx	r2
   83434:	f44f 6048 	mov.w	r0, #3200	; 0xc80
   83438:	6120      	str	r0, [r4, #16]
   8343a:	4620      	mov	r0, r4
   8343c:	f04f 0100 	mov.w	r1, #0
   83440:	460a      	mov	r2, r1
   83442:	f240 5305 	movw	r3, #1285	; 0x505
   83446:	f2c0 0308 	movt	r3, #8
   8344a:	4798      	blx	r3
   8344c:	bd38      	pop	{r3, r4, r5, pc}
   8344e:	bf00      	nop

00083450 <pid_reg>:
/**
* Task1 with the function that give the smepahore every other second.
*/
/* This function enables and configures the Digital-to-Analog Converter */
void pid_reg(void *p)
{
   83450:	e92d 4ff0 	stmdb	sp!, {r4, r5, r6, r7, r8, r9, sl, fp, lr}
   83454:	b087      	sub	sp, #28
	double sample_time = (ticks_in_milliseconds/(double)1000);
   83456:	f240 0310 	movw	r3, #16
   8345a:	f2c2 0307 	movt	r3, #8199	; 0x2007
   8345e:	f9b3 0000 	ldrsh.w	r0, [r3]
   83462:	f643 71d9 	movw	r1, #16345	; 0x3fd9
   83466:	f2c0 0108 	movt	r1, #8
   8346a:	4788      	blx	r1
   8346c:	f04f 0200 	mov.w	r2, #0
   83470:	f44f 4380 	mov.w	r3, #16384	; 0x4000
   83474:	f2c4 038f 	movt	r3, #16527	; 0x408f
   83478:	f244 24f9 	movw	r4, #17145	; 0x42f9
   8347c:	f2c0 0408 	movt	r4, #8
   83480:	47a0      	blx	r4
   83482:	e9cd 0104 	strd	r0, r1, [sp, #16]
	for(;;)
	{
		startTime = xTaskGetTickCount();
		
		if(user_P == 0 || user_I == 0 || user_D == 0) {
			xSemaphoreGive(semafor_signal);
   83486:	f648 20b8 	movw	r0, #35512	; 0x8ab8
   8348a:	4683      	mov	fp, r0
   8348c:	f2c2 0b07 	movt	fp, #8199	; 0x2007
		
		adc_start(ADC);
		while ( (adc_get_status(ADC)) & ((0x1 << 24) == 0) ) {
			//Do nothing since we have no values from the channels
		}
		tank1_value = (adc_get_channel_value(ADC, ADC_CHANNEL_10)) * 33/27; // A8
   83490:	f644 3adb 	movw	sl, #19419	; 0x4bdb
   83494:	f6c2 7a68 	movt	sl, #12136	; 0x2f68
void pid_reg(void *p)
{
	double sample_time = (ticks_in_milliseconds/(double)1000);
	for(;;)
	{
		startTime = xTaskGetTickCount();
   83498:	f241 42a9 	movw	r2, #5289	; 0x14a9
   8349c:	f2c0 0208 	movt	r2, #8
   834a0:	4790      	blx	r2
   834a2:	f648 3550 	movw	r5, #35664	; 0x8b50
   834a6:	f2c2 0507 	movt	r5, #8199	; 0x2007
   834aa:	8028      	strh	r0, [r5, #0]
		
		if(user_P == 0 || user_I == 0 || user_D == 0) {
   834ac:	f640 06fa 	movw	r6, #2298	; 0x8fa
   834b0:	f2c2 0607 	movt	r6, #8199	; 0x2007
   834b4:	8837      	ldrh	r7, [r6, #0]
   834b6:	b15f      	cbz	r7, 834d0 <pid_reg+0x80>
   834b8:	f640 03f4 	movw	r3, #2292	; 0x8f4
   834bc:	f2c2 0307 	movt	r3, #8199	; 0x2007
   834c0:	8819      	ldrh	r1, [r3, #0]
   834c2:	b129      	cbz	r1, 834d0 <pid_reg+0x80>
   834c4:	f640 1402 	movw	r4, #2306	; 0x902
   834c8:	f2c2 0407 	movt	r4, #8199	; 0x2007
   834cc:	8820      	ldrh	r0, [r4, #0]
   834ce:	b988      	cbnz	r0, 834f4 <pid_reg+0xa4>
			xSemaphoreGive(semafor_signal);
   834d0:	f8db 0000 	ldr.w	r0, [fp]
   834d4:	f04f 0100 	mov.w	r1, #0
   834d8:	460a      	mov	r2, r1
   834da:	460b      	mov	r3, r1
   834dc:	f640 4579 	movw	r5, #3193	; 0xc79
   834e0:	f2c0 0508 	movt	r5, #8
   834e4:	47a8      	blx	r5
			vTaskDelay(50);
   834e6:	f04f 0032 	mov.w	r0, #50	; 0x32
   834ea:	f641 0259 	movw	r2, #6233	; 0x1859
   834ee:	f2c0 0208 	movt	r2, #8
   834f2:	4790      	blx	r2
		}
		
		adc_start(ADC);
   834f4:	f04f 0600 	mov.w	r6, #0
   834f8:	f2c4 060c 	movt	r6, #16396	; 0x400c
   834fc:	4630      	mov	r0, r6
   834fe:	f240 5735 	movw	r7, #1333	; 0x535
   83502:	f2c0 0708 	movt	r7, #8
   83506:	47b8      	blx	r7
		while ( (adc_get_status(ADC)) & ((0x1 << 24) == 0) ) {
   83508:	4630      	mov	r0, r6
   8350a:	f240 5351 	movw	r3, #1361	; 0x551
   8350e:	f2c0 0308 	movt	r3, #8
   83512:	4798      	blx	r3
			//Do nothing since we have no values from the channels
		}
		tank1_value = (adc_get_channel_value(ADC, ADC_CHANNEL_10)) * 33/27; // A8
   83514:	4630      	mov	r0, r6
   83516:	f04f 010a 	mov.w	r1, #10
   8351a:	f240 543d 	movw	r4, #1341	; 0x53d
   8351e:	f2c0 0408 	movt	r4, #8
   83522:	47a0      	blx	r4
   83524:	eb00 1040 	add.w	r0, r0, r0, lsl #5
   83528:	fbaa 1500 	umull	r1, r5, sl, r0
   8352c:	1b41      	subs	r1, r0, r5
   8352e:	eb05 0251 	add.w	r2, r5, r1, lsr #1
   83532:	ea4f 1712 	mov.w	r7, r2, lsr #4
   83536:	f640 03f8 	movw	r3, #2296	; 0x8f8
   8353a:	f2c2 0307 	movt	r3, #8199	; 0x2007
   8353e:	801f      	strh	r7, [r3, #0]
		tank2_value = (adc_get_channel_value(ADC, ADC_CHANNEL_11)) * 33/27; // A9
   83540:	4630      	mov	r0, r6
   83542:	f04f 010b 	mov.w	r1, #11
   83546:	47a0      	blx	r4
   83548:	eb00 1640 	add.w	r6, r0, r0, lsl #5
   8354c:	fbaa 2406 	umull	r2, r4, sl, r6
   83550:	1b30      	subs	r0, r6, r4
   83552:	eb04 0550 	add.w	r5, r4, r0, lsr #1
   83556:	ea4f 1115 	mov.w	r1, r5, lsr #4
   8355a:	f640 1204 	movw	r2, #2308	; 0x904
   8355e:	f2c2 0207 	movt	r2, #8199	; 0x2007
   83562:	8011      	strh	r1, [r2, #0]

		if(user_setpoint == 0) {
   83564:	f640 07f6 	movw	r7, #2294	; 0x8f6
   83568:	f2c2 0707 	movt	r7, #8199	; 0x2007
   8356c:	883e      	ldrh	r6, [r7, #0]
   8356e:	b92e      	cbnz	r6, 8357c <pid_reg+0x12c>
			error_value = 0;
   83570:	f640 05fc 	movw	r5, #2300	; 0x8fc
   83574:	f2c2 0507 	movt	r5, #8199	; 0x2007
   83578:	602e      	str	r6, [r5, #0]
   8357a:	e006      	b.n	8358a <pid_reg+0x13a>

/**
* Task1 with the function that give the smepahore every other second.
*/
/* This function enables and configures the Digital-to-Analog Converter */
void pid_reg(void *p)
   8357c:	b28b      	uxth	r3, r1
		tank2_value = (adc_get_channel_value(ADC, ADC_CHANNEL_11)) * 33/27; // A9

		if(user_setpoint == 0) {
			error_value = 0;
		} else {
			error_value = ((int32_t)user_setpoint) - ((int32_t)tank2_value);
   8357e:	1af4      	subs	r4, r6, r3
   83580:	f640 00fc 	movw	r0, #2300	; 0x8fc
   83584:	f2c2 0007 	movt	r0, #8199	; 0x2007
   83588:	6004      	str	r4, [r0, #0]
		}
		sum_error = (sum_error + error_value);
   8358a:	f640 01fc 	movw	r1, #2300	; 0x8fc
   8358e:	f2c2 0107 	movt	r1, #8199	; 0x2007
   83592:	680f      	ldr	r7, [r1, #0]
   83594:	f648 3654 	movw	r6, #35668	; 0x8b54
   83598:	f2c2 0607 	movt	r6, #8199	; 0x2007
   8359c:	6832      	ldr	r2, [r6, #0]
   8359e:	eb07 0802 	add.w	r8, r7, r2
   835a2:	f8c6 8000 	str.w	r8, [r6]
		
		/*PID*/
		Preg = (double) error_value;
   835a6:	f643 76d9 	movw	r6, #16345	; 0x3fd9
   835aa:	f2c0 0608 	movt	r6, #8
   835ae:	4638      	mov	r0, r7
   835b0:	47b0      	blx	r6
   835b2:	e9cd 0100 	strd	r0, r1, [sp]
   835b6:	f648 3348 	movw	r3, #35656	; 0x8b48
   835ba:	f2c2 0307 	movt	r3, #8199	; 0x2007
   835be:	e9c3 0100 	strd	r0, r1, [r3]
		Ireg = ((sample_time/(double)user_I) * sum_error);
   835c2:	f640 04f4 	movw	r4, #2292	; 0x8f4
   835c6:	f2c2 0407 	movt	r4, #8199	; 0x2007
   835ca:	8820      	ldrh	r0, [r4, #0]
   835cc:	f643 75b9 	movw	r5, #16313	; 0x3fb9
   835d0:	f2c0 0508 	movt	r5, #8
   835d4:	47a8      	blx	r5
   835d6:	4602      	mov	r2, r0
   835d8:	460b      	mov	r3, r1
   835da:	f244 29f9 	movw	r9, #17145	; 0x42f9
   835de:	f2c0 0908 	movt	r9, #8
   835e2:	e9dd 0104 	ldrd	r0, r1, [sp, #16]
   835e6:	47c8      	blx	r9
   835e8:	4604      	mov	r4, r0
   835ea:	460d      	mov	r5, r1
   835ec:	4640      	mov	r0, r8
   835ee:	47b0      	blx	r6
   835f0:	4602      	mov	r2, r0
   835f2:	460b      	mov	r3, r1
   835f4:	f244 08a5 	movw	r8, #16549	; 0x40a5
   835f8:	f2c0 0808 	movt	r8, #8
   835fc:	4620      	mov	r0, r4
   835fe:	4629      	mov	r1, r5
   83600:	47c0      	blx	r8
   83602:	e9cd 0102 	strd	r0, r1, [sp, #8]
   83606:	f648 3240 	movw	r2, #35648	; 0x8b40
   8360a:	f2c2 0207 	movt	r2, #8199	; 0x2007
   8360e:	e9c2 0100 	strd	r0, r1, [r2]
		Dreg =  (user_D * ((error_value - old_error_value)/(double)(sample_time)));
   83612:	f640 1002 	movw	r0, #2306	; 0x902
   83616:	f2c2 0007 	movt	r0, #8199	; 0x2007
   8361a:	8800      	ldrh	r0, [r0, #0]
   8361c:	47b0      	blx	r6
   8361e:	4604      	mov	r4, r0
   83620:	460d      	mov	r5, r1
   83622:	f648 3158 	movw	r1, #35672	; 0x8b58
   83626:	f2c2 0107 	movt	r1, #8199	; 0x2007
   8362a:	680b      	ldr	r3, [r1, #0]
   8362c:	1af8      	subs	r0, r7, r3
   8362e:	47b0      	blx	r6
   83630:	e9dd 2304 	ldrd	r2, r3, [sp, #16]
   83634:	47c8      	blx	r9
   83636:	4602      	mov	r2, r0
   83638:	460b      	mov	r3, r1
   8363a:	4620      	mov	r0, r4
   8363c:	4629      	mov	r1, r5
   8363e:	47c0      	blx	r8
   83640:	4604      	mov	r4, r0
   83642:	460d      	mov	r5, r1
   83644:	f648 3738 	movw	r7, #35640	; 0x8b38
   83648:	f2c2 0707 	movt	r7, #8199	; 0x2007
   8364c:	e9c7 4500 	strd	r4, r5, [r7]
		output_tmp = (int16_t) (user_P * (Preg + Ireg + Dreg));
   83650:	f640 02fa 	movw	r2, #2298	; 0x8fa
   83654:	f2c2 0207 	movt	r2, #8199	; 0x2007
   83658:	8810      	ldrh	r0, [r2, #0]
   8365a:	47b0      	blx	r6
   8365c:	4606      	mov	r6, r0
   8365e:	460f      	mov	r7, r1
   83660:	f643 5941 	movw	r9, #15681	; 0x3d41
   83664:	f2c0 0908 	movt	r9, #8
   83668:	e9dd 0100 	ldrd	r0, r1, [sp]
   8366c:	e9dd 2302 	ldrd	r2, r3, [sp, #8]
   83670:	47c8      	blx	r9
   83672:	4602      	mov	r2, r0
   83674:	460b      	mov	r3, r1
   83676:	4620      	mov	r0, r4
   83678:	4629      	mov	r1, r5
   8367a:	47c8      	blx	r9
   8367c:	4602      	mov	r2, r0
   8367e:	460b      	mov	r3, r1
   83680:	4630      	mov	r0, r6
   83682:	4639      	mov	r1, r7
   83684:	47c0      	blx	r8
   83686:	f244 44c9 	movw	r4, #17609	; 0x44c9
   8368a:	f2c0 0408 	movt	r4, #8
   8368e:	47a0      	blx	r4
		
		/* control mode */
		if(output_tmp > 4095) {
   83690:	b205      	sxth	r5, r0
   83692:	f5b5 5f80 	cmp.w	r5, #4096	; 0x1000
   83696:	db07      	blt.n	836a8 <pid_reg+0x258>
			output_tmp = 4095;
   83698:	f648 3052 	movw	r0, #35666	; 0x8b52
   8369c:	f2c2 0007 	movt	r0, #8199	; 0x2007
   836a0:	f640 72ff 	movw	r2, #4095	; 0xfff
   836a4:	8002      	strh	r2, [r0, #0]
   836a6:	e009      	b.n	836bc <pid_reg+0x26c>
		} else if(output_tmp < 0) {
   836a8:	b201      	sxth	r1, r0
   836aa:	2900      	cmp	r1, #0
		
		/*PID*/
		Preg = (double) error_value;
		Ireg = ((sample_time/(double)user_I) * sum_error);
		Dreg =  (user_D * ((error_value - old_error_value)/(double)(sample_time)));
		output_tmp = (int16_t) (user_P * (Preg + Ireg + Dreg));
   836ac:	f648 3352 	movw	r3, #35666	; 0x8b52
   836b0:	f2c2 0307 	movt	r3, #8199	; 0x2007
   836b4:	bfae      	itee	ge
   836b6:	8018      	strhge	r0, [r3, #0]
		
		/* control mode */
		if(output_tmp > 4095) {
			output_tmp = 4095;
		} else if(output_tmp < 0) {
			output_tmp = 0;
   836b8:	2200      	movlt	r2, #0
   836ba:	801a      	strhlt	r2, [r3, #0]
		}

		if(i < 5000) {
   836bc:	f648 3630 	movw	r6, #35632	; 0x8b30
   836c0:	f2c2 0607 	movt	r6, #8199	; 0x2007
   836c4:	6837      	ldr	r7, [r6, #0]
   836c6:	f241 3487 	movw	r4, #4999	; 0x1387
   836ca:	42a7      	cmp	r7, r4
   836cc:	dc11      	bgt.n	836f2 <pid_reg+0x2a2>
			output_signal = output_tmp;
   836ce:	f648 3352 	movw	r3, #35666	; 0x8b52
   836d2:	f2c2 0307 	movt	r3, #8199	; 0x2007
   836d6:	8818      	ldrh	r0, [r3, #0]
   836d8:	f640 1200 	movw	r2, #2304	; 0x900
   836dc:	f2c2 0207 	movt	r2, #8199	; 0x2007
   836e0:	8010      	strh	r0, [r2, #0]
			i++;
   836e2:	f107 0701 	add.w	r7, r7, #1
   836e6:	f648 3630 	movw	r6, #35632	; 0x8b30
   836ea:	f2c2 0607 	movt	r6, #8199	; 0x2007
   836ee:	6037      	str	r7, [r6, #0]
   836f0:	e006      	b.n	83700 <pid_reg+0x2b0>
		} else {
			output_signal = 0;
   836f2:	f640 1500 	movw	r5, #2304	; 0x900
   836f6:	f2c2 0507 	movt	r5, #8199	; 0x2007
   836fa:	f04f 0100 	mov.w	r1, #0
   836fe:	8029      	strh	r1, [r5, #0]
		}
		
		/*Temp failsafe mode*/
		if(tank1_value > 3500) {
   83700:	f640 07f8 	movw	r7, #2296	; 0x8f8
   83704:	f2c2 0707 	movt	r7, #8199	; 0x2007
   83708:	883c      	ldrh	r4, [r7, #0]
   8370a:	f640 55ac 	movw	r5, #3500	; 0xdac
   8370e:	42ac      	cmp	r4, r5
   83710:	d906      	bls.n	83720 <pid_reg+0x2d0>
			output_signal = 0;
   83712:	f640 1100 	movw	r1, #2304	; 0x900
   83716:	f2c2 0107 	movt	r1, #8199	; 0x2007
   8371a:	f04f 0300 	mov.w	r3, #0
   8371e:	800b      	strh	r3, [r1, #0]
		}
		dacc_write_conversion_data(DACC,output_signal);
   83720:	f44f 4000 	mov.w	r0, #32768	; 0x8000
   83724:	f2c4 000c 	movt	r0, #16396	; 0x400c
   83728:	f640 1200 	movw	r2, #2304	; 0x900
   8372c:	f2c2 0207 	movt	r2, #8199	; 0x2007
   83730:	8811      	ldrh	r1, [r2, #0]
   83732:	f240 16c9 	movw	r6, #457	; 0x1c9
   83736:	f2c0 0608 	movt	r6, #8
   8373a:	47b0      	blx	r6
		old_error_value = error_value;
   8373c:	f640 00fc 	movw	r0, #2300	; 0x8fc
   83740:	f2c2 0007 	movt	r0, #8199	; 0x2007
   83744:	6807      	ldr	r7, [r0, #0]
   83746:	f648 3458 	movw	r4, #35672	; 0x8b58
   8374a:	f2c2 0407 	movt	r4, #8199	; 0x2007
   8374e:	6027      	str	r7, [r4, #0]

		/* Makro to give a semaphore. The sempahpore must
		have been created by calling vSemaphoreCreateBinary()
		*/
		/* Every other second task1 signals to task2 */
		xSemaphoreGive(semafor_signal);
   83750:	f8db 0000 	ldr.w	r0, [fp]
   83754:	f04f 0100 	mov.w	r1, #0
   83758:	460a      	mov	r2, r1
   8375a:	460b      	mov	r3, r1
   8375c:	f640 4579 	movw	r5, #3193	; 0xc79
   83760:	f2c0 0508 	movt	r5, #8
   83764:	47a8      	blx	r5
		//vTaskDelay(50);
		vTaskDelayUntil(&startTime, ticks_in_milliseconds);
   83766:	4806      	ldr	r0, [pc, #24]	; (83780 <pid_reg+0x330>)
   83768:	f240 0110 	movw	r1, #16
   8376c:	f2c2 0107 	movt	r1, #8199	; 0x2007
   83770:	8809      	ldrh	r1, [r1, #0]
   83772:	f641 03b5 	movw	r3, #6325	; 0x18b5
   83776:	f2c0 0308 	movt	r3, #8
   8377a:	4798      	blx	r3
	}
   8377c:	e68c      	b.n	83498 <pid_reg+0x48>
   8377e:	bf00      	nop
   83780:	20078b50 	.word	0x20078b50

00083784 <handle_input>:
		vTaskDelayUntil(&HMI_startTime, 250);
	}
}

void handle_input(button btn_id)
{
   83784:	b538      	push	{r3, r4, r5, lr}
	/* is one of the buttons pressed? */
	
	if(btn_id == NO_BUTTON) {
   83786:	2800      	cmp	r0, #0
   83788:	f000 8234 	beq.w	83bf4 <handle_input+0x470>
	}
	else if (btn_id != NO_BUTTON) {
		switch (btn_id) {
   8378c:	f100 30ff 	add.w	r0, r0, #4294967295
   83790:	2804      	cmp	r0, #4
   83792:	f200 822f 	bhi.w	83bf4 <handle_input+0x470>
   83796:	e8df f010 	tbh	[pc, r0, lsl #1]
   8379a:	0097      	.short	0x0097
   8379c:	013300e6 	.word	0x013300e6
   837a0:	01aa0005 	.word	0x01aa0005
			case RIGHT:	/* Move the asterix to the right, to choose the regulation */
			if(ASTERIX_VALUE == -1) {
   837a4:	f240 0014 	movw	r0, #20
   837a8:	f2c2 0007 	movt	r0, #8199	; 0x2007
   837ac:	6801      	ldr	r1, [r0, #0]
   837ae:	f1b1 3fff 	cmp.w	r1, #4294967295
   837b2:	d118      	bne.n	837e6 <handle_input+0x62>
				lcd_put_cursor(0, 0);
   837b4:	f04f 0000 	mov.w	r0, #0
   837b8:	4601      	mov	r1, r0
   837ba:	f242 3301 	movw	r3, #8961	; 0x2301
   837be:	f2c0 0308 	movt	r3, #8
   837c2:	4798      	blx	r3
				lcd_write_str("*");
   837c4:	f647 60c4 	movw	r0, #32452	; 0x7ec4
   837c8:	f2c0 0008 	movt	r0, #8
   837cc:	f242 4191 	movw	r1, #9361	; 0x2491
   837d0:	f2c0 0108 	movt	r1, #8
   837d4:	4788      	blx	r1
				ASTERIX_VALUE = 0;
   837d6:	f240 0014 	movw	r0, #20
   837da:	f2c2 0007 	movt	r0, #8199	; 0x2007
   837de:	f04f 0200 	mov.w	r2, #0
   837e2:	6002      	str	r2, [r0, #0]
   837e4:	bd38      	pop	{r3, r4, r5, pc}
			}
			else if (ASTERIX_VALUE == 0) {
   837e6:	bb11      	cbnz	r1, 8382e <handle_input+0xaa>
				lcd_put_cursor(0, 0);
   837e8:	f04f 0000 	mov.w	r0, #0
   837ec:	4601      	mov	r1, r0
   837ee:	f242 3501 	movw	r5, #8961	; 0x2301
   837f2:	f2c0 0508 	movt	r5, #8
   837f6:	47a8      	blx	r5
				lcd_write_str(" ");
   837f8:	f647 60c8 	movw	r0, #32456	; 0x7ec8
   837fc:	f2c0 0008 	movt	r0, #8
   83800:	f242 4491 	movw	r4, #9361	; 0x2491
   83804:	f2c0 0408 	movt	r4, #8
   83808:	47a0      	blx	r4
				lcd_put_cursor(0, 4);
   8380a:	f04f 0000 	mov.w	r0, #0
   8380e:	f04f 0104 	mov.w	r1, #4
   83812:	47a8      	blx	r5
				lcd_write_str("*");
   83814:	f647 60c4 	movw	r0, #32452	; 0x7ec4
   83818:	f2c0 0008 	movt	r0, #8
   8381c:	47a0      	blx	r4
				ASTERIX_VALUE = 1;
   8381e:	f240 0314 	movw	r3, #20
   83822:	f2c2 0307 	movt	r3, #8199	; 0x2007
   83826:	f04f 0201 	mov.w	r2, #1
   8382a:	601a      	str	r2, [r3, #0]
   8382c:	bd38      	pop	{r3, r4, r5, pc}
			}
			else if (ASTERIX_VALUE == 1) {
   8382e:	2901      	cmp	r1, #1
   83830:	d123      	bne.n	8387a <handle_input+0xf6>
				lcd_put_cursor(0, 4);
   83832:	f04f 0000 	mov.w	r0, #0
   83836:	f04f 0104 	mov.w	r1, #4
   8383a:	f242 3501 	movw	r5, #8961	; 0x2301
   8383e:	f2c0 0508 	movt	r5, #8
   83842:	47a8      	blx	r5
				lcd_write_str(" ");
   83844:	f647 60c8 	movw	r0, #32456	; 0x7ec8
   83848:	f2c0 0008 	movt	r0, #8
   8384c:	f242 4491 	movw	r4, #9361	; 0x2491
   83850:	f2c0 0408 	movt	r4, #8
   83854:	47a0      	blx	r4
				lcd_put_cursor(0, 9);
   83856:	f04f 0000 	mov.w	r0, #0
   8385a:	f04f 0109 	mov.w	r1, #9
   8385e:	47a8      	blx	r5
				lcd_write_str("*");
   83860:	f647 60c4 	movw	r0, #32452	; 0x7ec4
   83864:	f2c0 0008 	movt	r0, #8
   83868:	47a0      	blx	r4
				ASTERIX_VALUE = 2;
   8386a:	f240 0014 	movw	r0, #20
   8386e:	f2c2 0007 	movt	r0, #8199	; 0x2007
   83872:	f04f 0102 	mov.w	r1, #2
   83876:	6001      	str	r1, [r0, #0]
   83878:	bd38      	pop	{r3, r4, r5, pc}
			}
			else if (ASTERIX_VALUE == 2) {
   8387a:	2902      	cmp	r1, #2
   8387c:	f040 81ba 	bne.w	83bf4 <handle_input+0x470>
				lcd_put_cursor(0, 9);
   83880:	f04f 0000 	mov.w	r0, #0
   83884:	f04f 0109 	mov.w	r1, #9
   83888:	f242 3501 	movw	r5, #8961	; 0x2301
   8388c:	f2c0 0508 	movt	r5, #8
   83890:	47a8      	blx	r5
				lcd_write_str(" ");
   83892:	f647 60c8 	movw	r0, #32456	; 0x7ec8
   83896:	f2c0 0008 	movt	r0, #8
   8389a:	f242 4491 	movw	r4, #9361	; 0x2491
   8389e:	f2c0 0408 	movt	r4, #8
   838a2:	47a0      	blx	r4
				lcd_put_cursor(0, 13);
   838a4:	f04f 0000 	mov.w	r0, #0
   838a8:	f04f 010d 	mov.w	r1, #13
   838ac:	47a8      	blx	r5
				lcd_write_str("*");
   838ae:	f647 60c4 	movw	r0, #32452	; 0x7ec4
   838b2:	f2c0 0008 	movt	r0, #8
   838b6:	47a0      	blx	r4
				ASTERIX_VALUE = 3;
   838b8:	f240 0314 	movw	r3, #20
   838bc:	f2c2 0307 	movt	r3, #8199	; 0x2007
   838c0:	f04f 0203 	mov.w	r2, #3
   838c4:	601a      	str	r2, [r3, #0]
   838c6:	bd38      	pop	{r3, r4, r5, pc}
			}
			//printf("----------------------RIGHT----------------------\n");
			break;
			case UP:	/* Increase the value for the specified regulation */
			if (ASTERIX_VALUE == 0 && reglering.setpoint < SETPOINT_MAX_VALUE) {
   838c8:	f240 0214 	movw	r2, #20
   838cc:	f2c2 0207 	movt	r2, #8199	; 0x2007
   838d0:	6813      	ldr	r3, [r2, #0]
   838d2:	b97b      	cbnz	r3, 838f4 <handle_input+0x170>
   838d4:	f648 30a0 	movw	r0, #35744	; 0x8ba0
   838d8:	f2c2 0007 	movt	r0, #8199	; 0x2007
   838dc:	8801      	ldrh	r1, [r0, #0]
   838de:	f5b1 5f80 	cmp.w	r1, #4096	; 0x1000
   838e2:	d22d      	bcs.n	83940 <handle_input+0x1bc>
				reglering.setpoint += 128;
   838e4:	f101 0180 	add.w	r1, r1, #128	; 0x80
   838e8:	f648 33a0 	movw	r3, #35744	; 0x8ba0
   838ec:	f2c2 0307 	movt	r3, #8199	; 0x2007
   838f0:	8019      	strh	r1, [r3, #0]
   838f2:	bd38      	pop	{r3, r4, r5, pc}
			}
			else if (ASTERIX_VALUE == 1 && reglering.P < P_MAX_VALUE) {
   838f4:	2b01      	cmp	r3, #1
   838f6:	d10f      	bne.n	83918 <handle_input+0x194>
   838f8:	f648 30a0 	movw	r0, #35744	; 0x8ba0
   838fc:	f2c2 0007 	movt	r0, #8199	; 0x2007
   83900:	8841      	ldrh	r1, [r0, #2]
   83902:	2908      	cmp	r1, #8
   83904:	f200 8176 	bhi.w	83bf4 <handle_input+0x470>
				reglering.P += 1;
   83908:	f101 0101 	add.w	r1, r1, #1
   8390c:	f648 32a0 	movw	r2, #35744	; 0x8ba0
   83910:	f2c2 0207 	movt	r2, #8199	; 0x2007
   83914:	8051      	strh	r1, [r2, #2]
   83916:	bd38      	pop	{r3, r4, r5, pc}
			}
			else if (ASTERIX_VALUE == 2 && reglering.I < I_MAX_VALUE) {
   83918:	2b02      	cmp	r3, #2
   8391a:	d111      	bne.n	83940 <handle_input+0x1bc>
   8391c:	f648 30a0 	movw	r0, #35744	; 0x8ba0
   83920:	f2c2 0007 	movt	r0, #8199	; 0x2007
   83924:	8881      	ldrh	r1, [r0, #4]
   83926:	f240 32e6 	movw	r2, #998	; 0x3e6
   8392a:	4291      	cmp	r1, r2
   8392c:	f200 8162 	bhi.w	83bf4 <handle_input+0x470>
				reglering.I += 50;
   83930:	f101 0132 	add.w	r1, r1, #50	; 0x32
   83934:	f648 33a0 	movw	r3, #35744	; 0x8ba0
   83938:	f2c2 0307 	movt	r3, #8199	; 0x2007
   8393c:	8099      	strh	r1, [r3, #4]
   8393e:	bd38      	pop	{r3, r4, r5, pc}
			}
			else if (ASTERIX_VALUE == 3 && reglering.D < D_MAX_VALUE) {
   83940:	2b03      	cmp	r3, #3
   83942:	f040 8157 	bne.w	83bf4 <handle_input+0x470>
   83946:	f648 33a0 	movw	r3, #35744	; 0x8ba0
   8394a:	f2c2 0307 	movt	r3, #8199	; 0x2007
   8394e:	88d8      	ldrh	r0, [r3, #6]
   83950:	2809      	cmp	r0, #9
   83952:	f200 814f 	bhi.w	83bf4 <handle_input+0x470>
				reglering.D += 5;
   83956:	f100 0005 	add.w	r0, r0, #5
   8395a:	f648 32a0 	movw	r2, #35744	; 0x8ba0
   8395e:	f2c2 0207 	movt	r2, #8199	; 0x2007
   83962:	80d0      	strh	r0, [r2, #6]
   83964:	bd38      	pop	{r3, r4, r5, pc}
			}
			//printf("----------------------UP----------------------\n");
			break;
			case DOWN:	/* Decrease the value for the specified regulation */
			if (ASTERIX_VALUE == 0 && reglering.setpoint > SETPOINT_MIN_VALUE) {
   83966:	f240 0314 	movw	r3, #20
   8396a:	f2c2 0307 	movt	r3, #8199	; 0x2007
   8396e:	6819      	ldr	r1, [r3, #0]
   83970:	b979      	cbnz	r1, 83992 <handle_input+0x20e>
   83972:	f648 30a0 	movw	r0, #35744	; 0x8ba0
   83976:	f2c2 0007 	movt	r0, #8199	; 0x2007
   8397a:	8802      	ldrh	r2, [r0, #0]
   8397c:	f5b2 6f80 	cmp.w	r2, #1024	; 0x400
   83980:	d92b      	bls.n	839da <handle_input+0x256>
				reglering.setpoint -= 128;
   83982:	f1a2 0280 	sub.w	r2, r2, #128	; 0x80
   83986:	f648 31a0 	movw	r1, #35744	; 0x8ba0
   8398a:	f2c2 0107 	movt	r1, #8199	; 0x2007
   8398e:	800a      	strh	r2, [r1, #0]
   83990:	bd38      	pop	{r3, r4, r5, pc}
			}
			else if (ASTERIX_VALUE == 1 && reglering.P > P_MIN_VALUE) {
   83992:	2901      	cmp	r1, #1
   83994:	d10f      	bne.n	839b6 <handle_input+0x232>
   83996:	f648 31a0 	movw	r1, #35744	; 0x8ba0
   8399a:	f2c2 0107 	movt	r1, #8199	; 0x2007
   8399e:	8848      	ldrh	r0, [r1, #2]
   839a0:	2801      	cmp	r0, #1
   839a2:	f240 8127 	bls.w	83bf4 <handle_input+0x470>
				reglering.P -= 1;
   839a6:	f100 33ff 	add.w	r3, r0, #4294967295
   839aa:	f648 32a0 	movw	r2, #35744	; 0x8ba0
   839ae:	f2c2 0207 	movt	r2, #8199	; 0x2007
   839b2:	8053      	strh	r3, [r2, #2]
   839b4:	bd38      	pop	{r3, r4, r5, pc}
			}
			else if (ASTERIX_VALUE == 2 && reglering.I > I_MIN_VALUE) {
   839b6:	2902      	cmp	r1, #2
   839b8:	d10f      	bne.n	839da <handle_input+0x256>
   839ba:	f648 30a0 	movw	r0, #35744	; 0x8ba0
   839be:	f2c2 0007 	movt	r0, #8199	; 0x2007
   839c2:	8883      	ldrh	r3, [r0, #4]
   839c4:	2b64      	cmp	r3, #100	; 0x64
   839c6:	f240 8115 	bls.w	83bf4 <handle_input+0x470>
				reglering.I -= 50;
   839ca:	f1a3 0332 	sub.w	r3, r3, #50	; 0x32
   839ce:	f648 32a0 	movw	r2, #35744	; 0x8ba0
   839d2:	f2c2 0207 	movt	r2, #8199	; 0x2007
   839d6:	8093      	strh	r3, [r2, #4]
   839d8:	bd38      	pop	{r3, r4, r5, pc}
			}
			else if (ASTERIX_VALUE == 3 && reglering.D > D_MIN_VALUE) {
   839da:	2903      	cmp	r1, #3
   839dc:	f040 810a 	bne.w	83bf4 <handle_input+0x470>
   839e0:	f648 31a0 	movw	r1, #35744	; 0x8ba0
   839e4:	f2c2 0107 	movt	r1, #8199	; 0x2007
   839e8:	88cb      	ldrh	r3, [r1, #6]
   839ea:	2b01      	cmp	r3, #1
   839ec:	f240 8102 	bls.w	83bf4 <handle_input+0x470>
				reglering.D -= 5;
   839f0:	f1a3 0305 	sub.w	r3, r3, #5
   839f4:	f648 30a0 	movw	r0, #35744	; 0x8ba0
   839f8:	f2c2 0007 	movt	r0, #8199	; 0x2007
   839fc:	80c3      	strh	r3, [r0, #6]
   839fe:	bd38      	pop	{r3, r4, r5, pc}
			}
			//printf("----------------DOWN----------------------\n");
			break;
			case LEFT:	/* Move the asterix to the left, to choose the regulation */
			if (ASTERIX_VALUE == 3) {
   83a00:	f240 0314 	movw	r3, #20
   83a04:	f2c2 0307 	movt	r3, #8199	; 0x2007
   83a08:	6819      	ldr	r1, [r3, #0]
   83a0a:	2903      	cmp	r1, #3
   83a0c:	d123      	bne.n	83a56 <handle_input+0x2d2>
				lcd_put_cursor(0, 13);
   83a0e:	f04f 0000 	mov.w	r0, #0
   83a12:	f04f 010d 	mov.w	r1, #13
   83a16:	f242 3501 	movw	r5, #8961	; 0x2301
   83a1a:	f2c0 0508 	movt	r5, #8
   83a1e:	47a8      	blx	r5
				lcd_write_str(" ");
   83a20:	f647 60c8 	movw	r0, #32456	; 0x7ec8
   83a24:	f2c0 0008 	movt	r0, #8
   83a28:	f242 4491 	movw	r4, #9361	; 0x2491
   83a2c:	f2c0 0408 	movt	r4, #8
   83a30:	47a0      	blx	r4
				lcd_put_cursor(0, 9);
   83a32:	f04f 0000 	mov.w	r0, #0
   83a36:	f04f 0109 	mov.w	r1, #9
   83a3a:	47a8      	blx	r5
				lcd_write_str("*");
   83a3c:	f647 60c4 	movw	r0, #32452	; 0x7ec4
   83a40:	f2c0 0008 	movt	r0, #8
   83a44:	47a0      	blx	r4
				ASTERIX_VALUE = 2;
   83a46:	f240 0014 	movw	r0, #20
   83a4a:	f2c2 0007 	movt	r0, #8199	; 0x2007
   83a4e:	f04f 0202 	mov.w	r2, #2
   83a52:	6002      	str	r2, [r0, #0]
   83a54:	bd38      	pop	{r3, r4, r5, pc}
			}
			else if (ASTERIX_VALUE == 2) {
   83a56:	2902      	cmp	r1, #2
   83a58:	d123      	bne.n	83aa2 <handle_input+0x31e>
				lcd_put_cursor(0, 9);
   83a5a:	f04f 0000 	mov.w	r0, #0
   83a5e:	f04f 0109 	mov.w	r1, #9
   83a62:	f242 3501 	movw	r5, #8961	; 0x2301
   83a66:	f2c0 0508 	movt	r5, #8
   83a6a:	47a8      	blx	r5
				lcd_write_str(" ");
   83a6c:	f647 60c8 	movw	r0, #32456	; 0x7ec8
   83a70:	f2c0 0008 	movt	r0, #8
   83a74:	f242 4491 	movw	r4, #9361	; 0x2491
   83a78:	f2c0 0408 	movt	r4, #8
   83a7c:	47a0      	blx	r4
				lcd_put_cursor(0, 4);
   83a7e:	f04f 0000 	mov.w	r0, #0
   83a82:	f04f 0104 	mov.w	r1, #4
   83a86:	47a8      	blx	r5
				lcd_write_str("*");
   83a88:	f647 60c4 	movw	r0, #32452	; 0x7ec4
   83a8c:	f2c0 0008 	movt	r0, #8
   83a90:	47a0      	blx	r4
				ASTERIX_VALUE = 1;
   83a92:	f240 0314 	movw	r3, #20
   83a96:	f2c2 0307 	movt	r3, #8199	; 0x2007
   83a9a:	f04f 0101 	mov.w	r1, #1
   83a9e:	6019      	str	r1, [r3, #0]
   83aa0:	bd38      	pop	{r3, r4, r5, pc}
			}
			else if (ASTERIX_VALUE == 1) {
   83aa2:	2901      	cmp	r1, #1
   83aa4:	f040 80a6 	bne.w	83bf4 <handle_input+0x470>
				lcd_put_cursor(0, 4);
   83aa8:	f04f 0000 	mov.w	r0, #0
   83aac:	f04f 0104 	mov.w	r1, #4
   83ab0:	f242 3501 	movw	r5, #8961	; 0x2301
   83ab4:	f2c0 0508 	movt	r5, #8
   83ab8:	47a8      	blx	r5
				lcd_write_str(" ");
   83aba:	f647 60c8 	movw	r0, #32456	; 0x7ec8
   83abe:	f2c0 0008 	movt	r0, #8
   83ac2:	f242 4491 	movw	r4, #9361	; 0x2491
   83ac6:	f2c0 0408 	movt	r4, #8
   83aca:	47a0      	blx	r4
				lcd_put_cursor(0, 0);
   83acc:	f04f 0000 	mov.w	r0, #0
   83ad0:	4601      	mov	r1, r0
   83ad2:	47a8      	blx	r5
				lcd_write_str("*");
   83ad4:	f647 60c4 	movw	r0, #32452	; 0x7ec4
   83ad8:	f2c0 0008 	movt	r0, #8
   83adc:	47a0      	blx	r4
				ASTERIX_VALUE = 0;
   83ade:	f240 0014 	movw	r0, #20
   83ae2:	f2c2 0007 	movt	r0, #8199	; 0x2007
   83ae6:	f04f 0200 	mov.w	r2, #0
   83aea:	6002      	str	r2, [r0, #0]
   83aec:	bd38      	pop	{r3, r4, r5, pc}
			}
			//printf("----------------------LEFT----------------------\n");
			break;
			case SELECT: /* Confirm the new values */
			if(xSemaphoreTake(semafor_signal, portMAX_DELAY)) {
   83aee:	f648 21b8 	movw	r1, #35512	; 0x8ab8
   83af2:	f2c2 0107 	movt	r1, #8199	; 0x2007
   83af6:	6808      	ldr	r0, [r1, #0]
   83af8:	f04f 0100 	mov.w	r1, #0
   83afc:	f64f 72ff 	movw	r2, #65535	; 0xffff
   83b00:	460b      	mov	r3, r1
   83b02:	f640 64a9 	movw	r4, #3753	; 0xea9
   83b06:	f2c0 0408 	movt	r4, #8
   83b0a:	47a0      	blx	r4
   83b0c:	2800      	cmp	r0, #0
   83b0e:	d071      	beq.n	83bf4 <handle_input+0x470>
				 user_setpoint = reglering.setpoint;
   83b10:	f648 33a0 	movw	r3, #35744	; 0x8ba0
   83b14:	f2c2 0307 	movt	r3, #8199	; 0x2007
   83b18:	8818      	ldrh	r0, [r3, #0]
   83b1a:	f640 02f6 	movw	r2, #2294	; 0x8f6
   83b1e:	f2c2 0207 	movt	r2, #8199	; 0x2007
   83b22:	8010      	strh	r0, [r2, #0]
				 user_P = reglering.P;
   83b24:	8859      	ldrh	r1, [r3, #2]
   83b26:	f640 00fa 	movw	r0, #2298	; 0x8fa
   83b2a:	f2c2 0007 	movt	r0, #8199	; 0x2007
   83b2e:	8001      	strh	r1, [r0, #0]
				 user_I = reglering.I;
   83b30:	8899      	ldrh	r1, [r3, #4]
   83b32:	f640 02f4 	movw	r2, #2292	; 0x8f4
   83b36:	f2c2 0207 	movt	r2, #8199	; 0x2007
   83b3a:	8011      	strh	r1, [r2, #0]
				 user_D = reglering.D;
   83b3c:	88d8      	ldrh	r0, [r3, #6]
   83b3e:	f640 1302 	movw	r3, #2306	; 0x902
   83b42:	f2c2 0307 	movt	r3, #8199	; 0x2007
   83b46:	8018      	strh	r0, [r3, #0]
				 if(ASTERIX_VALUE == 0) {
   83b48:	f240 0114 	movw	r1, #20
   83b4c:	f2c2 0107 	movt	r1, #8199	; 0x2007
   83b50:	680a      	ldr	r2, [r1, #0]
   83b52:	b98a      	cbnz	r2, 83b78 <handle_input+0x3f4>
					 lcd_put_cursor(0, 0);
   83b54:	f04f 0000 	mov.w	r0, #0
   83b58:	4601      	mov	r1, r0
   83b5a:	f242 3301 	movw	r3, #8961	; 0x2301
   83b5e:	f2c0 0308 	movt	r3, #8
   83b62:	4798      	blx	r3
					 lcd_write_str("+");
   83b64:	f647 60cc 	movw	r0, #32460	; 0x7ecc
   83b68:	f2c0 0008 	movt	r0, #8
   83b6c:	f242 4291 	movw	r2, #9361	; 0x2491
   83b70:	f2c0 0208 	movt	r2, #8
   83b74:	4790      	blx	r2
   83b76:	bd38      	pop	{r3, r4, r5, pc}
					 } else if(ASTERIX_VALUE == 1) {
   83b78:	2a01      	cmp	r2, #1
   83b7a:	d112      	bne.n	83ba2 <handle_input+0x41e>
					 lcd_put_cursor(0, 4);
   83b7c:	f04f 0000 	mov.w	r0, #0
   83b80:	f04f 0104 	mov.w	r1, #4
   83b84:	f242 3201 	movw	r2, #8961	; 0x2301
   83b88:	f2c0 0208 	movt	r2, #8
   83b8c:	4790      	blx	r2
					 lcd_write_str("+");
   83b8e:	f647 60cc 	movw	r0, #32460	; 0x7ecc
   83b92:	f2c0 0008 	movt	r0, #8
   83b96:	f242 4191 	movw	r1, #9361	; 0x2491
   83b9a:	f2c0 0108 	movt	r1, #8
   83b9e:	4788      	blx	r1
   83ba0:	bd38      	pop	{r3, r4, r5, pc}
					 } else if(ASTERIX_VALUE == 2) {
   83ba2:	2a02      	cmp	r2, #2
   83ba4:	d112      	bne.n	83bcc <handle_input+0x448>
					 lcd_put_cursor(0, 9);
   83ba6:	f04f 0000 	mov.w	r0, #0
   83baa:	f04f 0109 	mov.w	r1, #9
   83bae:	f242 3201 	movw	r2, #8961	; 0x2301
   83bb2:	f2c0 0208 	movt	r2, #8
   83bb6:	4790      	blx	r2
					 lcd_write_str("+");
   83bb8:	f647 60cc 	movw	r0, #32460	; 0x7ecc
   83bbc:	f2c0 0008 	movt	r0, #8
   83bc0:	f242 4391 	movw	r3, #9361	; 0x2491
   83bc4:	f2c0 0308 	movt	r3, #8
   83bc8:	4798      	blx	r3
   83bca:	bd38      	pop	{r3, r4, r5, pc}
					 } else if(ASTERIX_VALUE == 3) {
   83bcc:	2a03      	cmp	r2, #3
   83bce:	d111      	bne.n	83bf4 <handle_input+0x470>
					 lcd_put_cursor(0, 13);
   83bd0:	f04f 0000 	mov.w	r0, #0
   83bd4:	f04f 010d 	mov.w	r1, #13
   83bd8:	f242 3301 	movw	r3, #8961	; 0x2301
   83bdc:	f2c0 0308 	movt	r3, #8
   83be0:	4798      	blx	r3
					 lcd_write_str("+");
   83be2:	f647 60cc 	movw	r0, #32460	; 0x7ecc
   83be6:	f2c0 0008 	movt	r0, #8
   83bea:	f242 4191 	movw	r1, #9361	; 0x2491
   83bee:	f2c0 0108 	movt	r1, #8
   83bf2:	4788      	blx	r1
   83bf4:	bd38      	pop	{r3, r4, r5, pc}
   83bf6:	bf00      	nop

00083bf8 <lcd_delay>:
* lcd_delay(90) ~ 50.2 s
* lcd_delay(174) ~ 99.5 s
* lcd_delay(3000) ~ 1.7 ms
*/
void lcd_delay(uint32_t x)
{
   83bf8:	b082      	sub	sp, #8
	volatile uint32_t i;
	volatile uint32_t j;
	for (i = 0; i < x; i++) {
   83bfa:	f04f 0300 	mov.w	r3, #0
   83bfe:	9301      	str	r3, [sp, #4]
   83c00:	9901      	ldr	r1, [sp, #4]
   83c02:	4288      	cmp	r0, r1
   83c04:	d913      	bls.n	83c2e <lcd_delay+0x36>
		for (j = 0; j < 2; j++);
   83c06:	f04f 0200 	mov.w	r2, #0
   83c0a:	9200      	str	r2, [sp, #0]
   83c0c:	9b00      	ldr	r3, [sp, #0]
   83c0e:	2b01      	cmp	r3, #1
   83c10:	d806      	bhi.n	83c20 <lcd_delay+0x28>
   83c12:	9900      	ldr	r1, [sp, #0]
   83c14:	f101 0101 	add.w	r1, r1, #1
   83c18:	9100      	str	r1, [sp, #0]
   83c1a:	9b00      	ldr	r3, [sp, #0]
   83c1c:	2b01      	cmp	r3, #1
   83c1e:	d9f8      	bls.n	83c12 <lcd_delay+0x1a>
*/
void lcd_delay(uint32_t x)
{
	volatile uint32_t i;
	volatile uint32_t j;
	for (i = 0; i < x; i++) {
   83c20:	9901      	ldr	r1, [sp, #4]
   83c22:	f101 0101 	add.w	r1, r1, #1
   83c26:	9101      	str	r1, [sp, #4]
   83c28:	9b01      	ldr	r3, [sp, #4]
   83c2a:	4283      	cmp	r3, r0
   83c2c:	d3ed      	bcc.n	83c0a <lcd_delay+0x12>
		for (j = 0; j < 2; j++);
	}
}
   83c2e:	b002      	add	sp, #8
   83c30:	4770      	bx	lr
   83c32:	bf00      	nop

00083c34 <task2_LCD>:

void task2_LCD(void)
{
   83c34:	b570      	push	{r4, r5, r6, lr}
 */
static button read_buttons(void)
{
	button btn_id = NO_BUTTON;
	/* read latest A/D value */
	uint32_t adc_value = adc_get_channel_value(ADC, ADC_CHANNEL_7);
   83c36:	f04f 0000 	mov.w	r0, #0
   83c3a:	f2c4 000c 	movt	r0, #16396	; 0x400c
   83c3e:	f04f 0107 	mov.w	r1, #7
   83c42:	f240 533d 	movw	r3, #1341	; 0x53d
   83c46:	f2c0 0308 	movt	r3, #8
   83c4a:	4798      	blx	r3
	//printf("%u\n", adc_value);
	if (adc_value < 400) { /* RIGHT? */
   83c4c:	f5b0 7fc8 	cmp.w	r0, #400	; 0x190
   83c50:	d310      	bcc.n	83c74 <task2_LCD+0x40>
		btn_id = RIGHT;
	} else if (adc_value < 1000) { /* UP? */
   83c52:	f5b0 7f7a 	cmp.w	r0, #1000	; 0x3e8
   83c56:	d310      	bcc.n	83c7a <task2_LCD+0x46>
		btn_id = UP;
	} else if (adc_value < 1500) { /* DOWN? */
   83c58:	f240 51db 	movw	r1, #1499	; 0x5db
   83c5c:	4288      	cmp	r0, r1
   83c5e:	d90f      	bls.n	83c80 <task2_LCD+0x4c>
		btn_id = DOWN;
	} else if (adc_value < 2000) { /* LEFT? */
   83c60:	f5b0 6ffa 	cmp.w	r0, #2000	; 0x7d0
   83c64:	d30f      	bcc.n	83c86 <task2_LCD+0x52>
/*
 * Reading A/D conversion value - determining which button was pressed.
 */
static button read_buttons(void)
{
	button btn_id = NO_BUTTON;
   83c66:	f640 14c3 	movw	r4, #2499	; 0x9c3
   83c6a:	42a0      	cmp	r0, r4
   83c6c:	bf94      	ite	ls
   83c6e:	2505      	movls	r5, #5
   83c70:	2500      	movhi	r5, #0
   83c72:	e00a      	b.n	83c8a <task2_LCD+0x56>
	/* read latest A/D value */
	uint32_t adc_value = adc_get_channel_value(ADC, ADC_CHANNEL_7);
	//printf("%u\n", adc_value);
	if (adc_value < 400) { /* RIGHT? */
		btn_id = RIGHT;
   83c74:	f04f 0504 	mov.w	r5, #4
   83c78:	e007      	b.n	83c8a <task2_LCD+0x56>
	} else if (adc_value < 1000) { /* UP? */
		btn_id = UP;
   83c7a:	f04f 0501 	mov.w	r5, #1
   83c7e:	e004      	b.n	83c8a <task2_LCD+0x56>
	} else if (adc_value < 1500) { /* DOWN? */
		btn_id = DOWN;
   83c80:	f04f 0502 	mov.w	r5, #2
   83c84:	e001      	b.n	83c8a <task2_LCD+0x56>
	} else if (adc_value < 2000) { /* LEFT? */
		btn_id = LEFT;
   83c86:	f04f 0503 	mov.w	r5, #3
{
	uint32_t btn_id;
	/* read buttons on LCD shield */
	btn_id = read_buttons();
	//delay(150000); /* use this delay function temporary */
	lcd_delay(150000);
   83c8a:	f644 10f0 	movw	r0, #18928	; 0x49f0
   83c8e:	f2c0 0002 	movt	r0, #2
   83c92:	f643 32f9 	movw	r2, #15353	; 0x3bf9
   83c96:	f2c0 0208 	movt	r2, #8
   83c9a:	4790      	blx	r2
	handle_input(btn_id);
   83c9c:	4628      	mov	r0, r5
   83c9e:	f243 7685 	movw	r6, #14213	; 0x3785
   83ca2:	f2c0 0608 	movt	r6, #8
   83ca6:	47b0      	blx	r6
{
	/**********************/
	/*     Borvarde      */
	/**********************/
	
	lcd_put_cursor(1, 0);
   83ca8:	f04f 0001 	mov.w	r0, #1
   83cac:	f04f 0100 	mov.w	r1, #0
   83cb0:	f242 3601 	movw	r6, #8961	; 0x2301
   83cb4:	f2c0 0608 	movt	r6, #8
   83cb8:	47b0      	blx	r6
	lcd_write_int(reglering.setpoint);
   83cba:	f648 35a0 	movw	r5, #35744	; 0x8ba0
   83cbe:	f2c2 0507 	movt	r5, #8199	; 0x2007
   83cc2:	8828      	ldrh	r0, [r5, #0]
   83cc4:	f242 44b9 	movw	r4, #9401	; 0x24b9
   83cc8:	f2c0 0408 	movt	r4, #8
   83ccc:	47a0      	blx	r4
	
	lcd_put_cursor(1, 5);
   83cce:	f04f 0001 	mov.w	r0, #1
   83cd2:	f04f 0105 	mov.w	r1, #5
   83cd6:	47b0      	blx	r6
	lcd_write_int(reglering.P);
   83cd8:	8868      	ldrh	r0, [r5, #2]
   83cda:	47a0      	blx	r4
	
	lcd_put_cursor(1,9);
   83cdc:	f04f 0001 	mov.w	r0, #1
   83ce0:	f04f 0109 	mov.w	r1, #9
   83ce4:	47b0      	blx	r6
	lcd_write_int(reglering.I);
   83ce6:	88a8      	ldrh	r0, [r5, #4]
   83ce8:	47a0      	blx	r4
	
	lcd_put_cursor(1, 14);
   83cea:	f04f 0001 	mov.w	r0, #1
   83cee:	f04f 010e 	mov.w	r1, #14
   83cf2:	47b0      	blx	r6
	lcd_write_int(reglering.D);
   83cf4:	88e8      	ldrh	r0, [r5, #6]
   83cf6:	47a0      	blx	r4
   83cf8:	bd70      	pop	{r4, r5, r6, pc}
   83cfa:	bf00      	nop

00083cfc <disp_buttons>:

/**
* Task2 "takes" the semaphore and finishes the execution
*/
void disp_buttons(void *p)
{
   83cfc:	b5f8      	push	{r3, r4, r5, r6, r7, lr}
	HMI_startTime = xTaskGetTickCount();
   83cfe:	f241 43a9 	movw	r3, #5289	; 0x14a9
   83d02:	f2c0 0308 	movt	r3, #8
   83d06:	4798      	blx	r3
   83d08:	f648 315c 	movw	r1, #35676	; 0x8b5c
   83d0c:	f2c2 0107 	movt	r1, #8199	; 0x2007
   83d10:	8008      	strh	r0, [r1, #0]
		vSemaphoreCreateBinary().
		xSempahoreTake reurns pdTRUE if the semaphore was
		recived,
		pdFALSE if xBlockTime timed out before the semaphore
		became availible. */
		task2_LCD();
   83d12:	f643 4735 	movw	r7, #15413	; 0x3c35
   83d16:	f2c0 0708 	movt	r7, #8
		vTaskDelayUntil(&HMI_startTime, 250);
   83d1a:	460e      	mov	r6, r1
   83d1c:	f04f 05fa 	mov.w	r5, #250	; 0xfa
   83d20:	f641 04b5 	movw	r4, #6325	; 0x18b5
   83d24:	f2c0 0408 	movt	r4, #8
		vSemaphoreCreateBinary().
		xSempahoreTake reurns pdTRUE if the semaphore was
		recived,
		pdFALSE if xBlockTime timed out before the semaphore
		became availible. */
		task2_LCD();
   83d28:	47b8      	blx	r7
		vTaskDelayUntil(&HMI_startTime, 250);
   83d2a:	4630      	mov	r0, r6
   83d2c:	4629      	mov	r1, r5
   83d2e:	47a0      	blx	r4
   83d30:	e7fa      	b.n	83d28 <disp_buttons+0x2c>
   83d32:	bf00      	nop

00083d34 <__aeabi_drsub>:
   83d34:	f081 4100 	eor.w	r1, r1, #2147483648	; 0x80000000
   83d38:	e002      	b.n	83d40 <__adddf3>
   83d3a:	bf00      	nop

00083d3c <__aeabi_dsub>:
   83d3c:	f083 4300 	eor.w	r3, r3, #2147483648	; 0x80000000

00083d40 <__adddf3>:
   83d40:	b530      	push	{r4, r5, lr}
   83d42:	ea4f 0441 	mov.w	r4, r1, lsl #1
   83d46:	ea4f 0543 	mov.w	r5, r3, lsl #1
   83d4a:	ea94 0f05 	teq	r4, r5
   83d4e:	bf08      	it	eq
   83d50:	ea90 0f02 	teqeq	r0, r2
   83d54:	bf1f      	itttt	ne
   83d56:	ea54 0c00 	orrsne.w	ip, r4, r0
   83d5a:	ea55 0c02 	orrsne.w	ip, r5, r2
   83d5e:	ea7f 5c64 	mvnsne.w	ip, r4, asr #21
   83d62:	ea7f 5c65 	mvnsne.w	ip, r5, asr #21
   83d66:	f000 80e2 	beq.w	83f2e <__adddf3+0x1ee>
   83d6a:	ea4f 5454 	mov.w	r4, r4, lsr #21
   83d6e:	ebd4 5555 	rsbs	r5, r4, r5, lsr #21
   83d72:	bfb8      	it	lt
   83d74:	426d      	neglt	r5, r5
   83d76:	dd0c      	ble.n	83d92 <__adddf3+0x52>
   83d78:	442c      	add	r4, r5
   83d7a:	ea80 0202 	eor.w	r2, r0, r2
   83d7e:	ea81 0303 	eor.w	r3, r1, r3
   83d82:	ea82 0000 	eor.w	r0, r2, r0
   83d86:	ea83 0101 	eor.w	r1, r3, r1
   83d8a:	ea80 0202 	eor.w	r2, r0, r2
   83d8e:	ea81 0303 	eor.w	r3, r1, r3
   83d92:	2d36      	cmp	r5, #54	; 0x36
   83d94:	bf88      	it	hi
   83d96:	bd30      	pophi	{r4, r5, pc}
   83d98:	f011 4f00 	tst.w	r1, #2147483648	; 0x80000000
   83d9c:	ea4f 3101 	mov.w	r1, r1, lsl #12
   83da0:	f44f 1c80 	mov.w	ip, #1048576	; 0x100000
   83da4:	ea4c 3111 	orr.w	r1, ip, r1, lsr #12
   83da8:	d002      	beq.n	83db0 <__adddf3+0x70>
   83daa:	4240      	negs	r0, r0
   83dac:	eb61 0141 	sbc.w	r1, r1, r1, lsl #1
   83db0:	f013 4f00 	tst.w	r3, #2147483648	; 0x80000000
   83db4:	ea4f 3303 	mov.w	r3, r3, lsl #12
   83db8:	ea4c 3313 	orr.w	r3, ip, r3, lsr #12
   83dbc:	d002      	beq.n	83dc4 <__adddf3+0x84>
   83dbe:	4252      	negs	r2, r2
   83dc0:	eb63 0343 	sbc.w	r3, r3, r3, lsl #1
   83dc4:	ea94 0f05 	teq	r4, r5
   83dc8:	f000 80a7 	beq.w	83f1a <__adddf3+0x1da>
   83dcc:	f1a4 0401 	sub.w	r4, r4, #1
   83dd0:	f1d5 0e20 	rsbs	lr, r5, #32
   83dd4:	db0d      	blt.n	83df2 <__adddf3+0xb2>
   83dd6:	fa02 fc0e 	lsl.w	ip, r2, lr
   83dda:	fa22 f205 	lsr.w	r2, r2, r5
   83dde:	1880      	adds	r0, r0, r2
   83de0:	f141 0100 	adc.w	r1, r1, #0
   83de4:	fa03 f20e 	lsl.w	r2, r3, lr
   83de8:	1880      	adds	r0, r0, r2
   83dea:	fa43 f305 	asr.w	r3, r3, r5
   83dee:	4159      	adcs	r1, r3
   83df0:	e00e      	b.n	83e10 <__adddf3+0xd0>
   83df2:	f1a5 0520 	sub.w	r5, r5, #32
   83df6:	f10e 0e20 	add.w	lr, lr, #32
   83dfa:	2a01      	cmp	r2, #1
   83dfc:	fa03 fc0e 	lsl.w	ip, r3, lr
   83e00:	bf28      	it	cs
   83e02:	f04c 0c02 	orrcs.w	ip, ip, #2
   83e06:	fa43 f305 	asr.w	r3, r3, r5
   83e0a:	18c0      	adds	r0, r0, r3
   83e0c:	eb51 71e3 	adcs.w	r1, r1, r3, asr #31
   83e10:	f001 4500 	and.w	r5, r1, #2147483648	; 0x80000000
   83e14:	d507      	bpl.n	83e26 <__adddf3+0xe6>
   83e16:	f04f 0e00 	mov.w	lr, #0
   83e1a:	f1dc 0c00 	rsbs	ip, ip, #0
   83e1e:	eb7e 0000 	sbcs.w	r0, lr, r0
   83e22:	eb6e 0101 	sbc.w	r1, lr, r1
   83e26:	f5b1 1f80 	cmp.w	r1, #1048576	; 0x100000
   83e2a:	d31b      	bcc.n	83e64 <__adddf3+0x124>
   83e2c:	f5b1 1f00 	cmp.w	r1, #2097152	; 0x200000
   83e30:	d30c      	bcc.n	83e4c <__adddf3+0x10c>
   83e32:	0849      	lsrs	r1, r1, #1
   83e34:	ea5f 0030 	movs.w	r0, r0, rrx
   83e38:	ea4f 0c3c 	mov.w	ip, ip, rrx
   83e3c:	f104 0401 	add.w	r4, r4, #1
   83e40:	ea4f 5244 	mov.w	r2, r4, lsl #21
   83e44:	f512 0f80 	cmn.w	r2, #4194304	; 0x400000
   83e48:	f080 809a 	bcs.w	83f80 <__adddf3+0x240>
   83e4c:	f1bc 4f00 	cmp.w	ip, #2147483648	; 0x80000000
   83e50:	bf08      	it	eq
   83e52:	ea5f 0c50 	movseq.w	ip, r0, lsr #1
   83e56:	f150 0000 	adcs.w	r0, r0, #0
   83e5a:	eb41 5104 	adc.w	r1, r1, r4, lsl #20
   83e5e:	ea41 0105 	orr.w	r1, r1, r5
   83e62:	bd30      	pop	{r4, r5, pc}
   83e64:	ea5f 0c4c 	movs.w	ip, ip, lsl #1
   83e68:	4140      	adcs	r0, r0
   83e6a:	eb41 0101 	adc.w	r1, r1, r1
   83e6e:	f411 1f80 	tst.w	r1, #1048576	; 0x100000
   83e72:	f1a4 0401 	sub.w	r4, r4, #1
   83e76:	d1e9      	bne.n	83e4c <__adddf3+0x10c>
   83e78:	f091 0f00 	teq	r1, #0
   83e7c:	bf04      	itt	eq
   83e7e:	4601      	moveq	r1, r0
   83e80:	2000      	moveq	r0, #0
   83e82:	fab1 f381 	clz	r3, r1
   83e86:	bf08      	it	eq
   83e88:	3320      	addeq	r3, #32
   83e8a:	f1a3 030b 	sub.w	r3, r3, #11
   83e8e:	f1b3 0220 	subs.w	r2, r3, #32
   83e92:	da0c      	bge.n	83eae <__adddf3+0x16e>
   83e94:	320c      	adds	r2, #12
   83e96:	dd08      	ble.n	83eaa <__adddf3+0x16a>
   83e98:	f102 0c14 	add.w	ip, r2, #20
   83e9c:	f1c2 020c 	rsb	r2, r2, #12
   83ea0:	fa01 f00c 	lsl.w	r0, r1, ip
   83ea4:	fa21 f102 	lsr.w	r1, r1, r2
   83ea8:	e00c      	b.n	83ec4 <__adddf3+0x184>
   83eaa:	f102 0214 	add.w	r2, r2, #20
   83eae:	bfd8      	it	le
   83eb0:	f1c2 0c20 	rsble	ip, r2, #32
   83eb4:	fa01 f102 	lsl.w	r1, r1, r2
   83eb8:	fa20 fc0c 	lsr.w	ip, r0, ip
   83ebc:	bfdc      	itt	le
   83ebe:	ea41 010c 	orrle.w	r1, r1, ip
   83ec2:	4090      	lslle	r0, r2
   83ec4:	1ae4      	subs	r4, r4, r3
   83ec6:	bfa2      	ittt	ge
   83ec8:	eb01 5104 	addge.w	r1, r1, r4, lsl #20
   83ecc:	4329      	orrge	r1, r5
   83ece:	bd30      	popge	{r4, r5, pc}
   83ed0:	ea6f 0404 	mvn.w	r4, r4
   83ed4:	3c1f      	subs	r4, #31
   83ed6:	da1c      	bge.n	83f12 <__adddf3+0x1d2>
   83ed8:	340c      	adds	r4, #12
   83eda:	dc0e      	bgt.n	83efa <__adddf3+0x1ba>
   83edc:	f104 0414 	add.w	r4, r4, #20
   83ee0:	f1c4 0220 	rsb	r2, r4, #32
   83ee4:	fa20 f004 	lsr.w	r0, r0, r4
   83ee8:	fa01 f302 	lsl.w	r3, r1, r2
   83eec:	ea40 0003 	orr.w	r0, r0, r3
   83ef0:	fa21 f304 	lsr.w	r3, r1, r4
   83ef4:	ea45 0103 	orr.w	r1, r5, r3
   83ef8:	bd30      	pop	{r4, r5, pc}
   83efa:	f1c4 040c 	rsb	r4, r4, #12
   83efe:	f1c4 0220 	rsb	r2, r4, #32
   83f02:	fa20 f002 	lsr.w	r0, r0, r2
   83f06:	fa01 f304 	lsl.w	r3, r1, r4
   83f0a:	ea40 0003 	orr.w	r0, r0, r3
   83f0e:	4629      	mov	r1, r5
   83f10:	bd30      	pop	{r4, r5, pc}
   83f12:	fa21 f004 	lsr.w	r0, r1, r4
   83f16:	4629      	mov	r1, r5
   83f18:	bd30      	pop	{r4, r5, pc}
   83f1a:	f094 0f00 	teq	r4, #0
   83f1e:	f483 1380 	eor.w	r3, r3, #1048576	; 0x100000
   83f22:	bf06      	itte	eq
   83f24:	f481 1180 	eoreq.w	r1, r1, #1048576	; 0x100000
   83f28:	3401      	addeq	r4, #1
   83f2a:	3d01      	subne	r5, #1
   83f2c:	e74e      	b.n	83dcc <__adddf3+0x8c>
   83f2e:	ea7f 5c64 	mvns.w	ip, r4, asr #21
   83f32:	bf18      	it	ne
   83f34:	ea7f 5c65 	mvnsne.w	ip, r5, asr #21
   83f38:	d029      	beq.n	83f8e <__adddf3+0x24e>
   83f3a:	ea94 0f05 	teq	r4, r5
   83f3e:	bf08      	it	eq
   83f40:	ea90 0f02 	teqeq	r0, r2
   83f44:	d005      	beq.n	83f52 <__adddf3+0x212>
   83f46:	ea54 0c00 	orrs.w	ip, r4, r0
   83f4a:	bf04      	itt	eq
   83f4c:	4619      	moveq	r1, r3
   83f4e:	4610      	moveq	r0, r2
   83f50:	bd30      	pop	{r4, r5, pc}
   83f52:	ea91 0f03 	teq	r1, r3
   83f56:	bf1e      	ittt	ne
   83f58:	2100      	movne	r1, #0
   83f5a:	2000      	movne	r0, #0
   83f5c:	bd30      	popne	{r4, r5, pc}
   83f5e:	ea5f 5c54 	movs.w	ip, r4, lsr #21
   83f62:	d105      	bne.n	83f70 <__adddf3+0x230>
   83f64:	0040      	lsls	r0, r0, #1
   83f66:	4149      	adcs	r1, r1
   83f68:	bf28      	it	cs
   83f6a:	f041 4100 	orrcs.w	r1, r1, #2147483648	; 0x80000000
   83f6e:	bd30      	pop	{r4, r5, pc}
   83f70:	f514 0480 	adds.w	r4, r4, #4194304	; 0x400000
   83f74:	bf3c      	itt	cc
   83f76:	f501 1180 	addcc.w	r1, r1, #1048576	; 0x100000
   83f7a:	bd30      	popcc	{r4, r5, pc}
   83f7c:	f001 4500 	and.w	r5, r1, #2147483648	; 0x80000000
   83f80:	f045 41fe 	orr.w	r1, r5, #2130706432	; 0x7f000000
   83f84:	f441 0170 	orr.w	r1, r1, #15728640	; 0xf00000
   83f88:	f04f 0000 	mov.w	r0, #0
   83f8c:	bd30      	pop	{r4, r5, pc}
   83f8e:	ea7f 5c64 	mvns.w	ip, r4, asr #21
   83f92:	bf1a      	itte	ne
   83f94:	4619      	movne	r1, r3
   83f96:	4610      	movne	r0, r2
   83f98:	ea7f 5c65 	mvnseq.w	ip, r5, asr #21
   83f9c:	bf1c      	itt	ne
   83f9e:	460b      	movne	r3, r1
   83fa0:	4602      	movne	r2, r0
   83fa2:	ea50 3401 	orrs.w	r4, r0, r1, lsl #12
   83fa6:	bf06      	itte	eq
   83fa8:	ea52 3503 	orrseq.w	r5, r2, r3, lsl #12
   83fac:	ea91 0f03 	teqeq	r1, r3
   83fb0:	f441 2100 	orrne.w	r1, r1, #524288	; 0x80000
   83fb4:	bd30      	pop	{r4, r5, pc}
   83fb6:	bf00      	nop

00083fb8 <__aeabi_ui2d>:
   83fb8:	f090 0f00 	teq	r0, #0
   83fbc:	bf04      	itt	eq
   83fbe:	2100      	moveq	r1, #0
   83fc0:	4770      	bxeq	lr
   83fc2:	b530      	push	{r4, r5, lr}
   83fc4:	f44f 6480 	mov.w	r4, #1024	; 0x400
   83fc8:	f104 0432 	add.w	r4, r4, #50	; 0x32
   83fcc:	f04f 0500 	mov.w	r5, #0
   83fd0:	f04f 0100 	mov.w	r1, #0
   83fd4:	e750      	b.n	83e78 <__adddf3+0x138>
   83fd6:	bf00      	nop

00083fd8 <__aeabi_i2d>:
   83fd8:	f090 0f00 	teq	r0, #0
   83fdc:	bf04      	itt	eq
   83fde:	2100      	moveq	r1, #0
   83fe0:	4770      	bxeq	lr
   83fe2:	b530      	push	{r4, r5, lr}
   83fe4:	f44f 6480 	mov.w	r4, #1024	; 0x400
   83fe8:	f104 0432 	add.w	r4, r4, #50	; 0x32
   83fec:	f010 4500 	ands.w	r5, r0, #2147483648	; 0x80000000
   83ff0:	bf48      	it	mi
   83ff2:	4240      	negmi	r0, r0
   83ff4:	f04f 0100 	mov.w	r1, #0
   83ff8:	e73e      	b.n	83e78 <__adddf3+0x138>
   83ffa:	bf00      	nop

00083ffc <__aeabi_f2d>:
   83ffc:	0042      	lsls	r2, r0, #1
   83ffe:	ea4f 01e2 	mov.w	r1, r2, asr #3
   84002:	ea4f 0131 	mov.w	r1, r1, rrx
   84006:	ea4f 7002 	mov.w	r0, r2, lsl #28
   8400a:	bf1f      	itttt	ne
   8400c:	f012 437f 	andsne.w	r3, r2, #4278190080	; 0xff000000
   84010:	f093 4f7f 	teqne	r3, #4278190080	; 0xff000000
   84014:	f081 5160 	eorne.w	r1, r1, #939524096	; 0x38000000
   84018:	4770      	bxne	lr
   8401a:	f092 0f00 	teq	r2, #0
   8401e:	bf14      	ite	ne
   84020:	f093 4f7f 	teqne	r3, #4278190080	; 0xff000000
   84024:	4770      	bxeq	lr
   84026:	b530      	push	{r4, r5, lr}
   84028:	f44f 7460 	mov.w	r4, #896	; 0x380
   8402c:	f001 4500 	and.w	r5, r1, #2147483648	; 0x80000000
   84030:	f021 4100 	bic.w	r1, r1, #2147483648	; 0x80000000
   84034:	e720      	b.n	83e78 <__adddf3+0x138>
   84036:	bf00      	nop

00084038 <__aeabi_ul2d>:
   84038:	ea50 0201 	orrs.w	r2, r0, r1
   8403c:	bf08      	it	eq
   8403e:	4770      	bxeq	lr
   84040:	b530      	push	{r4, r5, lr}
   84042:	f04f 0500 	mov.w	r5, #0
   84046:	e00a      	b.n	8405e <__aeabi_l2d+0x16>

00084048 <__aeabi_l2d>:
   84048:	ea50 0201 	orrs.w	r2, r0, r1
   8404c:	bf08      	it	eq
   8404e:	4770      	bxeq	lr
   84050:	b530      	push	{r4, r5, lr}
   84052:	f011 4500 	ands.w	r5, r1, #2147483648	; 0x80000000
   84056:	d502      	bpl.n	8405e <__aeabi_l2d+0x16>
   84058:	4240      	negs	r0, r0
   8405a:	eb61 0141 	sbc.w	r1, r1, r1, lsl #1
   8405e:	f44f 6480 	mov.w	r4, #1024	; 0x400
   84062:	f104 0432 	add.w	r4, r4, #50	; 0x32
   84066:	ea5f 5c91 	movs.w	ip, r1, lsr #22
   8406a:	f43f aedc 	beq.w	83e26 <__adddf3+0xe6>
   8406e:	f04f 0203 	mov.w	r2, #3
   84072:	ea5f 0cdc 	movs.w	ip, ip, lsr #3
   84076:	bf18      	it	ne
   84078:	3203      	addne	r2, #3
   8407a:	ea5f 0cdc 	movs.w	ip, ip, lsr #3
   8407e:	bf18      	it	ne
   84080:	3203      	addne	r2, #3
   84082:	eb02 02dc 	add.w	r2, r2, ip, lsr #3
   84086:	f1c2 0320 	rsb	r3, r2, #32
   8408a:	fa00 fc03 	lsl.w	ip, r0, r3
   8408e:	fa20 f002 	lsr.w	r0, r0, r2
   84092:	fa01 fe03 	lsl.w	lr, r1, r3
   84096:	ea40 000e 	orr.w	r0, r0, lr
   8409a:	fa21 f102 	lsr.w	r1, r1, r2
   8409e:	4414      	add	r4, r2
   840a0:	e6c1      	b.n	83e26 <__adddf3+0xe6>
   840a2:	bf00      	nop

000840a4 <__aeabi_dmul>:
   840a4:	b570      	push	{r4, r5, r6, lr}
   840a6:	f04f 0cff 	mov.w	ip, #255	; 0xff
   840aa:	f44c 6ce0 	orr.w	ip, ip, #1792	; 0x700
   840ae:	ea1c 5411 	ands.w	r4, ip, r1, lsr #20
   840b2:	bf1d      	ittte	ne
   840b4:	ea1c 5513 	andsne.w	r5, ip, r3, lsr #20
   840b8:	ea94 0f0c 	teqne	r4, ip
   840bc:	ea95 0f0c 	teqne	r5, ip
   840c0:	f000 f8de 	bleq	84280 <__aeabi_dmul+0x1dc>
   840c4:	442c      	add	r4, r5
   840c6:	ea81 0603 	eor.w	r6, r1, r3
   840ca:	ea21 514c 	bic.w	r1, r1, ip, lsl #21
   840ce:	ea23 534c 	bic.w	r3, r3, ip, lsl #21
   840d2:	ea50 3501 	orrs.w	r5, r0, r1, lsl #12
   840d6:	bf18      	it	ne
   840d8:	ea52 3503 	orrsne.w	r5, r2, r3, lsl #12
   840dc:	f441 1180 	orr.w	r1, r1, #1048576	; 0x100000
   840e0:	f443 1380 	orr.w	r3, r3, #1048576	; 0x100000
   840e4:	d038      	beq.n	84158 <__aeabi_dmul+0xb4>
   840e6:	fba0 ce02 	umull	ip, lr, r0, r2
   840ea:	f04f 0500 	mov.w	r5, #0
   840ee:	fbe1 e502 	umlal	lr, r5, r1, r2
   840f2:	f006 4200 	and.w	r2, r6, #2147483648	; 0x80000000
   840f6:	fbe0 e503 	umlal	lr, r5, r0, r3
   840fa:	f04f 0600 	mov.w	r6, #0
   840fe:	fbe1 5603 	umlal	r5, r6, r1, r3
   84102:	f09c 0f00 	teq	ip, #0
   84106:	bf18      	it	ne
   84108:	f04e 0e01 	orrne.w	lr, lr, #1
   8410c:	f1a4 04ff 	sub.w	r4, r4, #255	; 0xff
   84110:	f5b6 7f00 	cmp.w	r6, #512	; 0x200
   84114:	f564 7440 	sbc.w	r4, r4, #768	; 0x300
   84118:	d204      	bcs.n	84124 <__aeabi_dmul+0x80>
   8411a:	ea5f 0e4e 	movs.w	lr, lr, lsl #1
   8411e:	416d      	adcs	r5, r5
   84120:	eb46 0606 	adc.w	r6, r6, r6
   84124:	ea42 21c6 	orr.w	r1, r2, r6, lsl #11
   84128:	ea41 5155 	orr.w	r1, r1, r5, lsr #21
   8412c:	ea4f 20c5 	mov.w	r0, r5, lsl #11
   84130:	ea40 505e 	orr.w	r0, r0, lr, lsr #21
   84134:	ea4f 2ece 	mov.w	lr, lr, lsl #11
   84138:	f1b4 0cfd 	subs.w	ip, r4, #253	; 0xfd
   8413c:	bf88      	it	hi
   8413e:	f5bc 6fe0 	cmphi.w	ip, #1792	; 0x700
   84142:	d81e      	bhi.n	84182 <__aeabi_dmul+0xde>
   84144:	f1be 4f00 	cmp.w	lr, #2147483648	; 0x80000000
   84148:	bf08      	it	eq
   8414a:	ea5f 0e50 	movseq.w	lr, r0, lsr #1
   8414e:	f150 0000 	adcs.w	r0, r0, #0
   84152:	eb41 5104 	adc.w	r1, r1, r4, lsl #20
   84156:	bd70      	pop	{r4, r5, r6, pc}
   84158:	f006 4600 	and.w	r6, r6, #2147483648	; 0x80000000
   8415c:	ea46 0101 	orr.w	r1, r6, r1
   84160:	ea40 0002 	orr.w	r0, r0, r2
   84164:	ea81 0103 	eor.w	r1, r1, r3
   84168:	ebb4 045c 	subs.w	r4, r4, ip, lsr #1
   8416c:	bfc2      	ittt	gt
   8416e:	ebd4 050c 	rsbsgt	r5, r4, ip
   84172:	ea41 5104 	orrgt.w	r1, r1, r4, lsl #20
   84176:	bd70      	popgt	{r4, r5, r6, pc}
   84178:	f441 1180 	orr.w	r1, r1, #1048576	; 0x100000
   8417c:	f04f 0e00 	mov.w	lr, #0
   84180:	3c01      	subs	r4, #1
   84182:	f300 80ab 	bgt.w	842dc <__aeabi_dmul+0x238>
   84186:	f114 0f36 	cmn.w	r4, #54	; 0x36
   8418a:	bfde      	ittt	le
   8418c:	2000      	movle	r0, #0
   8418e:	f001 4100 	andle.w	r1, r1, #2147483648	; 0x80000000
   84192:	bd70      	pople	{r4, r5, r6, pc}
   84194:	f1c4 0400 	rsb	r4, r4, #0
   84198:	3c20      	subs	r4, #32
   8419a:	da35      	bge.n	84208 <__aeabi_dmul+0x164>
   8419c:	340c      	adds	r4, #12
   8419e:	dc1b      	bgt.n	841d8 <__aeabi_dmul+0x134>
   841a0:	f104 0414 	add.w	r4, r4, #20
   841a4:	f1c4 0520 	rsb	r5, r4, #32
   841a8:	fa00 f305 	lsl.w	r3, r0, r5
   841ac:	fa20 f004 	lsr.w	r0, r0, r4
   841b0:	fa01 f205 	lsl.w	r2, r1, r5
   841b4:	ea40 0002 	orr.w	r0, r0, r2
   841b8:	f001 4200 	and.w	r2, r1, #2147483648	; 0x80000000
   841bc:	f021 4100 	bic.w	r1, r1, #2147483648	; 0x80000000
   841c0:	eb10 70d3 	adds.w	r0, r0, r3, lsr #31
   841c4:	fa21 f604 	lsr.w	r6, r1, r4
   841c8:	eb42 0106 	adc.w	r1, r2, r6
   841cc:	ea5e 0e43 	orrs.w	lr, lr, r3, lsl #1
   841d0:	bf08      	it	eq
   841d2:	ea20 70d3 	biceq.w	r0, r0, r3, lsr #31
   841d6:	bd70      	pop	{r4, r5, r6, pc}
   841d8:	f1c4 040c 	rsb	r4, r4, #12
   841dc:	f1c4 0520 	rsb	r5, r4, #32
   841e0:	fa00 f304 	lsl.w	r3, r0, r4
   841e4:	fa20 f005 	lsr.w	r0, r0, r5
   841e8:	fa01 f204 	lsl.w	r2, r1, r4
   841ec:	ea40 0002 	orr.w	r0, r0, r2
   841f0:	f001 4100 	and.w	r1, r1, #2147483648	; 0x80000000
   841f4:	eb10 70d3 	adds.w	r0, r0, r3, lsr #31
   841f8:	f141 0100 	adc.w	r1, r1, #0
   841fc:	ea5e 0e43 	orrs.w	lr, lr, r3, lsl #1
   84200:	bf08      	it	eq
   84202:	ea20 70d3 	biceq.w	r0, r0, r3, lsr #31
   84206:	bd70      	pop	{r4, r5, r6, pc}
   84208:	f1c4 0520 	rsb	r5, r4, #32
   8420c:	fa00 f205 	lsl.w	r2, r0, r5
   84210:	ea4e 0e02 	orr.w	lr, lr, r2
   84214:	fa20 f304 	lsr.w	r3, r0, r4
   84218:	fa01 f205 	lsl.w	r2, r1, r5
   8421c:	ea43 0302 	orr.w	r3, r3, r2
   84220:	fa21 f004 	lsr.w	r0, r1, r4
   84224:	f001 4100 	and.w	r1, r1, #2147483648	; 0x80000000
   84228:	fa21 f204 	lsr.w	r2, r1, r4
   8422c:	ea20 0002 	bic.w	r0, r0, r2
   84230:	eb00 70d3 	add.w	r0, r0, r3, lsr #31
   84234:	ea5e 0e43 	orrs.w	lr, lr, r3, lsl #1
   84238:	bf08      	it	eq
   8423a:	ea20 70d3 	biceq.w	r0, r0, r3, lsr #31
   8423e:	bd70      	pop	{r4, r5, r6, pc}
   84240:	f094 0f00 	teq	r4, #0
   84244:	d10f      	bne.n	84266 <__aeabi_dmul+0x1c2>
   84246:	f001 4600 	and.w	r6, r1, #2147483648	; 0x80000000
   8424a:	0040      	lsls	r0, r0, #1
   8424c:	eb41 0101 	adc.w	r1, r1, r1
   84250:	f411 1f80 	tst.w	r1, #1048576	; 0x100000
   84254:	bf08      	it	eq
   84256:	3c01      	subeq	r4, #1
   84258:	d0f7      	beq.n	8424a <__aeabi_dmul+0x1a6>
   8425a:	ea41 0106 	orr.w	r1, r1, r6
   8425e:	f095 0f00 	teq	r5, #0
   84262:	bf18      	it	ne
   84264:	4770      	bxne	lr
   84266:	f003 4600 	and.w	r6, r3, #2147483648	; 0x80000000
   8426a:	0052      	lsls	r2, r2, #1
   8426c:	eb43 0303 	adc.w	r3, r3, r3
   84270:	f413 1f80 	tst.w	r3, #1048576	; 0x100000
   84274:	bf08      	it	eq
   84276:	3d01      	subeq	r5, #1
   84278:	d0f7      	beq.n	8426a <__aeabi_dmul+0x1c6>
   8427a:	ea43 0306 	orr.w	r3, r3, r6
   8427e:	4770      	bx	lr
   84280:	ea94 0f0c 	teq	r4, ip
   84284:	ea0c 5513 	and.w	r5, ip, r3, lsr #20
   84288:	bf18      	it	ne
   8428a:	ea95 0f0c 	teqne	r5, ip
   8428e:	d00c      	beq.n	842aa <__aeabi_dmul+0x206>
   84290:	ea50 0641 	orrs.w	r6, r0, r1, lsl #1
   84294:	bf18      	it	ne
   84296:	ea52 0643 	orrsne.w	r6, r2, r3, lsl #1
   8429a:	d1d1      	bne.n	84240 <__aeabi_dmul+0x19c>
   8429c:	ea81 0103 	eor.w	r1, r1, r3
   842a0:	f001 4100 	and.w	r1, r1, #2147483648	; 0x80000000
   842a4:	f04f 0000 	mov.w	r0, #0
   842a8:	bd70      	pop	{r4, r5, r6, pc}
   842aa:	ea50 0641 	orrs.w	r6, r0, r1, lsl #1
   842ae:	bf06      	itte	eq
   842b0:	4610      	moveq	r0, r2
   842b2:	4619      	moveq	r1, r3
   842b4:	ea52 0643 	orrsne.w	r6, r2, r3, lsl #1
   842b8:	d019      	beq.n	842ee <__aeabi_dmul+0x24a>
   842ba:	ea94 0f0c 	teq	r4, ip
   842be:	d102      	bne.n	842c6 <__aeabi_dmul+0x222>
   842c0:	ea50 3601 	orrs.w	r6, r0, r1, lsl #12
   842c4:	d113      	bne.n	842ee <__aeabi_dmul+0x24a>
   842c6:	ea95 0f0c 	teq	r5, ip
   842ca:	d105      	bne.n	842d8 <__aeabi_dmul+0x234>
   842cc:	ea52 3603 	orrs.w	r6, r2, r3, lsl #12
   842d0:	bf1c      	itt	ne
   842d2:	4610      	movne	r0, r2
   842d4:	4619      	movne	r1, r3
   842d6:	d10a      	bne.n	842ee <__aeabi_dmul+0x24a>
   842d8:	ea81 0103 	eor.w	r1, r1, r3
   842dc:	f001 4100 	and.w	r1, r1, #2147483648	; 0x80000000
   842e0:	f041 41fe 	orr.w	r1, r1, #2130706432	; 0x7f000000
   842e4:	f441 0170 	orr.w	r1, r1, #15728640	; 0xf00000
   842e8:	f04f 0000 	mov.w	r0, #0
   842ec:	bd70      	pop	{r4, r5, r6, pc}
   842ee:	f041 41fe 	orr.w	r1, r1, #2130706432	; 0x7f000000
   842f2:	f441 0178 	orr.w	r1, r1, #16252928	; 0xf80000
   842f6:	bd70      	pop	{r4, r5, r6, pc}

000842f8 <__aeabi_ddiv>:
   842f8:	b570      	push	{r4, r5, r6, lr}
   842fa:	f04f 0cff 	mov.w	ip, #255	; 0xff
   842fe:	f44c 6ce0 	orr.w	ip, ip, #1792	; 0x700
   84302:	ea1c 5411 	ands.w	r4, ip, r1, lsr #20
   84306:	bf1d      	ittte	ne
   84308:	ea1c 5513 	andsne.w	r5, ip, r3, lsr #20
   8430c:	ea94 0f0c 	teqne	r4, ip
   84310:	ea95 0f0c 	teqne	r5, ip
   84314:	f000 f8a7 	bleq	84466 <__aeabi_ddiv+0x16e>
   84318:	eba4 0405 	sub.w	r4, r4, r5
   8431c:	ea81 0e03 	eor.w	lr, r1, r3
   84320:	ea52 3503 	orrs.w	r5, r2, r3, lsl #12
   84324:	ea4f 3101 	mov.w	r1, r1, lsl #12
   84328:	f000 8088 	beq.w	8443c <__aeabi_ddiv+0x144>
   8432c:	ea4f 3303 	mov.w	r3, r3, lsl #12
   84330:	f04f 5580 	mov.w	r5, #268435456	; 0x10000000
   84334:	ea45 1313 	orr.w	r3, r5, r3, lsr #4
   84338:	ea43 6312 	orr.w	r3, r3, r2, lsr #24
   8433c:	ea4f 2202 	mov.w	r2, r2, lsl #8
   84340:	ea45 1511 	orr.w	r5, r5, r1, lsr #4
   84344:	ea45 6510 	orr.w	r5, r5, r0, lsr #24
   84348:	ea4f 2600 	mov.w	r6, r0, lsl #8
   8434c:	f00e 4100 	and.w	r1, lr, #2147483648	; 0x80000000
   84350:	429d      	cmp	r5, r3
   84352:	bf08      	it	eq
   84354:	4296      	cmpeq	r6, r2
   84356:	f144 04fd 	adc.w	r4, r4, #253	; 0xfd
   8435a:	f504 7440 	add.w	r4, r4, #768	; 0x300
   8435e:	d202      	bcs.n	84366 <__aeabi_ddiv+0x6e>
   84360:	085b      	lsrs	r3, r3, #1
   84362:	ea4f 0232 	mov.w	r2, r2, rrx
   84366:	1ab6      	subs	r6, r6, r2
   84368:	eb65 0503 	sbc.w	r5, r5, r3
   8436c:	085b      	lsrs	r3, r3, #1
   8436e:	ea4f 0232 	mov.w	r2, r2, rrx
   84372:	f44f 1080 	mov.w	r0, #1048576	; 0x100000
   84376:	f44f 2c00 	mov.w	ip, #524288	; 0x80000
   8437a:	ebb6 0e02 	subs.w	lr, r6, r2
   8437e:	eb75 0e03 	sbcs.w	lr, r5, r3
   84382:	bf22      	ittt	cs
   84384:	1ab6      	subcs	r6, r6, r2
   84386:	4675      	movcs	r5, lr
   84388:	ea40 000c 	orrcs.w	r0, r0, ip
   8438c:	085b      	lsrs	r3, r3, #1
   8438e:	ea4f 0232 	mov.w	r2, r2, rrx
   84392:	ebb6 0e02 	subs.w	lr, r6, r2
   84396:	eb75 0e03 	sbcs.w	lr, r5, r3
   8439a:	bf22      	ittt	cs
   8439c:	1ab6      	subcs	r6, r6, r2
   8439e:	4675      	movcs	r5, lr
   843a0:	ea40 005c 	orrcs.w	r0, r0, ip, lsr #1
   843a4:	085b      	lsrs	r3, r3, #1
   843a6:	ea4f 0232 	mov.w	r2, r2, rrx
   843aa:	ebb6 0e02 	subs.w	lr, r6, r2
   843ae:	eb75 0e03 	sbcs.w	lr, r5, r3
   843b2:	bf22      	ittt	cs
   843b4:	1ab6      	subcs	r6, r6, r2
   843b6:	4675      	movcs	r5, lr
   843b8:	ea40 009c 	orrcs.w	r0, r0, ip, lsr #2
   843bc:	085b      	lsrs	r3, r3, #1
   843be:	ea4f 0232 	mov.w	r2, r2, rrx
   843c2:	ebb6 0e02 	subs.w	lr, r6, r2
   843c6:	eb75 0e03 	sbcs.w	lr, r5, r3
   843ca:	bf22      	ittt	cs
   843cc:	1ab6      	subcs	r6, r6, r2
   843ce:	4675      	movcs	r5, lr
   843d0:	ea40 00dc 	orrcs.w	r0, r0, ip, lsr #3
   843d4:	ea55 0e06 	orrs.w	lr, r5, r6
   843d8:	d018      	beq.n	8440c <__aeabi_ddiv+0x114>
   843da:	ea4f 1505 	mov.w	r5, r5, lsl #4
   843de:	ea45 7516 	orr.w	r5, r5, r6, lsr #28
   843e2:	ea4f 1606 	mov.w	r6, r6, lsl #4
   843e6:	ea4f 03c3 	mov.w	r3, r3, lsl #3
   843ea:	ea43 7352 	orr.w	r3, r3, r2, lsr #29
   843ee:	ea4f 02c2 	mov.w	r2, r2, lsl #3
   843f2:	ea5f 1c1c 	movs.w	ip, ip, lsr #4
   843f6:	d1c0      	bne.n	8437a <__aeabi_ddiv+0x82>
   843f8:	f411 1f80 	tst.w	r1, #1048576	; 0x100000
   843fc:	d10b      	bne.n	84416 <__aeabi_ddiv+0x11e>
   843fe:	ea41 0100 	orr.w	r1, r1, r0
   84402:	f04f 0000 	mov.w	r0, #0
   84406:	f04f 4c00 	mov.w	ip, #2147483648	; 0x80000000
   8440a:	e7b6      	b.n	8437a <__aeabi_ddiv+0x82>
   8440c:	f411 1f80 	tst.w	r1, #1048576	; 0x100000
   84410:	bf04      	itt	eq
   84412:	4301      	orreq	r1, r0
   84414:	2000      	moveq	r0, #0
   84416:	f1b4 0cfd 	subs.w	ip, r4, #253	; 0xfd
   8441a:	bf88      	it	hi
   8441c:	f5bc 6fe0 	cmphi.w	ip, #1792	; 0x700
   84420:	f63f aeaf 	bhi.w	84182 <__aeabi_dmul+0xde>
   84424:	ebb5 0c03 	subs.w	ip, r5, r3
   84428:	bf04      	itt	eq
   8442a:	ebb6 0c02 	subseq.w	ip, r6, r2
   8442e:	ea5f 0c50 	movseq.w	ip, r0, lsr #1
   84432:	f150 0000 	adcs.w	r0, r0, #0
   84436:	eb41 5104 	adc.w	r1, r1, r4, lsl #20
   8443a:	bd70      	pop	{r4, r5, r6, pc}
   8443c:	f00e 4e00 	and.w	lr, lr, #2147483648	; 0x80000000
   84440:	ea4e 3111 	orr.w	r1, lr, r1, lsr #12
   84444:	eb14 045c 	adds.w	r4, r4, ip, lsr #1
   84448:	bfc2      	ittt	gt
   8444a:	ebd4 050c 	rsbsgt	r5, r4, ip
   8444e:	ea41 5104 	orrgt.w	r1, r1, r4, lsl #20
   84452:	bd70      	popgt	{r4, r5, r6, pc}
   84454:	f441 1180 	orr.w	r1, r1, #1048576	; 0x100000
   84458:	f04f 0e00 	mov.w	lr, #0
   8445c:	3c01      	subs	r4, #1
   8445e:	e690      	b.n	84182 <__aeabi_dmul+0xde>
   84460:	ea45 0e06 	orr.w	lr, r5, r6
   84464:	e68d      	b.n	84182 <__aeabi_dmul+0xde>
   84466:	ea0c 5513 	and.w	r5, ip, r3, lsr #20
   8446a:	ea94 0f0c 	teq	r4, ip
   8446e:	bf08      	it	eq
   84470:	ea95 0f0c 	teqeq	r5, ip
   84474:	f43f af3b 	beq.w	842ee <__aeabi_dmul+0x24a>
   84478:	ea94 0f0c 	teq	r4, ip
   8447c:	d10a      	bne.n	84494 <__aeabi_ddiv+0x19c>
   8447e:	ea50 3401 	orrs.w	r4, r0, r1, lsl #12
   84482:	f47f af34 	bne.w	842ee <__aeabi_dmul+0x24a>
   84486:	ea95 0f0c 	teq	r5, ip
   8448a:	f47f af25 	bne.w	842d8 <__aeabi_dmul+0x234>
   8448e:	4610      	mov	r0, r2
   84490:	4619      	mov	r1, r3
   84492:	e72c      	b.n	842ee <__aeabi_dmul+0x24a>
   84494:	ea95 0f0c 	teq	r5, ip
   84498:	d106      	bne.n	844a8 <__aeabi_ddiv+0x1b0>
   8449a:	ea52 3503 	orrs.w	r5, r2, r3, lsl #12
   8449e:	f43f aefd 	beq.w	8429c <__aeabi_dmul+0x1f8>
   844a2:	4610      	mov	r0, r2
   844a4:	4619      	mov	r1, r3
   844a6:	e722      	b.n	842ee <__aeabi_dmul+0x24a>
   844a8:	ea50 0641 	orrs.w	r6, r0, r1, lsl #1
   844ac:	bf18      	it	ne
   844ae:	ea52 0643 	orrsne.w	r6, r2, r3, lsl #1
   844b2:	f47f aec5 	bne.w	84240 <__aeabi_dmul+0x19c>
   844b6:	ea50 0441 	orrs.w	r4, r0, r1, lsl #1
   844ba:	f47f af0d 	bne.w	842d8 <__aeabi_dmul+0x234>
   844be:	ea52 0543 	orrs.w	r5, r2, r3, lsl #1
   844c2:	f47f aeeb 	bne.w	8429c <__aeabi_dmul+0x1f8>
   844c6:	e712      	b.n	842ee <__aeabi_dmul+0x24a>

000844c8 <__aeabi_d2iz>:
   844c8:	ea4f 0241 	mov.w	r2, r1, lsl #1
   844cc:	f512 1200 	adds.w	r2, r2, #2097152	; 0x200000
   844d0:	d215      	bcs.n	844fe <__aeabi_d2iz+0x36>
   844d2:	d511      	bpl.n	844f8 <__aeabi_d2iz+0x30>
   844d4:	f46f 7378 	mvn.w	r3, #992	; 0x3e0
   844d8:	ebb3 5262 	subs.w	r2, r3, r2, asr #21
   844dc:	d912      	bls.n	84504 <__aeabi_d2iz+0x3c>
   844de:	ea4f 23c1 	mov.w	r3, r1, lsl #11
   844e2:	f043 4300 	orr.w	r3, r3, #2147483648	; 0x80000000
   844e6:	ea43 5350 	orr.w	r3, r3, r0, lsr #21
   844ea:	f011 4f00 	tst.w	r1, #2147483648	; 0x80000000
   844ee:	fa23 f002 	lsr.w	r0, r3, r2
   844f2:	bf18      	it	ne
   844f4:	4240      	negne	r0, r0
   844f6:	4770      	bx	lr
   844f8:	f04f 0000 	mov.w	r0, #0
   844fc:	4770      	bx	lr
   844fe:	ea50 3001 	orrs.w	r0, r0, r1, lsl #12
   84502:	d105      	bne.n	84510 <__aeabi_d2iz+0x48>
   84504:	f011 4000 	ands.w	r0, r1, #2147483648	; 0x80000000
   84508:	bf08      	it	eq
   8450a:	f06f 4000 	mvneq.w	r0, #2147483648	; 0x80000000
   8450e:	4770      	bx	lr
   84510:	f04f 0000 	mov.w	r0, #0
   84514:	4770      	bx	lr
   84516:	bf00      	nop

00084518 <__register_exitproc>:
   84518:	e92d 43f8 	stmdb	sp!, {r3, r4, r5, r6, r7, r8, r9, lr}
   8451c:	4698      	mov	r8, r3
   8451e:	4b23      	ldr	r3, [pc, #140]	; (845ac <__register_exitproc+0x94>)
   84520:	4606      	mov	r6, r0
   84522:	681c      	ldr	r4, [r3, #0]
   84524:	460f      	mov	r7, r1
   84526:	f8d4 0148 	ldr.w	r0, [r4, #328]	; 0x148
   8452a:	4691      	mov	r9, r2
   8452c:	b918      	cbnz	r0, 84536 <__register_exitproc+0x1e>
   8452e:	f504 70a6 	add.w	r0, r4, #332	; 0x14c
   84532:	f8c4 0148 	str.w	r0, [r4, #328]	; 0x148
   84536:	6841      	ldr	r1, [r0, #4]
   84538:	291f      	cmp	r1, #31
   8453a:	dd16      	ble.n	8456a <__register_exitproc+0x52>
   8453c:	481c      	ldr	r0, [pc, #112]	; (845b0 <__register_exitproc+0x98>)
   8453e:	b918      	cbnz	r0, 84548 <__register_exitproc+0x30>
   84540:	f04f 30ff 	mov.w	r0, #4294967295
   84544:	e8bd 83f8 	ldmia.w	sp!, {r3, r4, r5, r6, r7, r8, r9, pc}
   84548:	f44f 70c8 	mov.w	r0, #400	; 0x190
   8454c:	f001 ffa6 	bl	8649c <malloc>
   84550:	2800      	cmp	r0, #0
   84552:	d0f5      	beq.n	84540 <__register_exitproc+0x28>
   84554:	f8d4 2148 	ldr.w	r2, [r4, #328]	; 0x148
   84558:	2500      	movs	r5, #0
   8455a:	6045      	str	r5, [r0, #4]
   8455c:	6002      	str	r2, [r0, #0]
   8455e:	f8c4 0148 	str.w	r0, [r4, #328]	; 0x148
   84562:	f8c0 5188 	str.w	r5, [r0, #392]	; 0x188
   84566:	f8c0 518c 	str.w	r5, [r0, #396]	; 0x18c
   8456a:	b1b6      	cbz	r6, 8459a <__register_exitproc+0x82>
   8456c:	6844      	ldr	r4, [r0, #4]
   8456e:	2201      	movs	r2, #1
   84570:	fa02 f204 	lsl.w	r2, r2, r4
   84574:	f8d0 1188 	ldr.w	r1, [r0, #392]	; 0x188
   84578:	eb00 0384 	add.w	r3, r0, r4, lsl #2
   8457c:	4311      	orrs	r1, r2
   8457e:	2e02      	cmp	r6, #2
   84580:	f8c3 9088 	str.w	r9, [r3, #136]	; 0x88
   84584:	f8c0 1188 	str.w	r1, [r0, #392]	; 0x188
   84588:	461c      	mov	r4, r3
   8458a:	f8c3 8108 	str.w	r8, [r3, #264]	; 0x108
   8458e:	d104      	bne.n	8459a <__register_exitproc+0x82>
   84590:	f8d0 318c 	ldr.w	r3, [r0, #396]	; 0x18c
   84594:	431a      	orrs	r2, r3
   84596:	f8c0 218c 	str.w	r2, [r0, #396]	; 0x18c
   8459a:	6841      	ldr	r1, [r0, #4]
   8459c:	1c8b      	adds	r3, r1, #2
   8459e:	1c4a      	adds	r2, r1, #1
   845a0:	f840 7023 	str.w	r7, [r0, r3, lsl #2]
   845a4:	6042      	str	r2, [r0, #4]
   845a6:	2000      	movs	r0, #0
   845a8:	e8bd 83f8 	ldmia.w	sp!, {r3, r4, r5, r6, r7, r8, r9, pc}
   845ac:	00087ed0 	.word	0x00087ed0
   845b0:	0008649d 	.word	0x0008649d

000845b4 <__libc_fini_array>:
   845b4:	b570      	push	{r4, r5, r6, lr}
   845b6:	4b08      	ldr	r3, [pc, #32]	; (845d8 <__libc_fini_array+0x24>)
   845b8:	4c08      	ldr	r4, [pc, #32]	; (845dc <__libc_fini_array+0x28>)
   845ba:	2500      	movs	r5, #0
   845bc:	1ae0      	subs	r0, r4, r3
   845be:	1084      	asrs	r4, r0, #2
   845c0:	eb03 0684 	add.w	r6, r3, r4, lsl #2
   845c4:	3d04      	subs	r5, #4
   845c6:	b11c      	cbz	r4, 845d0 <__libc_fini_array+0x1c>
   845c8:	5972      	ldr	r2, [r6, r5]
   845ca:	4790      	blx	r2
   845cc:	3c01      	subs	r4, #1
   845ce:	e7f9      	b.n	845c4 <__libc_fini_array+0x10>
   845d0:	e8bd 4070 	ldmia.w	sp!, {r4, r5, r6, lr}
   845d4:	f003 bcce 	b.w	87f74 <_fini>
   845d8:	00087f80 	.word	0x00087f80
   845dc:	00087f84 	.word	0x00087f84

000845e0 <__libc_init_array>:
   845e0:	b538      	push	{r3, r4, r5, lr}
   845e2:	4d0e      	ldr	r5, [pc, #56]	; (8461c <__libc_init_array+0x3c>)
   845e4:	4b0e      	ldr	r3, [pc, #56]	; (84620 <__libc_init_array+0x40>)
   845e6:	2400      	movs	r4, #0
   845e8:	1ae8      	subs	r0, r5, r3
   845ea:	1085      	asrs	r5, r0, #2
   845ec:	42ac      	cmp	r4, r5
   845ee:	d005      	beq.n	845fc <__libc_init_array+0x1c>
   845f0:	490b      	ldr	r1, [pc, #44]	; (84620 <__libc_init_array+0x40>)
   845f2:	f851 2024 	ldr.w	r2, [r1, r4, lsl #2]
   845f6:	4790      	blx	r2
   845f8:	3401      	adds	r4, #1
   845fa:	e7f7      	b.n	845ec <__libc_init_array+0xc>
   845fc:	f003 fcb0 	bl	87f60 <_init>
   84600:	4908      	ldr	r1, [pc, #32]	; (84624 <__libc_init_array+0x44>)
   84602:	4a09      	ldr	r2, [pc, #36]	; (84628 <__libc_init_array+0x48>)
   84604:	1a54      	subs	r4, r2, r1
   84606:	10a5      	asrs	r5, r4, #2
   84608:	2400      	movs	r4, #0
   8460a:	42ac      	cmp	r4, r5
   8460c:	d005      	beq.n	8461a <__libc_init_array+0x3a>
   8460e:	4b05      	ldr	r3, [pc, #20]	; (84624 <__libc_init_array+0x44>)
   84610:	f853 0024 	ldr.w	r0, [r3, r4, lsl #2]
   84614:	4780      	blx	r0
   84616:	3401      	adds	r4, #1
   84618:	e7f7      	b.n	8460a <__libc_init_array+0x2a>
   8461a:	bd38      	pop	{r3, r4, r5, pc}
   8461c:	00087f6c 	.word	0x00087f6c
   84620:	00087f6c 	.word	0x00087f6c
   84624:	00087f6c 	.word	0x00087f6c
   84628:	00087f74 	.word	0x00087f74

0008462c <iprintf>:
   8462c:	b40f      	push	{r0, r1, r2, r3}
   8462e:	b507      	push	{r0, r1, r2, lr}
   84630:	4906      	ldr	r1, [pc, #24]	; (8464c <iprintf+0x20>)
   84632:	ab04      	add	r3, sp, #16
   84634:	6808      	ldr	r0, [r1, #0]
   84636:	f853 2b04 	ldr.w	r2, [r3], #4
   8463a:	6881      	ldr	r1, [r0, #8]
   8463c:	9301      	str	r3, [sp, #4]
   8463e:	f000 fd37 	bl	850b0 <_vfiprintf_r>
   84642:	e8bd 400e 	ldmia.w	sp!, {r1, r2, r3, lr}
   84646:	b004      	add	sp, #16
   84648:	4770      	bx	lr
   8464a:	bf00      	nop
   8464c:	20070018 	.word	0x20070018

00084650 <_iprintf_r>:
   84650:	b40e      	push	{r1, r2, r3}
   84652:	b503      	push	{r0, r1, lr}
   84654:	ab03      	add	r3, sp, #12
   84656:	f853 2b04 	ldr.w	r2, [r3], #4
   8465a:	6881      	ldr	r1, [r0, #8]
   8465c:	9301      	str	r3, [sp, #4]
   8465e:	f000 fd27 	bl	850b0 <_vfiprintf_r>
   84662:	e8bd 400c 	ldmia.w	sp!, {r2, r3, lr}
   84666:	b003      	add	sp, #12
   84668:	4770      	bx	lr
   8466a:	bf00      	nop

0008466c <memcpy>:
   8466c:	b510      	push	{r4, lr}
   8466e:	2300      	movs	r3, #0
   84670:	4293      	cmp	r3, r2
   84672:	d003      	beq.n	8467c <memcpy+0x10>
   84674:	5ccc      	ldrb	r4, [r1, r3]
   84676:	54c4      	strb	r4, [r0, r3]
   84678:	3301      	adds	r3, #1
   8467a:	e7f9      	b.n	84670 <memcpy+0x4>
   8467c:	bd10      	pop	{r4, pc}

0008467e <memset>:
   8467e:	1882      	adds	r2, r0, r2
   84680:	4603      	mov	r3, r0
   84682:	4293      	cmp	r3, r2
   84684:	d002      	beq.n	8468c <memset+0xe>
   84686:	f803 1b01 	strb.w	r1, [r3], #1
   8468a:	e7fa      	b.n	84682 <memset+0x4>
   8468c:	4770      	bx	lr

0008468e <setbuf>:
   8468e:	2900      	cmp	r1, #0
   84690:	bf0c      	ite	eq
   84692:	2202      	moveq	r2, #2
   84694:	2200      	movne	r2, #0
   84696:	f44f 6380 	mov.w	r3, #1024	; 0x400
   8469a:	f000 b801 	b.w	846a0 <setvbuf>
	...

000846a0 <setvbuf>:
   846a0:	e92d 41f0 	stmdb	sp!, {r4, r5, r6, r7, r8, lr}
   846a4:	461d      	mov	r5, r3
   846a6:	4b37      	ldr	r3, [pc, #220]	; (84784 <setvbuf+0xe4>)
   846a8:	4604      	mov	r4, r0
   846aa:	6818      	ldr	r0, [r3, #0]
   846ac:	460e      	mov	r6, r1
   846ae:	4617      	mov	r7, r2
   846b0:	4698      	mov	r8, r3
   846b2:	b118      	cbz	r0, 846bc <setvbuf+0x1c>
   846b4:	6b82      	ldr	r2, [r0, #56]	; 0x38
   846b6:	b90a      	cbnz	r2, 846bc <setvbuf+0x1c>
   846b8:	f001 faae 	bl	85c18 <__sinit>
   846bc:	2f02      	cmp	r7, #2
   846be:	d85d      	bhi.n	8477c <setvbuf+0xdc>
   846c0:	2d00      	cmp	r5, #0
   846c2:	db5b      	blt.n	8477c <setvbuf+0xdc>
   846c4:	4621      	mov	r1, r4
   846c6:	f8d8 0000 	ldr.w	r0, [r8]
   846ca:	f001 f9b3 	bl	85a34 <_fflush_r>
   846ce:	89a1      	ldrh	r1, [r4, #12]
   846d0:	2000      	movs	r0, #0
   846d2:	f001 0380 	and.w	r3, r1, #128	; 0x80
   846d6:	b21a      	sxth	r2, r3
   846d8:	6060      	str	r0, [r4, #4]
   846da:	61a0      	str	r0, [r4, #24]
   846dc:	b122      	cbz	r2, 846e8 <setvbuf+0x48>
   846de:	4829      	ldr	r0, [pc, #164]	; (84784 <setvbuf+0xe4>)
   846e0:	6921      	ldr	r1, [r4, #16]
   846e2:	6800      	ldr	r0, [r0, #0]
   846e4:	f001 fbd6 	bl	85e94 <_free_r>
   846e8:	89a1      	ldrh	r1, [r4, #12]
   846ea:	2f02      	cmp	r7, #2
   846ec:	f021 0383 	bic.w	r3, r1, #131	; 0x83
   846f0:	81a3      	strh	r3, [r4, #12]
   846f2:	d012      	beq.n	8471a <setvbuf+0x7a>
   846f4:	bb36      	cbnz	r6, 84744 <setvbuf+0xa4>
   846f6:	2d00      	cmp	r5, #0
   846f8:	bf08      	it	eq
   846fa:	f44f 6580 	moveq.w	r5, #1024	; 0x400
   846fe:	4628      	mov	r0, r5
   84700:	f001 fecc 	bl	8649c <malloc>
   84704:	4606      	mov	r6, r0
   84706:	b9c8      	cbnz	r0, 8473c <setvbuf+0x9c>
   84708:	f44f 6080 	mov.w	r0, #1024	; 0x400
   8470c:	f001 fec6 	bl	8649c <malloc>
   84710:	4606      	mov	r6, r0
   84712:	b988      	cbnz	r0, 84738 <setvbuf+0x98>
   84714:	f04f 30ff 	mov.w	r0, #4294967295
   84718:	e000      	b.n	8471c <setvbuf+0x7c>
   8471a:	2000      	movs	r0, #0
   8471c:	89a1      	ldrh	r1, [r4, #12]
   8471e:	2200      	movs	r2, #0
   84720:	f041 0302 	orr.w	r3, r1, #2
   84724:	81a3      	strh	r3, [r4, #12]
   84726:	f104 0143 	add.w	r1, r4, #67	; 0x43
   8472a:	2301      	movs	r3, #1
   8472c:	60a2      	str	r2, [r4, #8]
   8472e:	6021      	str	r1, [r4, #0]
   84730:	6121      	str	r1, [r4, #16]
   84732:	6163      	str	r3, [r4, #20]
   84734:	e8bd 81f0 	ldmia.w	sp!, {r4, r5, r6, r7, r8, pc}
   84738:	f44f 6580 	mov.w	r5, #1024	; 0x400
   8473c:	89a2      	ldrh	r2, [r4, #12]
   8473e:	f042 0080 	orr.w	r0, r2, #128	; 0x80
   84742:	81a0      	strh	r0, [r4, #12]
   84744:	2f01      	cmp	r7, #1
   84746:	d105      	bne.n	84754 <setvbuf+0xb4>
   84748:	89a1      	ldrh	r1, [r4, #12]
   8474a:	426a      	negs	r2, r5
   8474c:	f041 0301 	orr.w	r3, r1, #1
   84750:	81a3      	strh	r3, [r4, #12]
   84752:	61a2      	str	r2, [r4, #24]
   84754:	480b      	ldr	r0, [pc, #44]	; (84784 <setvbuf+0xe4>)
   84756:	89a2      	ldrh	r2, [r4, #12]
   84758:	6801      	ldr	r1, [r0, #0]
   8475a:	4b0b      	ldr	r3, [pc, #44]	; (84788 <setvbuf+0xe8>)
   8475c:	f002 0008 	and.w	r0, r2, #8
   84760:	b200      	sxth	r0, r0
   84762:	63cb      	str	r3, [r1, #60]	; 0x3c
   84764:	6026      	str	r6, [r4, #0]
   84766:	6126      	str	r6, [r4, #16]
   84768:	6165      	str	r5, [r4, #20]
   8476a:	b148      	cbz	r0, 84780 <setvbuf+0xe0>
   8476c:	f012 0f03 	tst.w	r2, #3
   84770:	bf18      	it	ne
   84772:	2500      	movne	r5, #0
   84774:	60a5      	str	r5, [r4, #8]
   84776:	2000      	movs	r0, #0
   84778:	e8bd 81f0 	ldmia.w	sp!, {r4, r5, r6, r7, r8, pc}
   8477c:	f04f 30ff 	mov.w	r0, #4294967295
   84780:	e8bd 81f0 	ldmia.w	sp!, {r4, r5, r6, r7, r8, pc}
   84784:	20070018 	.word	0x20070018
   84788:	00085b8d 	.word	0x00085b8d

0008478c <_sprintf_r>:
   8478c:	b40c      	push	{r2, r3}
   8478e:	b510      	push	{r4, lr}
   84790:	b09c      	sub	sp, #112	; 0x70
   84792:	ab1e      	add	r3, sp, #120	; 0x78
   84794:	9102      	str	r1, [sp, #8]
   84796:	9106      	str	r1, [sp, #24]
   84798:	f06f 4100 	mvn.w	r1, #2147483648	; 0x80000000
   8479c:	f853 2b04 	ldr.w	r2, [r3], #4
   847a0:	9104      	str	r1, [sp, #16]
   847a2:	9107      	str	r1, [sp, #28]
   847a4:	f64f 71ff 	movw	r1, #65535	; 0xffff
   847a8:	f8ad 1016 	strh.w	r1, [sp, #22]
   847ac:	f44f 7402 	mov.w	r4, #520	; 0x208
   847b0:	a902      	add	r1, sp, #8
   847b2:	9301      	str	r3, [sp, #4]
   847b4:	f8ad 4014 	strh.w	r4, [sp, #20]
   847b8:	f000 f84a 	bl	84850 <_svfprintf_r>
   847bc:	9b02      	ldr	r3, [sp, #8]
   847be:	2200      	movs	r2, #0
   847c0:	701a      	strb	r2, [r3, #0]
   847c2:	b01c      	add	sp, #112	; 0x70
   847c4:	e8bd 4010 	ldmia.w	sp!, {r4, lr}
   847c8:	b002      	add	sp, #8
   847ca:	4770      	bx	lr

000847cc <sprintf>:
   847cc:	b40e      	push	{r1, r2, r3}
   847ce:	b500      	push	{lr}
   847d0:	b09c      	sub	sp, #112	; 0x70
   847d2:	9002      	str	r0, [sp, #8]
   847d4:	9006      	str	r0, [sp, #24]
   847d6:	f06f 4000 	mvn.w	r0, #2147483648	; 0x80000000
   847da:	ab1d      	add	r3, sp, #116	; 0x74
   847dc:	9004      	str	r0, [sp, #16]
   847de:	9007      	str	r0, [sp, #28]
   847e0:	f44f 7102 	mov.w	r1, #520	; 0x208
   847e4:	480a      	ldr	r0, [pc, #40]	; (84810 <sprintf+0x44>)
   847e6:	f853 2b04 	ldr.w	r2, [r3], #4
   847ea:	f8ad 1014 	strh.w	r1, [sp, #20]
   847ee:	f64f 71ff 	movw	r1, #65535	; 0xffff
   847f2:	f8ad 1016 	strh.w	r1, [sp, #22]
   847f6:	6800      	ldr	r0, [r0, #0]
   847f8:	a902      	add	r1, sp, #8
   847fa:	9301      	str	r3, [sp, #4]
   847fc:	f000 f828 	bl	84850 <_svfprintf_r>
   84800:	9b02      	ldr	r3, [sp, #8]
   84802:	2200      	movs	r2, #0
   84804:	701a      	strb	r2, [r3, #0]
   84806:	b01c      	add	sp, #112	; 0x70
   84808:	f85d eb04 	ldr.w	lr, [sp], #4
   8480c:	b003      	add	sp, #12
   8480e:	4770      	bx	lr
   84810:	20070018 	.word	0x20070018

00084814 <strlen>:
   84814:	4603      	mov	r3, r0
   84816:	f813 2b01 	ldrb.w	r2, [r3], #1
   8481a:	2a00      	cmp	r2, #0
   8481c:	d1fb      	bne.n	84816 <strlen+0x2>
   8481e:	1a18      	subs	r0, r3, r0
   84820:	3801      	subs	r0, #1
   84822:	4770      	bx	lr

00084824 <strncpy>:
   84824:	b530      	push	{r4, r5, lr}
   84826:	3901      	subs	r1, #1
   84828:	4603      	mov	r3, r0
   8482a:	461c      	mov	r4, r3
   8482c:	b13a      	cbz	r2, 8483e <strncpy+0x1a>
   8482e:	f811 5f01 	ldrb.w	r5, [r1, #1]!
   84832:	3a01      	subs	r2, #1
   84834:	f803 5b01 	strb.w	r5, [r3], #1
   84838:	461c      	mov	r4, r3
   8483a:	2d00      	cmp	r5, #0
   8483c:	d1f5      	bne.n	8482a <strncpy+0x6>
   8483e:	1899      	adds	r1, r3, r2
   84840:	428c      	cmp	r4, r1
   84842:	d003      	beq.n	8484c <strncpy+0x28>
   84844:	2200      	movs	r2, #0
   84846:	f804 2b01 	strb.w	r2, [r4], #1
   8484a:	e7f9      	b.n	84840 <strncpy+0x1c>
   8484c:	bd30      	pop	{r4, r5, pc}
	...

00084850 <_svfprintf_r>:
   84850:	e92d 4ff0 	stmdb	sp!, {r4, r5, r6, r7, r8, r9, sl, fp, lr}
   84854:	461e      	mov	r6, r3
   84856:	898b      	ldrh	r3, [r1, #12]
   84858:	4689      	mov	r9, r1
   8485a:	f003 0180 	and.w	r1, r3, #128	; 0x80
   8485e:	4614      	mov	r4, r2
   84860:	b20a      	sxth	r2, r1
   84862:	b0a9      	sub	sp, #164	; 0xa4
   84864:	4683      	mov	fp, r0
   84866:	b19a      	cbz	r2, 84890 <_svfprintf_r+0x40>
   84868:	f8d9 3010 	ldr.w	r3, [r9, #16]
   8486c:	b983      	cbnz	r3, 84890 <_svfprintf_r+0x40>
   8486e:	2140      	movs	r1, #64	; 0x40
   84870:	f001 fe24 	bl	864bc <_malloc_r>
   84874:	f8c9 0000 	str.w	r0, [r9]
   84878:	f8c9 0010 	str.w	r0, [r9, #16]
   8487c:	b928      	cbnz	r0, 8488a <_svfprintf_r+0x3a>
   8487e:	220c      	movs	r2, #12
   84880:	f8cb 2000 	str.w	r2, [fp]
   84884:	f04f 30ff 	mov.w	r0, #4294967295
   84888:	e3da      	b.n	85040 <_svfprintf_r+0x7f0>
   8488a:	2040      	movs	r0, #64	; 0x40
   8488c:	f8c9 0014 	str.w	r0, [r9, #20]
   84890:	2100      	movs	r1, #0
   84892:	ad18      	add	r5, sp, #96	; 0x60
   84894:	950b      	str	r5, [sp, #44]	; 0x2c
   84896:	910d      	str	r1, [sp, #52]	; 0x34
   84898:	910c      	str	r1, [sp, #48]	; 0x30
   8489a:	9401      	str	r4, [sp, #4]
   8489c:	9105      	str	r1, [sp, #20]
   8489e:	9104      	str	r1, [sp, #16]
   848a0:	46a8      	mov	r8, r5
   848a2:	9b01      	ldr	r3, [sp, #4]
   848a4:	461c      	mov	r4, r3
   848a6:	f813 2b01 	ldrb.w	r2, [r3], #1
   848aa:	b91a      	cbnz	r2, 848b4 <_svfprintf_r+0x64>
   848ac:	9801      	ldr	r0, [sp, #4]
   848ae:	1a25      	subs	r5, r4, r0
   848b0:	d103      	bne.n	848ba <_svfprintf_r+0x6a>
   848b2:	e01d      	b.n	848f0 <_svfprintf_r+0xa0>
   848b4:	2a25      	cmp	r2, #37	; 0x25
   848b6:	d1f5      	bne.n	848a4 <_svfprintf_r+0x54>
   848b8:	e7f8      	b.n	848ac <_svfprintf_r+0x5c>
   848ba:	9a01      	ldr	r2, [sp, #4]
   848bc:	990d      	ldr	r1, [sp, #52]	; 0x34
   848be:	e888 0024 	stmia.w	r8, {r2, r5}
   848c2:	9a0c      	ldr	r2, [sp, #48]	; 0x30
   848c4:	194b      	adds	r3, r1, r5
   848c6:	1c50      	adds	r0, r2, #1
   848c8:	2807      	cmp	r0, #7
   848ca:	930d      	str	r3, [sp, #52]	; 0x34
   848cc:	900c      	str	r0, [sp, #48]	; 0x30
   848ce:	dc02      	bgt.n	848d6 <_svfprintf_r+0x86>
   848d0:	f108 0808 	add.w	r8, r8, #8
   848d4:	e009      	b.n	848ea <_svfprintf_r+0x9a>
   848d6:	4658      	mov	r0, fp
   848d8:	4649      	mov	r1, r9
   848da:	aa0b      	add	r2, sp, #44	; 0x2c
   848dc:	f002 f9ea 	bl	86cb4 <__ssprint_r>
   848e0:	2800      	cmp	r0, #0
   848e2:	f040 83a2 	bne.w	8502a <_svfprintf_r+0x7da>
   848e6:	f10d 0860 	add.w	r8, sp, #96	; 0x60
   848ea:	9904      	ldr	r1, [sp, #16]
   848ec:	194b      	adds	r3, r1, r5
   848ee:	9304      	str	r3, [sp, #16]
   848f0:	7822      	ldrb	r2, [r4, #0]
   848f2:	2a00      	cmp	r2, #0
   848f4:	f000 8392 	beq.w	8501c <_svfprintf_r+0x7cc>
   848f8:	2200      	movs	r2, #0
   848fa:	3401      	adds	r4, #1
   848fc:	9401      	str	r4, [sp, #4]
   848fe:	f88d 2027 	strb.w	r2, [sp, #39]	; 0x27
   84902:	f04f 3cff 	mov.w	ip, #4294967295
   84906:	9203      	str	r2, [sp, #12]
   84908:	4617      	mov	r7, r2
   8490a:	9801      	ldr	r0, [sp, #4]
   8490c:	f810 3b01 	ldrb.w	r3, [r0], #1
   84910:	9001      	str	r0, [sp, #4]
   84912:	2b63      	cmp	r3, #99	; 0x63
   84914:	f000 80b3 	beq.w	84a7e <_svfprintf_r+0x22e>
   84918:	dc33      	bgt.n	84982 <_svfprintf_r+0x132>
   8491a:	2b39      	cmp	r3, #57	; 0x39
   8491c:	dc1a      	bgt.n	84954 <_svfprintf_r+0x104>
   8491e:	2b31      	cmp	r3, #49	; 0x31
   84920:	f280 8091 	bge.w	84a46 <_svfprintf_r+0x1f6>
   84924:	2b2b      	cmp	r3, #43	; 0x2b
   84926:	d101      	bne.n	8492c <_svfprintf_r+0xdc>
   84928:	461a      	mov	r2, r3
   8492a:	e7ee      	b.n	8490a <_svfprintf_r+0xba>
   8492c:	dc0a      	bgt.n	84944 <_svfprintf_r+0xf4>
   8492e:	2b23      	cmp	r3, #35	; 0x23
   84930:	d055      	beq.n	849de <_svfprintf_r+0x18e>
   84932:	2b2a      	cmp	r3, #42	; 0x2a
   84934:	d056      	beq.n	849e4 <_svfprintf_r+0x194>
   84936:	2b20      	cmp	r3, #32
   84938:	f040 81f5 	bne.w	84d26 <_svfprintf_r+0x4d6>
   8493c:	2a00      	cmp	r2, #0
   8493e:	bf08      	it	eq
   84940:	2220      	moveq	r2, #32
   84942:	e7e2      	b.n	8490a <_svfprintf_r+0xba>
   84944:	2b2e      	cmp	r3, #46	; 0x2e
   84946:	d058      	beq.n	849fa <_svfprintf_r+0x1aa>
   84948:	2b30      	cmp	r3, #48	; 0x30
   8494a:	d079      	beq.n	84a40 <_svfprintf_r+0x1f0>
   8494c:	2b2d      	cmp	r3, #45	; 0x2d
   8494e:	f040 81ea 	bne.w	84d26 <_svfprintf_r+0x4d6>
   84952:	e04f      	b.n	849f4 <_svfprintf_r+0x1a4>
   84954:	2b4f      	cmp	r3, #79	; 0x4f
   84956:	f000 80de 	beq.w	84b16 <_svfprintf_r+0x2c6>
   8495a:	dc07      	bgt.n	8496c <_svfprintf_r+0x11c>
   8495c:	2b44      	cmp	r3, #68	; 0x44
   8495e:	f040 81e2 	bne.w	84d26 <_svfprintf_r+0x4d6>
   84962:	f88d 2027 	strb.w	r2, [sp, #39]	; 0x27
   84966:	f047 0710 	orr.w	r7, r7, #16
   8496a:	e090      	b.n	84a8e <_svfprintf_r+0x23e>
   8496c:	2b55      	cmp	r3, #85	; 0x55
   8496e:	f000 811f 	beq.w	84bb0 <_svfprintf_r+0x360>
   84972:	2b58      	cmp	r3, #88	; 0x58
   84974:	f040 81d7 	bne.w	84d26 <_svfprintf_r+0x4d6>
   84978:	4dae      	ldr	r5, [pc, #696]	; (84c34 <_svfprintf_r+0x3e4>)
   8497a:	f88d 2027 	strb.w	r2, [sp, #39]	; 0x27
   8497e:	9505      	str	r5, [sp, #20]
   84980:	e130      	b.n	84be4 <_svfprintf_r+0x394>
   84982:	2b6f      	cmp	r3, #111	; 0x6f
   84984:	f000 80c9 	beq.w	84b1a <_svfprintf_r+0x2ca>
   84988:	dc10      	bgt.n	849ac <_svfprintf_r+0x15c>
   8498a:	2b69      	cmp	r3, #105	; 0x69
   8498c:	d024      	beq.n	849d8 <_svfprintf_r+0x188>
   8498e:	dc07      	bgt.n	849a0 <_svfprintf_r+0x150>
   84990:	2b64      	cmp	r3, #100	; 0x64
   84992:	d021      	beq.n	849d8 <_svfprintf_r+0x188>
   84994:	2b68      	cmp	r3, #104	; 0x68
   84996:	f040 81c6 	bne.w	84d26 <_svfprintf_r+0x4d6>
   8499a:	f047 0740 	orr.w	r7, r7, #64	; 0x40
   8499e:	e7b4      	b.n	8490a <_svfprintf_r+0xba>
   849a0:	2b6c      	cmp	r3, #108	; 0x6c
   849a2:	d05f      	beq.n	84a64 <_svfprintf_r+0x214>
   849a4:	2b6e      	cmp	r3, #110	; 0x6e
   849a6:	f040 81be 	bne.w	84d26 <_svfprintf_r+0x4d6>
   849aa:	e096      	b.n	84ada <_svfprintf_r+0x28a>
   849ac:	2b73      	cmp	r3, #115	; 0x73
   849ae:	f000 80df 	beq.w	84b70 <_svfprintf_r+0x320>
   849b2:	dc06      	bgt.n	849c2 <_svfprintf_r+0x172>
   849b4:	2b70      	cmp	r3, #112	; 0x70
   849b6:	f000 80cd 	beq.w	84b54 <_svfprintf_r+0x304>
   849ba:	2b71      	cmp	r3, #113	; 0x71
   849bc:	f040 81b3 	bne.w	84d26 <_svfprintf_r+0x4d6>
   849c0:	e05a      	b.n	84a78 <_svfprintf_r+0x228>
   849c2:	2b75      	cmp	r3, #117	; 0x75
   849c4:	f000 80f6 	beq.w	84bb4 <_svfprintf_r+0x364>
   849c8:	2b78      	cmp	r3, #120	; 0x78
   849ca:	f040 81ac 	bne.w	84d26 <_svfprintf_r+0x4d6>
   849ce:	4d9a      	ldr	r5, [pc, #616]	; (84c38 <_svfprintf_r+0x3e8>)
   849d0:	f88d 2027 	strb.w	r2, [sp, #39]	; 0x27
   849d4:	9505      	str	r5, [sp, #20]
   849d6:	e105      	b.n	84be4 <_svfprintf_r+0x394>
   849d8:	f88d 2027 	strb.w	r2, [sp, #39]	; 0x27
   849dc:	e057      	b.n	84a8e <_svfprintf_r+0x23e>
   849de:	f047 0701 	orr.w	r7, r7, #1
   849e2:	e792      	b.n	8490a <_svfprintf_r+0xba>
   849e4:	1d33      	adds	r3, r6, #4
   849e6:	6836      	ldr	r6, [r6, #0]
   849e8:	2e00      	cmp	r6, #0
   849ea:	9603      	str	r6, [sp, #12]
   849ec:	da15      	bge.n	84a1a <_svfprintf_r+0x1ca>
   849ee:	4270      	negs	r0, r6
   849f0:	9003      	str	r0, [sp, #12]
   849f2:	461e      	mov	r6, r3
   849f4:	f047 0704 	orr.w	r7, r7, #4
   849f8:	e787      	b.n	8490a <_svfprintf_r+0xba>
   849fa:	9901      	ldr	r1, [sp, #4]
   849fc:	f811 3b01 	ldrb.w	r3, [r1], #1
   84a00:	2b2a      	cmp	r3, #42	; 0x2a
   84a02:	9101      	str	r1, [sp, #4]
   84a04:	d10b      	bne.n	84a1e <_svfprintf_r+0x1ce>
   84a06:	f8d6 c000 	ldr.w	ip, [r6]
   84a0a:	1d33      	adds	r3, r6, #4
   84a0c:	f1bc 0f00 	cmp.w	ip, #0
   84a10:	da03      	bge.n	84a1a <_svfprintf_r+0x1ca>
   84a12:	461e      	mov	r6, r3
   84a14:	f04f 3cff 	mov.w	ip, #4294967295
   84a18:	e777      	b.n	8490a <_svfprintf_r+0xba>
   84a1a:	461e      	mov	r6, r3
   84a1c:	e775      	b.n	8490a <_svfprintf_r+0xba>
   84a1e:	f04f 0c00 	mov.w	ip, #0
   84a22:	f1a3 0030 	sub.w	r0, r3, #48	; 0x30
   84a26:	2809      	cmp	r0, #9
   84a28:	d807      	bhi.n	84a3a <_svfprintf_r+0x1ea>
   84a2a:	9901      	ldr	r1, [sp, #4]
   84a2c:	230a      	movs	r3, #10
   84a2e:	fb03 0c0c 	mla	ip, r3, ip, r0
   84a32:	f811 3b01 	ldrb.w	r3, [r1], #1
   84a36:	9101      	str	r1, [sp, #4]
   84a38:	e7f3      	b.n	84a22 <_svfprintf_r+0x1d2>
   84a3a:	ea4c 7cec 	orr.w	ip, ip, ip, asr #31
   84a3e:	e768      	b.n	84912 <_svfprintf_r+0xc2>
   84a40:	f047 0780 	orr.w	r7, r7, #128	; 0x80
   84a44:	e761      	b.n	8490a <_svfprintf_r+0xba>
   84a46:	9801      	ldr	r0, [sp, #4]
   84a48:	2100      	movs	r1, #0
   84a4a:	3b30      	subs	r3, #48	; 0x30
   84a4c:	240a      	movs	r4, #10
   84a4e:	fb04 3101 	mla	r1, r4, r1, r3
   84a52:	f810 3b01 	ldrb.w	r3, [r0], #1
   84a56:	f1a3 0430 	sub.w	r4, r3, #48	; 0x30
   84a5a:	2c09      	cmp	r4, #9
   84a5c:	9001      	str	r0, [sp, #4]
   84a5e:	d9f4      	bls.n	84a4a <_svfprintf_r+0x1fa>
   84a60:	9103      	str	r1, [sp, #12]
   84a62:	e756      	b.n	84912 <_svfprintf_r+0xc2>
   84a64:	9901      	ldr	r1, [sp, #4]
   84a66:	780b      	ldrb	r3, [r1, #0]
   84a68:	2b6c      	cmp	r3, #108	; 0x6c
   84a6a:	d102      	bne.n	84a72 <_svfprintf_r+0x222>
   84a6c:	1c48      	adds	r0, r1, #1
   84a6e:	9001      	str	r0, [sp, #4]
   84a70:	e002      	b.n	84a78 <_svfprintf_r+0x228>
   84a72:	f047 0710 	orr.w	r7, r7, #16
   84a76:	e748      	b.n	8490a <_svfprintf_r+0xba>
   84a78:	f047 0720 	orr.w	r7, r7, #32
   84a7c:	e745      	b.n	8490a <_svfprintf_r+0xba>
   84a7e:	6832      	ldr	r2, [r6, #0]
   84a80:	2500      	movs	r5, #0
   84a82:	f88d 2038 	strb.w	r2, [sp, #56]	; 0x38
   84a86:	f88d 5027 	strb.w	r5, [sp, #39]	; 0x27
   84a8a:	3604      	adds	r6, #4
   84a8c:	e155      	b.n	84d3a <_svfprintf_r+0x4ea>
   84a8e:	06ba      	lsls	r2, r7, #26
   84a90:	d507      	bpl.n	84aa2 <_svfprintf_r+0x252>
   84a92:	3607      	adds	r6, #7
   84a94:	f026 0507 	bic.w	r5, r6, #7
   84a98:	f105 0608 	add.w	r6, r5, #8
   84a9c:	e9d5 4500 	ldrd	r4, r5, [r5]
   84aa0:	e00f      	b.n	84ac2 <_svfprintf_r+0x272>
   84aa2:	f017 0f10 	tst.w	r7, #16
   84aa6:	f106 0104 	add.w	r1, r6, #4
   84aaa:	d001      	beq.n	84ab0 <_svfprintf_r+0x260>
   84aac:	6832      	ldr	r2, [r6, #0]
   84aae:	e005      	b.n	84abc <_svfprintf_r+0x26c>
   84ab0:	f017 0f40 	tst.w	r7, #64	; 0x40
   84ab4:	6832      	ldr	r2, [r6, #0]
   84ab6:	d001      	beq.n	84abc <_svfprintf_r+0x26c>
   84ab8:	b214      	sxth	r4, r2
   84aba:	e000      	b.n	84abe <_svfprintf_r+0x26e>
   84abc:	4614      	mov	r4, r2
   84abe:	17e5      	asrs	r5, r4, #31
   84ac0:	460e      	mov	r6, r1
   84ac2:	2c00      	cmp	r4, #0
   84ac4:	f175 0200 	sbcs.w	r2, r5, #0
   84ac8:	f280 80b8 	bge.w	84c3c <_svfprintf_r+0x3ec>
   84acc:	232d      	movs	r3, #45	; 0x2d
   84ace:	4264      	negs	r4, r4
   84ad0:	eb65 0545 	sbc.w	r5, r5, r5, lsl #1
   84ad4:	f88d 3027 	strb.w	r3, [sp, #39]	; 0x27
   84ad8:	e0b0      	b.n	84c3c <_svfprintf_r+0x3ec>
   84ada:	f017 0f20 	tst.w	r7, #32
   84ade:	f88d 2027 	strb.w	r2, [sp, #39]	; 0x27
   84ae2:	f106 0204 	add.w	r2, r6, #4
   84ae6:	d005      	beq.n	84af4 <_svfprintf_r+0x2a4>
   84ae8:	9c04      	ldr	r4, [sp, #16]
   84aea:	6835      	ldr	r5, [r6, #0]
   84aec:	17e0      	asrs	r0, r4, #31
   84aee:	602c      	str	r4, [r5, #0]
   84af0:	6068      	str	r0, [r5, #4]
   84af2:	e004      	b.n	84afe <_svfprintf_r+0x2ae>
   84af4:	06fb      	lsls	r3, r7, #27
   84af6:	d504      	bpl.n	84b02 <_svfprintf_r+0x2b2>
   84af8:	6833      	ldr	r3, [r6, #0]
   84afa:	9904      	ldr	r1, [sp, #16]
   84afc:	6019      	str	r1, [r3, #0]
   84afe:	4616      	mov	r6, r2
   84b00:	e6cf      	b.n	848a2 <_svfprintf_r+0x52>
   84b02:	6830      	ldr	r0, [r6, #0]
   84b04:	9c04      	ldr	r4, [sp, #16]
   84b06:	f017 0f40 	tst.w	r7, #64	; 0x40
   84b0a:	f106 0604 	add.w	r6, r6, #4
   84b0e:	bf14      	ite	ne
   84b10:	8004      	strhne	r4, [r0, #0]
   84b12:	6004      	streq	r4, [r0, #0]
   84b14:	e6c5      	b.n	848a2 <_svfprintf_r+0x52>
   84b16:	f047 0710 	orr.w	r7, r7, #16
   84b1a:	f017 0020 	ands.w	r0, r7, #32
   84b1e:	d008      	beq.n	84b32 <_svfprintf_r+0x2e2>
   84b20:	1df3      	adds	r3, r6, #7
   84b22:	f023 0507 	bic.w	r5, r3, #7
   84b26:	f105 0608 	add.w	r6, r5, #8
   84b2a:	e9d5 4500 	ldrd	r4, r5, [r5]
   84b2e:	2000      	movs	r0, #0
   84b30:	e07c      	b.n	84c2c <_svfprintf_r+0x3dc>
   84b32:	f017 0110 	ands.w	r1, r7, #16
   84b36:	f106 0204 	add.w	r2, r6, #4
   84b3a:	d106      	bne.n	84b4a <_svfprintf_r+0x2fa>
   84b3c:	f017 0040 	ands.w	r0, r7, #64	; 0x40
   84b40:	d003      	beq.n	84b4a <_svfprintf_r+0x2fa>
   84b42:	8834      	ldrh	r4, [r6, #0]
   84b44:	2500      	movs	r5, #0
   84b46:	4616      	mov	r6, r2
   84b48:	e7f1      	b.n	84b2e <_svfprintf_r+0x2de>
   84b4a:	6836      	ldr	r6, [r6, #0]
   84b4c:	2500      	movs	r5, #0
   84b4e:	4634      	mov	r4, r6
   84b50:	4616      	mov	r6, r2
   84b52:	e06b      	b.n	84c2c <_svfprintf_r+0x3dc>
   84b54:	4b38      	ldr	r3, [pc, #224]	; (84c38 <_svfprintf_r+0x3e8>)
   84b56:	2130      	movs	r1, #48	; 0x30
   84b58:	2278      	movs	r2, #120	; 0x78
   84b5a:	6834      	ldr	r4, [r6, #0]
   84b5c:	2500      	movs	r5, #0
   84b5e:	f047 0702 	orr.w	r7, r7, #2
   84b62:	f88d 1028 	strb.w	r1, [sp, #40]	; 0x28
   84b66:	f88d 2029 	strb.w	r2, [sp, #41]	; 0x29
   84b6a:	3604      	adds	r6, #4
   84b6c:	9305      	str	r3, [sp, #20]
   84b6e:	e05c      	b.n	84c2a <_svfprintf_r+0x3da>
   84b70:	4631      	mov	r1, r6
   84b72:	2500      	movs	r5, #0
   84b74:	f8d1 a000 	ldr.w	sl, [r1]
   84b78:	3604      	adds	r6, #4
   84b7a:	45ac      	cmp	ip, r5
   84b7c:	f88d 5027 	strb.w	r5, [sp, #39]	; 0x27
   84b80:	4650      	mov	r0, sl
   84b82:	db11      	blt.n	84ba8 <_svfprintf_r+0x358>
   84b84:	4662      	mov	r2, ip
   84b86:	4629      	mov	r1, r5
   84b88:	f8cd c000 	str.w	ip, [sp]
   84b8c:	f001 fe98 	bl	868c0 <memchr>
   84b90:	f8dd c000 	ldr.w	ip, [sp]
   84b94:	2800      	cmp	r0, #0
   84b96:	f000 80d4 	beq.w	84d42 <_svfprintf_r+0x4f2>
   84b9a:	ebca 0400 	rsb	r4, sl, r0
   84b9e:	4564      	cmp	r4, ip
   84ba0:	f340 80d1 	ble.w	84d46 <_svfprintf_r+0x4f6>
   84ba4:	4664      	mov	r4, ip
   84ba6:	e0ce      	b.n	84d46 <_svfprintf_r+0x4f6>
   84ba8:	f7ff fe34 	bl	84814 <strlen>
   84bac:	4604      	mov	r4, r0
   84bae:	e0ca      	b.n	84d46 <_svfprintf_r+0x4f6>
   84bb0:	f047 0710 	orr.w	r7, r7, #16
   84bb4:	06bd      	lsls	r5, r7, #26
   84bb6:	d506      	bpl.n	84bc6 <_svfprintf_r+0x376>
   84bb8:	1df0      	adds	r0, r6, #7
   84bba:	f020 0407 	bic.w	r4, r0, #7
   84bbe:	f104 0608 	add.w	r6, r4, #8
   84bc2:	cc30      	ldmia	r4, {r4, r5}
   84bc4:	e00c      	b.n	84be0 <_svfprintf_r+0x390>
   84bc6:	f017 0f10 	tst.w	r7, #16
   84bca:	f106 0304 	add.w	r3, r6, #4
   84bce:	d103      	bne.n	84bd8 <_svfprintf_r+0x388>
   84bd0:	067c      	lsls	r4, r7, #25
   84bd2:	d501      	bpl.n	84bd8 <_svfprintf_r+0x388>
   84bd4:	8834      	ldrh	r4, [r6, #0]
   84bd6:	e001      	b.n	84bdc <_svfprintf_r+0x38c>
   84bd8:	6835      	ldr	r5, [r6, #0]
   84bda:	462c      	mov	r4, r5
   84bdc:	2500      	movs	r5, #0
   84bde:	461e      	mov	r6, r3
   84be0:	2001      	movs	r0, #1
   84be2:	e023      	b.n	84c2c <_svfprintf_r+0x3dc>
   84be4:	06b8      	lsls	r0, r7, #26
   84be6:	d507      	bpl.n	84bf8 <_svfprintf_r+0x3a8>
   84be8:	1df4      	adds	r4, r6, #7
   84bea:	f024 0107 	bic.w	r1, r4, #7
   84bee:	f101 0608 	add.w	r6, r1, #8
   84bf2:	e9d1 4500 	ldrd	r4, r5, [r1]
   84bf6:	e00c      	b.n	84c12 <_svfprintf_r+0x3c2>
   84bf8:	f017 0f10 	tst.w	r7, #16
   84bfc:	f106 0004 	add.w	r0, r6, #4
   84c00:	d103      	bne.n	84c0a <_svfprintf_r+0x3ba>
   84c02:	0679      	lsls	r1, r7, #25
   84c04:	d501      	bpl.n	84c0a <_svfprintf_r+0x3ba>
   84c06:	8834      	ldrh	r4, [r6, #0]
   84c08:	e001      	b.n	84c0e <_svfprintf_r+0x3be>
   84c0a:	6836      	ldr	r6, [r6, #0]
   84c0c:	4634      	mov	r4, r6
   84c0e:	2500      	movs	r5, #0
   84c10:	4606      	mov	r6, r0
   84c12:	07fa      	lsls	r2, r7, #31
   84c14:	d509      	bpl.n	84c2a <_svfprintf_r+0x3da>
   84c16:	ea54 0205 	orrs.w	r2, r4, r5
   84c1a:	d006      	beq.n	84c2a <_svfprintf_r+0x3da>
   84c1c:	2230      	movs	r2, #48	; 0x30
   84c1e:	f88d 2028 	strb.w	r2, [sp, #40]	; 0x28
   84c22:	f88d 3029 	strb.w	r3, [sp, #41]	; 0x29
   84c26:	f047 0702 	orr.w	r7, r7, #2
   84c2a:	2002      	movs	r0, #2
   84c2c:	2100      	movs	r1, #0
   84c2e:	f88d 1027 	strb.w	r1, [sp, #39]	; 0x27
   84c32:	e004      	b.n	84c3e <_svfprintf_r+0x3ee>
   84c34:	00087ef6 	.word	0x00087ef6
   84c38:	00087f07 	.word	0x00087f07
   84c3c:	2001      	movs	r0, #1
   84c3e:	f1bc 0f00 	cmp.w	ip, #0
   84c42:	bfa8      	it	ge
   84c44:	f027 0780 	bicge.w	r7, r7, #128	; 0x80
   84c48:	ea54 0105 	orrs.w	r1, r4, r5
   84c4c:	d102      	bne.n	84c54 <_svfprintf_r+0x404>
   84c4e:	f1bc 0f00 	cmp.w	ip, #0
   84c52:	d058      	beq.n	84d06 <_svfprintf_r+0x4b6>
   84c54:	2801      	cmp	r0, #1
   84c56:	d01d      	beq.n	84c94 <_svfprintf_r+0x444>
   84c58:	2802      	cmp	r0, #2
   84c5a:	f10d 035f 	add.w	r3, sp, #95	; 0x5f
   84c5e:	d041      	beq.n	84ce4 <_svfprintf_r+0x494>
   84c60:	f004 0207 	and.w	r2, r4, #7
   84c64:	08e4      	lsrs	r4, r4, #3
   84c66:	ea44 7045 	orr.w	r0, r4, r5, lsl #29
   84c6a:	08e9      	lsrs	r1, r5, #3
   84c6c:	4604      	mov	r4, r0
   84c6e:	460d      	mov	r5, r1
   84c70:	3230      	adds	r2, #48	; 0x30
   84c72:	ea54 0105 	orrs.w	r1, r4, r5
   84c76:	469a      	mov	sl, r3
   84c78:	701a      	strb	r2, [r3, #0]
   84c7a:	f103 33ff 	add.w	r3, r3, #4294967295
   84c7e:	d1ef      	bne.n	84c60 <_svfprintf_r+0x410>
   84c80:	07f8      	lsls	r0, r7, #31
   84c82:	4655      	mov	r5, sl
   84c84:	d54a      	bpl.n	84d1c <_svfprintf_r+0x4cc>
   84c86:	2a30      	cmp	r2, #48	; 0x30
   84c88:	d048      	beq.n	84d1c <_svfprintf_r+0x4cc>
   84c8a:	2230      	movs	r2, #48	; 0x30
   84c8c:	469a      	mov	sl, r3
   84c8e:	f805 2c01 	strb.w	r2, [r5, #-1]
   84c92:	e043      	b.n	84d1c <_svfprintf_r+0x4cc>
   84c94:	2d00      	cmp	r5, #0
   84c96:	bf08      	it	eq
   84c98:	2c0a      	cmpeq	r4, #10
   84c9a:	d203      	bcs.n	84ca4 <_svfprintf_r+0x454>
   84c9c:	3430      	adds	r4, #48	; 0x30
   84c9e:	f88d 405f 	strb.w	r4, [sp, #95]	; 0x5f
   84ca2:	e036      	b.n	84d12 <_svfprintf_r+0x4c2>
   84ca4:	f10d 035f 	add.w	r3, sp, #95	; 0x5f
   84ca8:	9302      	str	r3, [sp, #8]
   84caa:	4620      	mov	r0, r4
   84cac:	4629      	mov	r1, r5
   84cae:	220a      	movs	r2, #10
   84cb0:	2300      	movs	r3, #0
   84cb2:	f8cd c000 	str.w	ip, [sp]
   84cb6:	f002 fdd9 	bl	8786c <__aeabi_uldivmod>
   84cba:	9802      	ldr	r0, [sp, #8]
   84cbc:	3230      	adds	r2, #48	; 0x30
   84cbe:	f800 2901 	strb.w	r2, [r0], #-1
   84cc2:	4629      	mov	r1, r5
   84cc4:	220a      	movs	r2, #10
   84cc6:	2300      	movs	r3, #0
   84cc8:	f8dd a008 	ldr.w	sl, [sp, #8]
   84ccc:	9002      	str	r0, [sp, #8]
   84cce:	4620      	mov	r0, r4
   84cd0:	f002 fdcc 	bl	8786c <__aeabi_uldivmod>
   84cd4:	4604      	mov	r4, r0
   84cd6:	460d      	mov	r5, r1
   84cd8:	ea54 0105 	orrs.w	r1, r4, r5
   84cdc:	f8dd c000 	ldr.w	ip, [sp]
   84ce0:	d1e3      	bne.n	84caa <_svfprintf_r+0x45a>
   84ce2:	e01b      	b.n	84d1c <_svfprintf_r+0x4cc>
   84ce4:	9905      	ldr	r1, [sp, #20]
   84ce6:	f004 000f 	and.w	r0, r4, #15
   84cea:	0924      	lsrs	r4, r4, #4
   84cec:	5c0a      	ldrb	r2, [r1, r0]
   84cee:	ea44 7005 	orr.w	r0, r4, r5, lsl #28
   84cf2:	0929      	lsrs	r1, r5, #4
   84cf4:	4604      	mov	r4, r0
   84cf6:	460d      	mov	r5, r1
   84cf8:	469a      	mov	sl, r3
   84cfa:	f803 2901 	strb.w	r2, [r3], #-1
   84cfe:	ea54 0205 	orrs.w	r2, r4, r5
   84d02:	d1ef      	bne.n	84ce4 <_svfprintf_r+0x494>
   84d04:	e00a      	b.n	84d1c <_svfprintf_r+0x4cc>
   84d06:	b938      	cbnz	r0, 84d18 <_svfprintf_r+0x4c8>
   84d08:	07f9      	lsls	r1, r7, #31
   84d0a:	d505      	bpl.n	84d18 <_svfprintf_r+0x4c8>
   84d0c:	2030      	movs	r0, #48	; 0x30
   84d0e:	f88d 005f 	strb.w	r0, [sp, #95]	; 0x5f
   84d12:	f10d 0a5f 	add.w	sl, sp, #95	; 0x5f
   84d16:	e001      	b.n	84d1c <_svfprintf_r+0x4cc>
   84d18:	f10d 0a60 	add.w	sl, sp, #96	; 0x60
   84d1c:	ad18      	add	r5, sp, #96	; 0x60
   84d1e:	ebca 0405 	rsb	r4, sl, r5
   84d22:	4665      	mov	r5, ip
   84d24:	e00f      	b.n	84d46 <_svfprintf_r+0x4f6>
   84d26:	f88d 2027 	strb.w	r2, [sp, #39]	; 0x27
   84d2a:	2b00      	cmp	r3, #0
   84d2c:	f000 8176 	beq.w	8501c <_svfprintf_r+0x7cc>
   84d30:	2500      	movs	r5, #0
   84d32:	f88d 3038 	strb.w	r3, [sp, #56]	; 0x38
   84d36:	f88d 5027 	strb.w	r5, [sp, #39]	; 0x27
   84d3a:	2401      	movs	r4, #1
   84d3c:	f10d 0a38 	add.w	sl, sp, #56	; 0x38
   84d40:	e001      	b.n	84d46 <_svfprintf_r+0x4f6>
   84d42:	4664      	mov	r4, ip
   84d44:	4605      	mov	r5, r0
   84d46:	f89d 3027 	ldrb.w	r3, [sp, #39]	; 0x27
   84d4a:	42ac      	cmp	r4, r5
   84d4c:	bfac      	ite	ge
   84d4e:	4621      	movge	r1, r4
   84d50:	4629      	movlt	r1, r5
   84d52:	9102      	str	r1, [sp, #8]
   84d54:	b113      	cbz	r3, 84d5c <_svfprintf_r+0x50c>
   84d56:	9802      	ldr	r0, [sp, #8]
   84d58:	1c42      	adds	r2, r0, #1
   84d5a:	9202      	str	r2, [sp, #8]
   84d5c:	f017 0102 	ands.w	r1, r7, #2
   84d60:	9106      	str	r1, [sp, #24]
   84d62:	d002      	beq.n	84d6a <_svfprintf_r+0x51a>
   84d64:	9b02      	ldr	r3, [sp, #8]
   84d66:	1c98      	adds	r0, r3, #2
   84d68:	9002      	str	r0, [sp, #8]
   84d6a:	f017 0284 	ands.w	r2, r7, #132	; 0x84
   84d6e:	9207      	str	r2, [sp, #28]
   84d70:	d13c      	bne.n	84dec <_svfprintf_r+0x59c>
   84d72:	9903      	ldr	r1, [sp, #12]
   84d74:	9b02      	ldr	r3, [sp, #8]
   84d76:	1acb      	subs	r3, r1, r3
   84d78:	2b00      	cmp	r3, #0
   84d7a:	dd37      	ble.n	84dec <_svfprintf_r+0x59c>
   84d7c:	48a5      	ldr	r0, [pc, #660]	; (85014 <_svfprintf_r+0x7c4>)
   84d7e:	2b10      	cmp	r3, #16
   84d80:	f8c8 0000 	str.w	r0, [r8]
   84d84:	dd1b      	ble.n	84dbe <_svfprintf_r+0x56e>
   84d86:	9a0c      	ldr	r2, [sp, #48]	; 0x30
   84d88:	2110      	movs	r1, #16
   84d8a:	980d      	ldr	r0, [sp, #52]	; 0x34
   84d8c:	f8c8 1004 	str.w	r1, [r8, #4]
   84d90:	1c51      	adds	r1, r2, #1
   84d92:	3010      	adds	r0, #16
   84d94:	2907      	cmp	r1, #7
   84d96:	900d      	str	r0, [sp, #52]	; 0x34
   84d98:	910c      	str	r1, [sp, #48]	; 0x30
   84d9a:	dc02      	bgt.n	84da2 <_svfprintf_r+0x552>
   84d9c:	f108 0808 	add.w	r8, r8, #8
   84da0:	e00b      	b.n	84dba <_svfprintf_r+0x56a>
   84da2:	4658      	mov	r0, fp
   84da4:	4649      	mov	r1, r9
   84da6:	aa0b      	add	r2, sp, #44	; 0x2c
   84da8:	9300      	str	r3, [sp, #0]
   84daa:	f001 ff83 	bl	86cb4 <__ssprint_r>
   84dae:	9b00      	ldr	r3, [sp, #0]
   84db0:	2800      	cmp	r0, #0
   84db2:	f040 813a 	bne.w	8502a <_svfprintf_r+0x7da>
   84db6:	f10d 0860 	add.w	r8, sp, #96	; 0x60
   84dba:	3b10      	subs	r3, #16
   84dbc:	e7de      	b.n	84d7c <_svfprintf_r+0x52c>
   84dbe:	9a0d      	ldr	r2, [sp, #52]	; 0x34
   84dc0:	f8c8 3004 	str.w	r3, [r8, #4]
   84dc4:	18d1      	adds	r1, r2, r3
   84dc6:	9b0c      	ldr	r3, [sp, #48]	; 0x30
   84dc8:	910d      	str	r1, [sp, #52]	; 0x34
   84dca:	1c58      	adds	r0, r3, #1
   84dcc:	2807      	cmp	r0, #7
   84dce:	900c      	str	r0, [sp, #48]	; 0x30
   84dd0:	dc02      	bgt.n	84dd8 <_svfprintf_r+0x588>
   84dd2:	f108 0808 	add.w	r8, r8, #8
   84dd6:	e009      	b.n	84dec <_svfprintf_r+0x59c>
   84dd8:	4658      	mov	r0, fp
   84dda:	4649      	mov	r1, r9
   84ddc:	aa0b      	add	r2, sp, #44	; 0x2c
   84dde:	f001 ff69 	bl	86cb4 <__ssprint_r>
   84de2:	2800      	cmp	r0, #0
   84de4:	f040 8121 	bne.w	8502a <_svfprintf_r+0x7da>
   84de8:	f10d 0860 	add.w	r8, sp, #96	; 0x60
   84dec:	f89d 2027 	ldrb.w	r2, [sp, #39]	; 0x27
   84df0:	b1da      	cbz	r2, 84e2a <_svfprintf_r+0x5da>
   84df2:	f10d 0127 	add.w	r1, sp, #39	; 0x27
   84df6:	f8c8 1000 	str.w	r1, [r8]
   84dfa:	990c      	ldr	r1, [sp, #48]	; 0x30
   84dfc:	2301      	movs	r3, #1
   84dfe:	980d      	ldr	r0, [sp, #52]	; 0x34
   84e00:	f8c8 3004 	str.w	r3, [r8, #4]
   84e04:	1c4b      	adds	r3, r1, #1
   84e06:	1c42      	adds	r2, r0, #1
   84e08:	2b07      	cmp	r3, #7
   84e0a:	920d      	str	r2, [sp, #52]	; 0x34
   84e0c:	930c      	str	r3, [sp, #48]	; 0x30
   84e0e:	dc02      	bgt.n	84e16 <_svfprintf_r+0x5c6>
   84e10:	f108 0808 	add.w	r8, r8, #8
   84e14:	e009      	b.n	84e2a <_svfprintf_r+0x5da>
   84e16:	4658      	mov	r0, fp
   84e18:	4649      	mov	r1, r9
   84e1a:	aa0b      	add	r2, sp, #44	; 0x2c
   84e1c:	f001 ff4a 	bl	86cb4 <__ssprint_r>
   84e20:	2800      	cmp	r0, #0
   84e22:	f040 8102 	bne.w	8502a <_svfprintf_r+0x7da>
   84e26:	f10d 0860 	add.w	r8, sp, #96	; 0x60
   84e2a:	9806      	ldr	r0, [sp, #24]
   84e2c:	b1d0      	cbz	r0, 84e64 <_svfprintf_r+0x614>
   84e2e:	aa0a      	add	r2, sp, #40	; 0x28
   84e30:	f8c8 2000 	str.w	r2, [r8]
   84e34:	9a0c      	ldr	r2, [sp, #48]	; 0x30
   84e36:	2102      	movs	r1, #2
   84e38:	9b0d      	ldr	r3, [sp, #52]	; 0x34
   84e3a:	f8c8 1004 	str.w	r1, [r8, #4]
   84e3e:	1c51      	adds	r1, r2, #1
   84e40:	1c98      	adds	r0, r3, #2
   84e42:	2907      	cmp	r1, #7
   84e44:	900d      	str	r0, [sp, #52]	; 0x34
   84e46:	910c      	str	r1, [sp, #48]	; 0x30
   84e48:	dc02      	bgt.n	84e50 <_svfprintf_r+0x600>
   84e4a:	f108 0808 	add.w	r8, r8, #8
   84e4e:	e009      	b.n	84e64 <_svfprintf_r+0x614>
   84e50:	4658      	mov	r0, fp
   84e52:	4649      	mov	r1, r9
   84e54:	aa0b      	add	r2, sp, #44	; 0x2c
   84e56:	f001 ff2d 	bl	86cb4 <__ssprint_r>
   84e5a:	2800      	cmp	r0, #0
   84e5c:	f040 80e5 	bne.w	8502a <_svfprintf_r+0x7da>
   84e60:	f10d 0860 	add.w	r8, sp, #96	; 0x60
   84e64:	9b07      	ldr	r3, [sp, #28]
   84e66:	2b80      	cmp	r3, #128	; 0x80
   84e68:	d13c      	bne.n	84ee4 <_svfprintf_r+0x694>
   84e6a:	9803      	ldr	r0, [sp, #12]
   84e6c:	9a02      	ldr	r2, [sp, #8]
   84e6e:	1a83      	subs	r3, r0, r2
   84e70:	2b00      	cmp	r3, #0
   84e72:	dd37      	ble.n	84ee4 <_svfprintf_r+0x694>
   84e74:	4968      	ldr	r1, [pc, #416]	; (85018 <_svfprintf_r+0x7c8>)
   84e76:	2b10      	cmp	r3, #16
   84e78:	f8c8 1000 	str.w	r1, [r8]
   84e7c:	dd1b      	ble.n	84eb6 <_svfprintf_r+0x666>
   84e7e:	980c      	ldr	r0, [sp, #48]	; 0x30
   84e80:	2210      	movs	r2, #16
   84e82:	990d      	ldr	r1, [sp, #52]	; 0x34
   84e84:	f8c8 2004 	str.w	r2, [r8, #4]
   84e88:	1c42      	adds	r2, r0, #1
   84e8a:	3110      	adds	r1, #16
   84e8c:	2a07      	cmp	r2, #7
   84e8e:	910d      	str	r1, [sp, #52]	; 0x34
   84e90:	920c      	str	r2, [sp, #48]	; 0x30
   84e92:	dc02      	bgt.n	84e9a <_svfprintf_r+0x64a>
   84e94:	f108 0808 	add.w	r8, r8, #8
   84e98:	e00b      	b.n	84eb2 <_svfprintf_r+0x662>
   84e9a:	4658      	mov	r0, fp
   84e9c:	4649      	mov	r1, r9
   84e9e:	aa0b      	add	r2, sp, #44	; 0x2c
   84ea0:	9300      	str	r3, [sp, #0]
   84ea2:	f001 ff07 	bl	86cb4 <__ssprint_r>
   84ea6:	9b00      	ldr	r3, [sp, #0]
   84ea8:	2800      	cmp	r0, #0
   84eaa:	f040 80be 	bne.w	8502a <_svfprintf_r+0x7da>
   84eae:	f10d 0860 	add.w	r8, sp, #96	; 0x60
   84eb2:	3b10      	subs	r3, #16
   84eb4:	e7de      	b.n	84e74 <_svfprintf_r+0x624>
   84eb6:	9a0c      	ldr	r2, [sp, #48]	; 0x30
   84eb8:	980d      	ldr	r0, [sp, #52]	; 0x34
   84eba:	1c51      	adds	r1, r2, #1
   84ebc:	f8c8 3004 	str.w	r3, [r8, #4]
   84ec0:	2907      	cmp	r1, #7
   84ec2:	4403      	add	r3, r0
   84ec4:	930d      	str	r3, [sp, #52]	; 0x34
   84ec6:	910c      	str	r1, [sp, #48]	; 0x30
   84ec8:	dc02      	bgt.n	84ed0 <_svfprintf_r+0x680>
   84eca:	f108 0808 	add.w	r8, r8, #8
   84ece:	e009      	b.n	84ee4 <_svfprintf_r+0x694>
   84ed0:	4658      	mov	r0, fp
   84ed2:	4649      	mov	r1, r9
   84ed4:	aa0b      	add	r2, sp, #44	; 0x2c
   84ed6:	f001 feed 	bl	86cb4 <__ssprint_r>
   84eda:	2800      	cmp	r0, #0
   84edc:	f040 80a5 	bne.w	8502a <_svfprintf_r+0x7da>
   84ee0:	f10d 0860 	add.w	r8, sp, #96	; 0x60
   84ee4:	1b2d      	subs	r5, r5, r4
   84ee6:	2d00      	cmp	r5, #0
   84ee8:	dd34      	ble.n	84f54 <_svfprintf_r+0x704>
   84eea:	484b      	ldr	r0, [pc, #300]	; (85018 <_svfprintf_r+0x7c8>)
   84eec:	2d10      	cmp	r5, #16
   84eee:	f8c8 0000 	str.w	r0, [r8]
   84ef2:	dd19      	ble.n	84f28 <_svfprintf_r+0x6d8>
   84ef4:	980c      	ldr	r0, [sp, #48]	; 0x30
   84ef6:	990d      	ldr	r1, [sp, #52]	; 0x34
   84ef8:	1c43      	adds	r3, r0, #1
   84efa:	2210      	movs	r2, #16
   84efc:	3110      	adds	r1, #16
   84efe:	2b07      	cmp	r3, #7
   84f00:	f8c8 2004 	str.w	r2, [r8, #4]
   84f04:	910d      	str	r1, [sp, #52]	; 0x34
   84f06:	930c      	str	r3, [sp, #48]	; 0x30
   84f08:	dc02      	bgt.n	84f10 <_svfprintf_r+0x6c0>
   84f0a:	f108 0808 	add.w	r8, r8, #8
   84f0e:	e009      	b.n	84f24 <_svfprintf_r+0x6d4>
   84f10:	4658      	mov	r0, fp
   84f12:	4649      	mov	r1, r9
   84f14:	aa0b      	add	r2, sp, #44	; 0x2c
   84f16:	f001 fecd 	bl	86cb4 <__ssprint_r>
   84f1a:	2800      	cmp	r0, #0
   84f1c:	f040 8085 	bne.w	8502a <_svfprintf_r+0x7da>
   84f20:	f10d 0860 	add.w	r8, sp, #96	; 0x60
   84f24:	3d10      	subs	r5, #16
   84f26:	e7e0      	b.n	84eea <_svfprintf_r+0x69a>
   84f28:	9a0c      	ldr	r2, [sp, #48]	; 0x30
   84f2a:	9b0d      	ldr	r3, [sp, #52]	; 0x34
   84f2c:	1c51      	adds	r1, r2, #1
   84f2e:	f8c8 5004 	str.w	r5, [r8, #4]
   84f32:	2907      	cmp	r1, #7
   84f34:	441d      	add	r5, r3
   84f36:	950d      	str	r5, [sp, #52]	; 0x34
   84f38:	910c      	str	r1, [sp, #48]	; 0x30
   84f3a:	dc02      	bgt.n	84f42 <_svfprintf_r+0x6f2>
   84f3c:	f108 0808 	add.w	r8, r8, #8
   84f40:	e008      	b.n	84f54 <_svfprintf_r+0x704>
   84f42:	4658      	mov	r0, fp
   84f44:	4649      	mov	r1, r9
   84f46:	aa0b      	add	r2, sp, #44	; 0x2c
   84f48:	f001 feb4 	bl	86cb4 <__ssprint_r>
   84f4c:	2800      	cmp	r0, #0
   84f4e:	d16c      	bne.n	8502a <_svfprintf_r+0x7da>
   84f50:	f10d 0860 	add.w	r8, sp, #96	; 0x60
   84f54:	9b0c      	ldr	r3, [sp, #48]	; 0x30
   84f56:	980d      	ldr	r0, [sp, #52]	; 0x34
   84f58:	1c5a      	adds	r2, r3, #1
   84f5a:	f8c8 4004 	str.w	r4, [r8, #4]
   84f5e:	2a07      	cmp	r2, #7
   84f60:	4404      	add	r4, r0
   84f62:	f8c8 a000 	str.w	sl, [r8]
   84f66:	940d      	str	r4, [sp, #52]	; 0x34
   84f68:	920c      	str	r2, [sp, #48]	; 0x30
   84f6a:	dc02      	bgt.n	84f72 <_svfprintf_r+0x722>
   84f6c:	f108 0308 	add.w	r3, r8, #8
   84f70:	e007      	b.n	84f82 <_svfprintf_r+0x732>
   84f72:	4658      	mov	r0, fp
   84f74:	4649      	mov	r1, r9
   84f76:	aa0b      	add	r2, sp, #44	; 0x2c
   84f78:	f001 fe9c 	bl	86cb4 <__ssprint_r>
   84f7c:	2800      	cmp	r0, #0
   84f7e:	d154      	bne.n	8502a <_svfprintf_r+0x7da>
   84f80:	ab18      	add	r3, sp, #96	; 0x60
   84f82:	077a      	lsls	r2, r7, #29
   84f84:	d40b      	bmi.n	84f9e <_svfprintf_r+0x74e>
   84f86:	9804      	ldr	r0, [sp, #16]
   84f88:	9b02      	ldr	r3, [sp, #8]
   84f8a:	9a03      	ldr	r2, [sp, #12]
   84f8c:	990d      	ldr	r1, [sp, #52]	; 0x34
   84f8e:	4293      	cmp	r3, r2
   84f90:	bfac      	ite	ge
   84f92:	18c0      	addge	r0, r0, r3
   84f94:	1880      	addlt	r0, r0, r2
   84f96:	9004      	str	r0, [sp, #16]
   84f98:	2900      	cmp	r1, #0
   84f9a:	d036      	beq.n	8500a <_svfprintf_r+0x7ba>
   84f9c:	e02f      	b.n	84ffe <_svfprintf_r+0x7ae>
   84f9e:	9c03      	ldr	r4, [sp, #12]
   84fa0:	9902      	ldr	r1, [sp, #8]
   84fa2:	1a64      	subs	r4, r4, r1
   84fa4:	2c00      	cmp	r4, #0
   84fa6:	ddee      	ble.n	84f86 <_svfprintf_r+0x736>
   84fa8:	481a      	ldr	r0, [pc, #104]	; (85014 <_svfprintf_r+0x7c4>)
   84faa:	2c10      	cmp	r4, #16
   84fac:	6018      	str	r0, [r3, #0]
   84fae:	dd15      	ble.n	84fdc <_svfprintf_r+0x78c>
   84fb0:	990c      	ldr	r1, [sp, #48]	; 0x30
   84fb2:	2010      	movs	r0, #16
   84fb4:	9a0d      	ldr	r2, [sp, #52]	; 0x34
   84fb6:	6058      	str	r0, [r3, #4]
   84fb8:	1c48      	adds	r0, r1, #1
   84fba:	3210      	adds	r2, #16
   84fbc:	2807      	cmp	r0, #7
   84fbe:	920d      	str	r2, [sp, #52]	; 0x34
   84fc0:	900c      	str	r0, [sp, #48]	; 0x30
   84fc2:	dc01      	bgt.n	84fc8 <_svfprintf_r+0x778>
   84fc4:	3308      	adds	r3, #8
   84fc6:	e007      	b.n	84fd8 <_svfprintf_r+0x788>
   84fc8:	4658      	mov	r0, fp
   84fca:	4649      	mov	r1, r9
   84fcc:	aa0b      	add	r2, sp, #44	; 0x2c
   84fce:	f001 fe71 	bl	86cb4 <__ssprint_r>
   84fd2:	2800      	cmp	r0, #0
   84fd4:	d129      	bne.n	8502a <_svfprintf_r+0x7da>
   84fd6:	ab18      	add	r3, sp, #96	; 0x60
   84fd8:	3c10      	subs	r4, #16
   84fda:	e7e5      	b.n	84fa8 <_svfprintf_r+0x758>
   84fdc:	9a0c      	ldr	r2, [sp, #48]	; 0x30
   84fde:	605c      	str	r4, [r3, #4]
   84fe0:	9b0d      	ldr	r3, [sp, #52]	; 0x34
   84fe2:	1c51      	adds	r1, r2, #1
   84fe4:	191c      	adds	r4, r3, r4
   84fe6:	2907      	cmp	r1, #7
   84fe8:	940d      	str	r4, [sp, #52]	; 0x34
   84fea:	910c      	str	r1, [sp, #48]	; 0x30
   84fec:	ddcb      	ble.n	84f86 <_svfprintf_r+0x736>
   84fee:	4658      	mov	r0, fp
   84ff0:	4649      	mov	r1, r9
   84ff2:	aa0b      	add	r2, sp, #44	; 0x2c
   84ff4:	f001 fe5e 	bl	86cb4 <__ssprint_r>
   84ff8:	2800      	cmp	r0, #0
   84ffa:	d0c4      	beq.n	84f86 <_svfprintf_r+0x736>
   84ffc:	e015      	b.n	8502a <_svfprintf_r+0x7da>
   84ffe:	4658      	mov	r0, fp
   85000:	4649      	mov	r1, r9
   85002:	aa0b      	add	r2, sp, #44	; 0x2c
   85004:	f001 fe56 	bl	86cb4 <__ssprint_r>
   85008:	b978      	cbnz	r0, 8502a <_svfprintf_r+0x7da>
   8500a:	2500      	movs	r5, #0
   8500c:	950c      	str	r5, [sp, #48]	; 0x30
   8500e:	f10d 0860 	add.w	r8, sp, #96	; 0x60
   85012:	e446      	b.n	848a2 <_svfprintf_r+0x52>
   85014:	00087ed6 	.word	0x00087ed6
   85018:	00087ee6 	.word	0x00087ee6
   8501c:	980d      	ldr	r0, [sp, #52]	; 0x34
   8501e:	b120      	cbz	r0, 8502a <_svfprintf_r+0x7da>
   85020:	4658      	mov	r0, fp
   85022:	4649      	mov	r1, r9
   85024:	aa0b      	add	r2, sp, #44	; 0x2c
   85026:	f001 fe45 	bl	86cb4 <__ssprint_r>
   8502a:	f8b9 200c 	ldrh.w	r2, [r9, #12]
   8502e:	9b04      	ldr	r3, [sp, #16]
   85030:	f002 0140 	and.w	r1, r2, #64	; 0x40
   85034:	b208      	sxth	r0, r1
   85036:	2800      	cmp	r0, #0
   85038:	bf18      	it	ne
   8503a:	f04f 33ff 	movne.w	r3, #4294967295
   8503e:	4618      	mov	r0, r3
   85040:	b029      	add	sp, #164	; 0xa4
   85042:	e8bd 8ff0 	ldmia.w	sp!, {r4, r5, r6, r7, r8, r9, sl, fp, pc}
   85046:	bf00      	nop

00085048 <__sprint_r>:
   85048:	6893      	ldr	r3, [r2, #8]
   8504a:	e92d 47f0 	stmdb	sp!, {r4, r5, r6, r7, r8, r9, sl, lr}
   8504e:	4681      	mov	r9, r0
   85050:	460f      	mov	r7, r1
   85052:	4614      	mov	r4, r2
   85054:	b91b      	cbnz	r3, 8505e <__sprint_r+0x16>
   85056:	6053      	str	r3, [r2, #4]
   85058:	4618      	mov	r0, r3
   8505a:	e8bd 87f0 	ldmia.w	sp!, {r4, r5, r6, r7, r8, r9, sl, pc}
   8505e:	6e4b      	ldr	r3, [r1, #100]	; 0x64
   85060:	049b      	lsls	r3, r3, #18
   85062:	d51e      	bpl.n	850a2 <__sprint_r+0x5a>
   85064:	6815      	ldr	r5, [r2, #0]
   85066:	68a0      	ldr	r0, [r4, #8]
   85068:	3508      	adds	r5, #8
   8506a:	b1c8      	cbz	r0, 850a0 <__sprint_r+0x58>
   8506c:	f855 1c04 	ldr.w	r1, [r5, #-4]
   85070:	f855 ac08 	ldr.w	sl, [r5, #-8]
   85074:	ea4f 0891 	mov.w	r8, r1, lsr #2
   85078:	2600      	movs	r6, #0
   8507a:	4546      	cmp	r6, r8
   8507c:	da09      	bge.n	85092 <__sprint_r+0x4a>
   8507e:	4648      	mov	r0, r9
   85080:	f85a 1026 	ldr.w	r1, [sl, r6, lsl #2]
   85084:	463a      	mov	r2, r7
   85086:	f000 fe43 	bl	85d10 <_fputwc_r>
   8508a:	1c43      	adds	r3, r0, #1
   8508c:	d00b      	beq.n	850a6 <__sprint_r+0x5e>
   8508e:	3601      	adds	r6, #1
   85090:	e7f3      	b.n	8507a <__sprint_r+0x32>
   85092:	68a2      	ldr	r2, [r4, #8]
   85094:	ea4f 0888 	mov.w	r8, r8, lsl #2
   85098:	ebc8 0302 	rsb	r3, r8, r2
   8509c:	60a3      	str	r3, [r4, #8]
   8509e:	e7e2      	b.n	85066 <__sprint_r+0x1e>
   850a0:	e001      	b.n	850a6 <__sprint_r+0x5e>
   850a2:	f000 ffad 	bl	86000 <__sfvwrite_r>
   850a6:	2100      	movs	r1, #0
   850a8:	60a1      	str	r1, [r4, #8]
   850aa:	6061      	str	r1, [r4, #4]
   850ac:	e8bd 87f0 	ldmia.w	sp!, {r4, r5, r6, r7, r8, r9, sl, pc}

000850b0 <_vfiprintf_r>:
   850b0:	e92d 4ff0 	stmdb	sp!, {r4, r5, r6, r7, r8, r9, sl, fp, lr}
   850b4:	4689      	mov	r9, r1
   850b6:	b0a9      	sub	sp, #164	; 0xa4
   850b8:	4614      	mov	r4, r2
   850ba:	461d      	mov	r5, r3
   850bc:	461e      	mov	r6, r3
   850be:	4682      	mov	sl, r0
   850c0:	b118      	cbz	r0, 850ca <_vfiprintf_r+0x1a>
   850c2:	6b83      	ldr	r3, [r0, #56]	; 0x38
   850c4:	b90b      	cbnz	r3, 850ca <_vfiprintf_r+0x1a>
   850c6:	f000 fda7 	bl	85c18 <__sinit>
   850ca:	f8b9 000c 	ldrh.w	r0, [r9, #12]
   850ce:	f400 5200 	and.w	r2, r0, #8192	; 0x2000
   850d2:	b211      	sxth	r1, r2
   850d4:	b949      	cbnz	r1, 850ea <_vfiprintf_r+0x3a>
   850d6:	f440 5300 	orr.w	r3, r0, #8192	; 0x2000
   850da:	f8d9 0064 	ldr.w	r0, [r9, #100]	; 0x64
   850de:	f8a9 300c 	strh.w	r3, [r9, #12]
   850e2:	f420 5200 	bic.w	r2, r0, #8192	; 0x2000
   850e6:	f8c9 2064 	str.w	r2, [r9, #100]	; 0x64
   850ea:	f8b9 100c 	ldrh.w	r1, [r9, #12]
   850ee:	f001 0308 	and.w	r3, r1, #8
   850f2:	b218      	sxth	r0, r3
   850f4:	b148      	cbz	r0, 8510a <_vfiprintf_r+0x5a>
   850f6:	f8d9 2010 	ldr.w	r2, [r9, #16]
   850fa:	b132      	cbz	r2, 8510a <_vfiprintf_r+0x5a>
   850fc:	f8b9 100c 	ldrh.w	r1, [r9, #12]
   85100:	f001 031a 	and.w	r3, r1, #26
   85104:	2b0a      	cmp	r3, #10
   85106:	d116      	bne.n	85136 <_vfiprintf_r+0x86>
   85108:	e009      	b.n	8511e <_vfiprintf_r+0x6e>
   8510a:	4650      	mov	r0, sl
   8510c:	4649      	mov	r1, r9
   8510e:	f000 fc25 	bl	8595c <__swsetup_r>
   85112:	2800      	cmp	r0, #0
   85114:	d0f2      	beq.n	850fc <_vfiprintf_r+0x4c>
   85116:	f04f 32ff 	mov.w	r2, #4294967295
   8511a:	9203      	str	r2, [sp, #12]
   8511c:	e3d3      	b.n	858c6 <_vfiprintf_r+0x816>
   8511e:	f9b9 000e 	ldrsh.w	r0, [r9, #14]
   85122:	2800      	cmp	r0, #0
   85124:	db07      	blt.n	85136 <_vfiprintf_r+0x86>
   85126:	4650      	mov	r0, sl
   85128:	4649      	mov	r1, r9
   8512a:	4622      	mov	r2, r4
   8512c:	462b      	mov	r3, r5
   8512e:	f000 fbce 	bl	858ce <__sbprintf>
   85132:	9003      	str	r0, [sp, #12]
   85134:	e3c7      	b.n	858c6 <_vfiprintf_r+0x816>
   85136:	2200      	movs	r2, #0
   85138:	ad18      	add	r5, sp, #96	; 0x60
   8513a:	950b      	str	r5, [sp, #44]	; 0x2c
   8513c:	920d      	str	r2, [sp, #52]	; 0x34
   8513e:	920c      	str	r2, [sp, #48]	; 0x30
   85140:	9401      	str	r4, [sp, #4]
   85142:	9205      	str	r2, [sp, #20]
   85144:	9203      	str	r2, [sp, #12]
   85146:	46a8      	mov	r8, r5
   85148:	9901      	ldr	r1, [sp, #4]
   8514a:	460c      	mov	r4, r1
   8514c:	f811 3b01 	ldrb.w	r3, [r1], #1
   85150:	b10b      	cbz	r3, 85156 <_vfiprintf_r+0xa6>
   85152:	2b25      	cmp	r3, #37	; 0x25
   85154:	d1f9      	bne.n	8514a <_vfiprintf_r+0x9a>
   85156:	9a01      	ldr	r2, [sp, #4]
   85158:	1aa5      	subs	r5, r4, r2
   8515a:	d019      	beq.n	85190 <_vfiprintf_r+0xe0>
   8515c:	990c      	ldr	r1, [sp, #48]	; 0x30
   8515e:	980d      	ldr	r0, [sp, #52]	; 0x34
   85160:	1c4b      	adds	r3, r1, #1
   85162:	e888 0024 	stmia.w	r8, {r2, r5}
   85166:	2b07      	cmp	r3, #7
   85168:	eb00 0205 	add.w	r2, r0, r5
   8516c:	920d      	str	r2, [sp, #52]	; 0x34
   8516e:	f108 0808 	add.w	r8, r8, #8
   85172:	930c      	str	r3, [sp, #48]	; 0x30
   85174:	dd09      	ble.n	8518a <_vfiprintf_r+0xda>
   85176:	4650      	mov	r0, sl
   85178:	4649      	mov	r1, r9
   8517a:	aa0b      	add	r2, sp, #44	; 0x2c
   8517c:	f7ff ff64 	bl	85048 <__sprint_r>
   85180:	2800      	cmp	r0, #0
   85182:	f040 8398 	bne.w	858b6 <_vfiprintf_r+0x806>
   85186:	f10d 0860 	add.w	r8, sp, #96	; 0x60
   8518a:	9803      	ldr	r0, [sp, #12]
   8518c:	1942      	adds	r2, r0, r5
   8518e:	9203      	str	r2, [sp, #12]
   85190:	7821      	ldrb	r1, [r4, #0]
   85192:	2900      	cmp	r1, #0
   85194:	f000 8388 	beq.w	858a8 <_vfiprintf_r+0x7f8>
   85198:	2200      	movs	r2, #0
   8519a:	3401      	adds	r4, #1
   8519c:	9401      	str	r4, [sp, #4]
   8519e:	f88d 2027 	strb.w	r2, [sp, #39]	; 0x27
   851a2:	f04f 3cff 	mov.w	ip, #4294967295
   851a6:	9204      	str	r2, [sp, #16]
   851a8:	4617      	mov	r7, r2
   851aa:	9801      	ldr	r0, [sp, #4]
   851ac:	f810 3b01 	ldrb.w	r3, [r0], #1
   851b0:	9001      	str	r0, [sp, #4]
   851b2:	2b63      	cmp	r3, #99	; 0x63
   851b4:	f000 80b3 	beq.w	8531e <_vfiprintf_r+0x26e>
   851b8:	dc33      	bgt.n	85222 <_vfiprintf_r+0x172>
   851ba:	2b39      	cmp	r3, #57	; 0x39
   851bc:	dc1a      	bgt.n	851f4 <_vfiprintf_r+0x144>
   851be:	2b31      	cmp	r3, #49	; 0x31
   851c0:	f280 8091 	bge.w	852e6 <_vfiprintf_r+0x236>
   851c4:	2b2b      	cmp	r3, #43	; 0x2b
   851c6:	d101      	bne.n	851cc <_vfiprintf_r+0x11c>
   851c8:	461a      	mov	r2, r3
   851ca:	e7ee      	b.n	851aa <_vfiprintf_r+0xfa>
   851cc:	dc0a      	bgt.n	851e4 <_vfiprintf_r+0x134>
   851ce:	2b23      	cmp	r3, #35	; 0x23
   851d0:	d055      	beq.n	8527e <_vfiprintf_r+0x1ce>
   851d2:	2b2a      	cmp	r3, #42	; 0x2a
   851d4:	d056      	beq.n	85284 <_vfiprintf_r+0x1d4>
   851d6:	2b20      	cmp	r3, #32
   851d8:	f040 81f5 	bne.w	855c6 <_vfiprintf_r+0x516>
   851dc:	2a00      	cmp	r2, #0
   851de:	bf08      	it	eq
   851e0:	2220      	moveq	r2, #32
   851e2:	e7e2      	b.n	851aa <_vfiprintf_r+0xfa>
   851e4:	2b2e      	cmp	r3, #46	; 0x2e
   851e6:	d058      	beq.n	8529a <_vfiprintf_r+0x1ea>
   851e8:	2b30      	cmp	r3, #48	; 0x30
   851ea:	d079      	beq.n	852e0 <_vfiprintf_r+0x230>
   851ec:	2b2d      	cmp	r3, #45	; 0x2d
   851ee:	f040 81ea 	bne.w	855c6 <_vfiprintf_r+0x516>
   851f2:	e04f      	b.n	85294 <_vfiprintf_r+0x1e4>
   851f4:	2b4f      	cmp	r3, #79	; 0x4f
   851f6:	f000 80de 	beq.w	853b6 <_vfiprintf_r+0x306>
   851fa:	dc07      	bgt.n	8520c <_vfiprintf_r+0x15c>
   851fc:	2b44      	cmp	r3, #68	; 0x44
   851fe:	f040 81e2 	bne.w	855c6 <_vfiprintf_r+0x516>
   85202:	f88d 2027 	strb.w	r2, [sp, #39]	; 0x27
   85206:	f047 0710 	orr.w	r7, r7, #16
   8520a:	e090      	b.n	8532e <_vfiprintf_r+0x27e>
   8520c:	2b55      	cmp	r3, #85	; 0x55
   8520e:	f000 811f 	beq.w	85450 <_vfiprintf_r+0x3a0>
   85212:	2b58      	cmp	r3, #88	; 0x58
   85214:	f040 81d7 	bne.w	855c6 <_vfiprintf_r+0x516>
   85218:	4dae      	ldr	r5, [pc, #696]	; (854d4 <_vfiprintf_r+0x424>)
   8521a:	f88d 2027 	strb.w	r2, [sp, #39]	; 0x27
   8521e:	9505      	str	r5, [sp, #20]
   85220:	e130      	b.n	85484 <_vfiprintf_r+0x3d4>
   85222:	2b6f      	cmp	r3, #111	; 0x6f
   85224:	f000 80c9 	beq.w	853ba <_vfiprintf_r+0x30a>
   85228:	dc10      	bgt.n	8524c <_vfiprintf_r+0x19c>
   8522a:	2b69      	cmp	r3, #105	; 0x69
   8522c:	d024      	beq.n	85278 <_vfiprintf_r+0x1c8>
   8522e:	dc07      	bgt.n	85240 <_vfiprintf_r+0x190>
   85230:	2b64      	cmp	r3, #100	; 0x64
   85232:	d021      	beq.n	85278 <_vfiprintf_r+0x1c8>
   85234:	2b68      	cmp	r3, #104	; 0x68
   85236:	f040 81c6 	bne.w	855c6 <_vfiprintf_r+0x516>
   8523a:	f047 0740 	orr.w	r7, r7, #64	; 0x40
   8523e:	e7b4      	b.n	851aa <_vfiprintf_r+0xfa>
   85240:	2b6c      	cmp	r3, #108	; 0x6c
   85242:	d05f      	beq.n	85304 <_vfiprintf_r+0x254>
   85244:	2b6e      	cmp	r3, #110	; 0x6e
   85246:	f040 81be 	bne.w	855c6 <_vfiprintf_r+0x516>
   8524a:	e096      	b.n	8537a <_vfiprintf_r+0x2ca>
   8524c:	2b73      	cmp	r3, #115	; 0x73
   8524e:	f000 80df 	beq.w	85410 <_vfiprintf_r+0x360>
   85252:	dc06      	bgt.n	85262 <_vfiprintf_r+0x1b2>
   85254:	2b70      	cmp	r3, #112	; 0x70
   85256:	f000 80cd 	beq.w	853f4 <_vfiprintf_r+0x344>
   8525a:	2b71      	cmp	r3, #113	; 0x71
   8525c:	f040 81b3 	bne.w	855c6 <_vfiprintf_r+0x516>
   85260:	e05a      	b.n	85318 <_vfiprintf_r+0x268>
   85262:	2b75      	cmp	r3, #117	; 0x75
   85264:	f000 80f6 	beq.w	85454 <_vfiprintf_r+0x3a4>
   85268:	2b78      	cmp	r3, #120	; 0x78
   8526a:	f040 81ac 	bne.w	855c6 <_vfiprintf_r+0x516>
   8526e:	4d9a      	ldr	r5, [pc, #616]	; (854d8 <_vfiprintf_r+0x428>)
   85270:	f88d 2027 	strb.w	r2, [sp, #39]	; 0x27
   85274:	9505      	str	r5, [sp, #20]
   85276:	e105      	b.n	85484 <_vfiprintf_r+0x3d4>
   85278:	f88d 2027 	strb.w	r2, [sp, #39]	; 0x27
   8527c:	e057      	b.n	8532e <_vfiprintf_r+0x27e>
   8527e:	f047 0701 	orr.w	r7, r7, #1
   85282:	e792      	b.n	851aa <_vfiprintf_r+0xfa>
   85284:	1d33      	adds	r3, r6, #4
   85286:	6836      	ldr	r6, [r6, #0]
   85288:	2e00      	cmp	r6, #0
   8528a:	9604      	str	r6, [sp, #16]
   8528c:	da15      	bge.n	852ba <_vfiprintf_r+0x20a>
   8528e:	4270      	negs	r0, r6
   85290:	9004      	str	r0, [sp, #16]
   85292:	461e      	mov	r6, r3
   85294:	f047 0704 	orr.w	r7, r7, #4
   85298:	e787      	b.n	851aa <_vfiprintf_r+0xfa>
   8529a:	9901      	ldr	r1, [sp, #4]
   8529c:	f811 3b01 	ldrb.w	r3, [r1], #1
   852a0:	2b2a      	cmp	r3, #42	; 0x2a
   852a2:	9101      	str	r1, [sp, #4]
   852a4:	d10b      	bne.n	852be <_vfiprintf_r+0x20e>
   852a6:	f8d6 c000 	ldr.w	ip, [r6]
   852aa:	1d33      	adds	r3, r6, #4
   852ac:	f1bc 0f00 	cmp.w	ip, #0
   852b0:	da03      	bge.n	852ba <_vfiprintf_r+0x20a>
   852b2:	461e      	mov	r6, r3
   852b4:	f04f 3cff 	mov.w	ip, #4294967295
   852b8:	e777      	b.n	851aa <_vfiprintf_r+0xfa>
   852ba:	461e      	mov	r6, r3
   852bc:	e775      	b.n	851aa <_vfiprintf_r+0xfa>
   852be:	f04f 0c00 	mov.w	ip, #0
   852c2:	f1a3 0030 	sub.w	r0, r3, #48	; 0x30
   852c6:	2809      	cmp	r0, #9
   852c8:	d807      	bhi.n	852da <_vfiprintf_r+0x22a>
   852ca:	9901      	ldr	r1, [sp, #4]
   852cc:	230a      	movs	r3, #10
   852ce:	fb03 0c0c 	mla	ip, r3, ip, r0
   852d2:	f811 3b01 	ldrb.w	r3, [r1], #1
   852d6:	9101      	str	r1, [sp, #4]
   852d8:	e7f3      	b.n	852c2 <_vfiprintf_r+0x212>
   852da:	ea4c 7cec 	orr.w	ip, ip, ip, asr #31
   852de:	e768      	b.n	851b2 <_vfiprintf_r+0x102>
   852e0:	f047 0780 	orr.w	r7, r7, #128	; 0x80
   852e4:	e761      	b.n	851aa <_vfiprintf_r+0xfa>
   852e6:	9801      	ldr	r0, [sp, #4]
   852e8:	2100      	movs	r1, #0
   852ea:	3b30      	subs	r3, #48	; 0x30
   852ec:	240a      	movs	r4, #10
   852ee:	fb04 3101 	mla	r1, r4, r1, r3
   852f2:	f810 3b01 	ldrb.w	r3, [r0], #1
   852f6:	f1a3 0430 	sub.w	r4, r3, #48	; 0x30
   852fa:	2c09      	cmp	r4, #9
   852fc:	9001      	str	r0, [sp, #4]
   852fe:	d9f4      	bls.n	852ea <_vfiprintf_r+0x23a>
   85300:	9104      	str	r1, [sp, #16]
   85302:	e756      	b.n	851b2 <_vfiprintf_r+0x102>
   85304:	9901      	ldr	r1, [sp, #4]
   85306:	780b      	ldrb	r3, [r1, #0]
   85308:	2b6c      	cmp	r3, #108	; 0x6c
   8530a:	d102      	bne.n	85312 <_vfiprintf_r+0x262>
   8530c:	1c48      	adds	r0, r1, #1
   8530e:	9001      	str	r0, [sp, #4]
   85310:	e002      	b.n	85318 <_vfiprintf_r+0x268>
   85312:	f047 0710 	orr.w	r7, r7, #16
   85316:	e748      	b.n	851aa <_vfiprintf_r+0xfa>
   85318:	f047 0720 	orr.w	r7, r7, #32
   8531c:	e745      	b.n	851aa <_vfiprintf_r+0xfa>
   8531e:	6832      	ldr	r2, [r6, #0]
   85320:	2500      	movs	r5, #0
   85322:	f88d 2038 	strb.w	r2, [sp, #56]	; 0x38
   85326:	f88d 5027 	strb.w	r5, [sp, #39]	; 0x27
   8532a:	3604      	adds	r6, #4
   8532c:	e155      	b.n	855da <_vfiprintf_r+0x52a>
   8532e:	06ba      	lsls	r2, r7, #26
   85330:	d507      	bpl.n	85342 <_vfiprintf_r+0x292>
   85332:	3607      	adds	r6, #7
   85334:	f026 0507 	bic.w	r5, r6, #7
   85338:	f105 0608 	add.w	r6, r5, #8
   8533c:	e9d5 4500 	ldrd	r4, r5, [r5]
   85340:	e00f      	b.n	85362 <_vfiprintf_r+0x2b2>
   85342:	f017 0f10 	tst.w	r7, #16
   85346:	f106 0104 	add.w	r1, r6, #4
   8534a:	d001      	beq.n	85350 <_vfiprintf_r+0x2a0>
   8534c:	6832      	ldr	r2, [r6, #0]
   8534e:	e005      	b.n	8535c <_vfiprintf_r+0x2ac>
   85350:	f017 0f40 	tst.w	r7, #64	; 0x40
   85354:	6832      	ldr	r2, [r6, #0]
   85356:	d001      	beq.n	8535c <_vfiprintf_r+0x2ac>
   85358:	b214      	sxth	r4, r2
   8535a:	e000      	b.n	8535e <_vfiprintf_r+0x2ae>
   8535c:	4614      	mov	r4, r2
   8535e:	17e5      	asrs	r5, r4, #31
   85360:	460e      	mov	r6, r1
   85362:	2c00      	cmp	r4, #0
   85364:	f175 0200 	sbcs.w	r2, r5, #0
   85368:	f280 80b8 	bge.w	854dc <_vfiprintf_r+0x42c>
   8536c:	232d      	movs	r3, #45	; 0x2d
   8536e:	4264      	negs	r4, r4
   85370:	eb65 0545 	sbc.w	r5, r5, r5, lsl #1
   85374:	f88d 3027 	strb.w	r3, [sp, #39]	; 0x27
   85378:	e0b0      	b.n	854dc <_vfiprintf_r+0x42c>
   8537a:	f017 0f20 	tst.w	r7, #32
   8537e:	f88d 2027 	strb.w	r2, [sp, #39]	; 0x27
   85382:	f106 0204 	add.w	r2, r6, #4
   85386:	d005      	beq.n	85394 <_vfiprintf_r+0x2e4>
   85388:	9c03      	ldr	r4, [sp, #12]
   8538a:	6835      	ldr	r5, [r6, #0]
   8538c:	17e0      	asrs	r0, r4, #31
   8538e:	602c      	str	r4, [r5, #0]
   85390:	6068      	str	r0, [r5, #4]
   85392:	e004      	b.n	8539e <_vfiprintf_r+0x2ee>
   85394:	06fb      	lsls	r3, r7, #27
   85396:	d504      	bpl.n	853a2 <_vfiprintf_r+0x2f2>
   85398:	6833      	ldr	r3, [r6, #0]
   8539a:	9903      	ldr	r1, [sp, #12]
   8539c:	6019      	str	r1, [r3, #0]
   8539e:	4616      	mov	r6, r2
   853a0:	e6d2      	b.n	85148 <_vfiprintf_r+0x98>
   853a2:	6830      	ldr	r0, [r6, #0]
   853a4:	9c03      	ldr	r4, [sp, #12]
   853a6:	f017 0f40 	tst.w	r7, #64	; 0x40
   853aa:	f106 0604 	add.w	r6, r6, #4
   853ae:	bf14      	ite	ne
   853b0:	8004      	strhne	r4, [r0, #0]
   853b2:	6004      	streq	r4, [r0, #0]
   853b4:	e6c8      	b.n	85148 <_vfiprintf_r+0x98>
   853b6:	f047 0710 	orr.w	r7, r7, #16
   853ba:	f017 0020 	ands.w	r0, r7, #32
   853be:	d008      	beq.n	853d2 <_vfiprintf_r+0x322>
   853c0:	1df3      	adds	r3, r6, #7
   853c2:	f023 0507 	bic.w	r5, r3, #7
   853c6:	f105 0608 	add.w	r6, r5, #8
   853ca:	e9d5 4500 	ldrd	r4, r5, [r5]
   853ce:	2000      	movs	r0, #0
   853d0:	e07c      	b.n	854cc <_vfiprintf_r+0x41c>
   853d2:	f017 0110 	ands.w	r1, r7, #16
   853d6:	f106 0204 	add.w	r2, r6, #4
   853da:	d106      	bne.n	853ea <_vfiprintf_r+0x33a>
   853dc:	f017 0040 	ands.w	r0, r7, #64	; 0x40
   853e0:	d003      	beq.n	853ea <_vfiprintf_r+0x33a>
   853e2:	8834      	ldrh	r4, [r6, #0]
   853e4:	2500      	movs	r5, #0
   853e6:	4616      	mov	r6, r2
   853e8:	e7f1      	b.n	853ce <_vfiprintf_r+0x31e>
   853ea:	6836      	ldr	r6, [r6, #0]
   853ec:	2500      	movs	r5, #0
   853ee:	4634      	mov	r4, r6
   853f0:	4616      	mov	r6, r2
   853f2:	e06b      	b.n	854cc <_vfiprintf_r+0x41c>
   853f4:	4b38      	ldr	r3, [pc, #224]	; (854d8 <_vfiprintf_r+0x428>)
   853f6:	2130      	movs	r1, #48	; 0x30
   853f8:	2278      	movs	r2, #120	; 0x78
   853fa:	6834      	ldr	r4, [r6, #0]
   853fc:	2500      	movs	r5, #0
   853fe:	f047 0702 	orr.w	r7, r7, #2
   85402:	f88d 1028 	strb.w	r1, [sp, #40]	; 0x28
   85406:	f88d 2029 	strb.w	r2, [sp, #41]	; 0x29
   8540a:	3604      	adds	r6, #4
   8540c:	9305      	str	r3, [sp, #20]
   8540e:	e05c      	b.n	854ca <_vfiprintf_r+0x41a>
   85410:	4631      	mov	r1, r6
   85412:	2500      	movs	r5, #0
   85414:	f8d1 b000 	ldr.w	fp, [r1]
   85418:	3604      	adds	r6, #4
   8541a:	45ac      	cmp	ip, r5
   8541c:	f88d 5027 	strb.w	r5, [sp, #39]	; 0x27
   85420:	4658      	mov	r0, fp
   85422:	db11      	blt.n	85448 <_vfiprintf_r+0x398>
   85424:	4662      	mov	r2, ip
   85426:	4629      	mov	r1, r5
   85428:	f8cd c000 	str.w	ip, [sp]
   8542c:	f001 fa48 	bl	868c0 <memchr>
   85430:	f8dd c000 	ldr.w	ip, [sp]
   85434:	2800      	cmp	r0, #0
   85436:	f000 80d4 	beq.w	855e2 <_vfiprintf_r+0x532>
   8543a:	ebcb 0400 	rsb	r4, fp, r0
   8543e:	4564      	cmp	r4, ip
   85440:	f340 80d1 	ble.w	855e6 <_vfiprintf_r+0x536>
   85444:	4664      	mov	r4, ip
   85446:	e0ce      	b.n	855e6 <_vfiprintf_r+0x536>
   85448:	f7ff f9e4 	bl	84814 <strlen>
   8544c:	4604      	mov	r4, r0
   8544e:	e0ca      	b.n	855e6 <_vfiprintf_r+0x536>
   85450:	f047 0710 	orr.w	r7, r7, #16
   85454:	06bd      	lsls	r5, r7, #26
   85456:	d506      	bpl.n	85466 <_vfiprintf_r+0x3b6>
   85458:	1df0      	adds	r0, r6, #7
   8545a:	f020 0407 	bic.w	r4, r0, #7
   8545e:	f104 0608 	add.w	r6, r4, #8
   85462:	cc30      	ldmia	r4, {r4, r5}
   85464:	e00c      	b.n	85480 <_vfiprintf_r+0x3d0>
   85466:	f017 0f10 	tst.w	r7, #16
   8546a:	f106 0304 	add.w	r3, r6, #4
   8546e:	d103      	bne.n	85478 <_vfiprintf_r+0x3c8>
   85470:	067c      	lsls	r4, r7, #25
   85472:	d501      	bpl.n	85478 <_vfiprintf_r+0x3c8>
   85474:	8834      	ldrh	r4, [r6, #0]
   85476:	e001      	b.n	8547c <_vfiprintf_r+0x3cc>
   85478:	6835      	ldr	r5, [r6, #0]
   8547a:	462c      	mov	r4, r5
   8547c:	2500      	movs	r5, #0
   8547e:	461e      	mov	r6, r3
   85480:	2001      	movs	r0, #1
   85482:	e023      	b.n	854cc <_vfiprintf_r+0x41c>
   85484:	06b8      	lsls	r0, r7, #26
   85486:	d507      	bpl.n	85498 <_vfiprintf_r+0x3e8>
   85488:	1df4      	adds	r4, r6, #7
   8548a:	f024 0107 	bic.w	r1, r4, #7
   8548e:	f101 0608 	add.w	r6, r1, #8
   85492:	e9d1 4500 	ldrd	r4, r5, [r1]
   85496:	e00c      	b.n	854b2 <_vfiprintf_r+0x402>
   85498:	f017 0f10 	tst.w	r7, #16
   8549c:	f106 0004 	add.w	r0, r6, #4
   854a0:	d103      	bne.n	854aa <_vfiprintf_r+0x3fa>
   854a2:	0679      	lsls	r1, r7, #25
   854a4:	d501      	bpl.n	854aa <_vfiprintf_r+0x3fa>
   854a6:	8834      	ldrh	r4, [r6, #0]
   854a8:	e001      	b.n	854ae <_vfiprintf_r+0x3fe>
   854aa:	6836      	ldr	r6, [r6, #0]
   854ac:	4634      	mov	r4, r6
   854ae:	2500      	movs	r5, #0
   854b0:	4606      	mov	r6, r0
   854b2:	07fa      	lsls	r2, r7, #31
   854b4:	d509      	bpl.n	854ca <_vfiprintf_r+0x41a>
   854b6:	ea54 0205 	orrs.w	r2, r4, r5
   854ba:	d006      	beq.n	854ca <_vfiprintf_r+0x41a>
   854bc:	2230      	movs	r2, #48	; 0x30
   854be:	f88d 2028 	strb.w	r2, [sp, #40]	; 0x28
   854c2:	f88d 3029 	strb.w	r3, [sp, #41]	; 0x29
   854c6:	f047 0702 	orr.w	r7, r7, #2
   854ca:	2002      	movs	r0, #2
   854cc:	2100      	movs	r1, #0
   854ce:	f88d 1027 	strb.w	r1, [sp, #39]	; 0x27
   854d2:	e004      	b.n	854de <_vfiprintf_r+0x42e>
   854d4:	00087ef6 	.word	0x00087ef6
   854d8:	00087f07 	.word	0x00087f07
   854dc:	2001      	movs	r0, #1
   854de:	f1bc 0f00 	cmp.w	ip, #0
   854e2:	bfa8      	it	ge
   854e4:	f027 0780 	bicge.w	r7, r7, #128	; 0x80
   854e8:	ea54 0105 	orrs.w	r1, r4, r5
   854ec:	d102      	bne.n	854f4 <_vfiprintf_r+0x444>
   854ee:	f1bc 0f00 	cmp.w	ip, #0
   854f2:	d058      	beq.n	855a6 <_vfiprintf_r+0x4f6>
   854f4:	2801      	cmp	r0, #1
   854f6:	d01d      	beq.n	85534 <_vfiprintf_r+0x484>
   854f8:	2802      	cmp	r0, #2
   854fa:	f10d 035f 	add.w	r3, sp, #95	; 0x5f
   854fe:	d041      	beq.n	85584 <_vfiprintf_r+0x4d4>
   85500:	f004 0207 	and.w	r2, r4, #7
   85504:	08e4      	lsrs	r4, r4, #3
   85506:	ea44 7045 	orr.w	r0, r4, r5, lsl #29
   8550a:	08e9      	lsrs	r1, r5, #3
   8550c:	4604      	mov	r4, r0
   8550e:	460d      	mov	r5, r1
   85510:	3230      	adds	r2, #48	; 0x30
   85512:	ea54 0105 	orrs.w	r1, r4, r5
   85516:	469b      	mov	fp, r3
   85518:	701a      	strb	r2, [r3, #0]
   8551a:	f103 33ff 	add.w	r3, r3, #4294967295
   8551e:	d1ef      	bne.n	85500 <_vfiprintf_r+0x450>
   85520:	07f8      	lsls	r0, r7, #31
   85522:	465d      	mov	r5, fp
   85524:	d54a      	bpl.n	855bc <_vfiprintf_r+0x50c>
   85526:	2a30      	cmp	r2, #48	; 0x30
   85528:	d048      	beq.n	855bc <_vfiprintf_r+0x50c>
   8552a:	2230      	movs	r2, #48	; 0x30
   8552c:	469b      	mov	fp, r3
   8552e:	f805 2c01 	strb.w	r2, [r5, #-1]
   85532:	e043      	b.n	855bc <_vfiprintf_r+0x50c>
   85534:	2d00      	cmp	r5, #0
   85536:	bf08      	it	eq
   85538:	2c0a      	cmpeq	r4, #10
   8553a:	d203      	bcs.n	85544 <_vfiprintf_r+0x494>
   8553c:	3430      	adds	r4, #48	; 0x30
   8553e:	f88d 405f 	strb.w	r4, [sp, #95]	; 0x5f
   85542:	e036      	b.n	855b2 <_vfiprintf_r+0x502>
   85544:	f10d 035f 	add.w	r3, sp, #95	; 0x5f
   85548:	9302      	str	r3, [sp, #8]
   8554a:	4620      	mov	r0, r4
   8554c:	4629      	mov	r1, r5
   8554e:	220a      	movs	r2, #10
   85550:	2300      	movs	r3, #0
   85552:	f8cd c000 	str.w	ip, [sp]
   85556:	f002 f989 	bl	8786c <__aeabi_uldivmod>
   8555a:	9802      	ldr	r0, [sp, #8]
   8555c:	3230      	adds	r2, #48	; 0x30
   8555e:	f800 2901 	strb.w	r2, [r0], #-1
   85562:	4629      	mov	r1, r5
   85564:	220a      	movs	r2, #10
   85566:	2300      	movs	r3, #0
   85568:	f8dd b008 	ldr.w	fp, [sp, #8]
   8556c:	9002      	str	r0, [sp, #8]
   8556e:	4620      	mov	r0, r4
   85570:	f002 f97c 	bl	8786c <__aeabi_uldivmod>
   85574:	4604      	mov	r4, r0
   85576:	460d      	mov	r5, r1
   85578:	ea54 0105 	orrs.w	r1, r4, r5
   8557c:	f8dd c000 	ldr.w	ip, [sp]
   85580:	d1e3      	bne.n	8554a <_vfiprintf_r+0x49a>
   85582:	e01b      	b.n	855bc <_vfiprintf_r+0x50c>
   85584:	9905      	ldr	r1, [sp, #20]
   85586:	f004 000f 	and.w	r0, r4, #15
   8558a:	0924      	lsrs	r4, r4, #4
   8558c:	5c0a      	ldrb	r2, [r1, r0]
   8558e:	ea44 7005 	orr.w	r0, r4, r5, lsl #28
   85592:	0929      	lsrs	r1, r5, #4
   85594:	4604      	mov	r4, r0
   85596:	460d      	mov	r5, r1
   85598:	469b      	mov	fp, r3
   8559a:	f803 2901 	strb.w	r2, [r3], #-1
   8559e:	ea54 0205 	orrs.w	r2, r4, r5
   855a2:	d1ef      	bne.n	85584 <_vfiprintf_r+0x4d4>
   855a4:	e00a      	b.n	855bc <_vfiprintf_r+0x50c>
   855a6:	b938      	cbnz	r0, 855b8 <_vfiprintf_r+0x508>
   855a8:	07f9      	lsls	r1, r7, #31
   855aa:	d505      	bpl.n	855b8 <_vfiprintf_r+0x508>
   855ac:	2030      	movs	r0, #48	; 0x30
   855ae:	f88d 005f 	strb.w	r0, [sp, #95]	; 0x5f
   855b2:	f10d 0b5f 	add.w	fp, sp, #95	; 0x5f
   855b6:	e001      	b.n	855bc <_vfiprintf_r+0x50c>
   855b8:	f10d 0b60 	add.w	fp, sp, #96	; 0x60
   855bc:	ad18      	add	r5, sp, #96	; 0x60
   855be:	ebcb 0405 	rsb	r4, fp, r5
   855c2:	4665      	mov	r5, ip
   855c4:	e00f      	b.n	855e6 <_vfiprintf_r+0x536>
   855c6:	f88d 2027 	strb.w	r2, [sp, #39]	; 0x27
   855ca:	2b00      	cmp	r3, #0
   855cc:	f000 816c 	beq.w	858a8 <_vfiprintf_r+0x7f8>
   855d0:	2500      	movs	r5, #0
   855d2:	f88d 3038 	strb.w	r3, [sp, #56]	; 0x38
   855d6:	f88d 5027 	strb.w	r5, [sp, #39]	; 0x27
   855da:	2401      	movs	r4, #1
   855dc:	f10d 0b38 	add.w	fp, sp, #56	; 0x38
   855e0:	e001      	b.n	855e6 <_vfiprintf_r+0x536>
   855e2:	4664      	mov	r4, ip
   855e4:	4605      	mov	r5, r0
   855e6:	f89d 3027 	ldrb.w	r3, [sp, #39]	; 0x27
   855ea:	42ac      	cmp	r4, r5
   855ec:	bfac      	ite	ge
   855ee:	4621      	movge	r1, r4
   855f0:	4629      	movlt	r1, r5
   855f2:	9102      	str	r1, [sp, #8]
   855f4:	b113      	cbz	r3, 855fc <_vfiprintf_r+0x54c>
   855f6:	9802      	ldr	r0, [sp, #8]
   855f8:	1c42      	adds	r2, r0, #1
   855fa:	9202      	str	r2, [sp, #8]
   855fc:	f017 0102 	ands.w	r1, r7, #2
   85600:	9106      	str	r1, [sp, #24]
   85602:	d002      	beq.n	8560a <_vfiprintf_r+0x55a>
   85604:	9b02      	ldr	r3, [sp, #8]
   85606:	1c98      	adds	r0, r3, #2
   85608:	9002      	str	r0, [sp, #8]
   8560a:	f017 0284 	ands.w	r2, r7, #132	; 0x84
   8560e:	9207      	str	r2, [sp, #28]
   85610:	d13a      	bne.n	85688 <_vfiprintf_r+0x5d8>
   85612:	9904      	ldr	r1, [sp, #16]
   85614:	9b02      	ldr	r3, [sp, #8]
   85616:	1acb      	subs	r3, r1, r3
   85618:	2b00      	cmp	r3, #0
   8561a:	dd35      	ble.n	85688 <_vfiprintf_r+0x5d8>
   8561c:	48a0      	ldr	r0, [pc, #640]	; (858a0 <_vfiprintf_r+0x7f0>)
   8561e:	2b10      	cmp	r3, #16
   85620:	f8c8 0000 	str.w	r0, [r8]
   85624:	dd1a      	ble.n	8565c <_vfiprintf_r+0x5ac>
   85626:	990c      	ldr	r1, [sp, #48]	; 0x30
   85628:	2010      	movs	r0, #16
   8562a:	9a0d      	ldr	r2, [sp, #52]	; 0x34
   8562c:	f8c8 0004 	str.w	r0, [r8, #4]
   85630:	1c48      	adds	r0, r1, #1
   85632:	3210      	adds	r2, #16
   85634:	2807      	cmp	r0, #7
   85636:	920d      	str	r2, [sp, #52]	; 0x34
   85638:	f108 0808 	add.w	r8, r8, #8
   8563c:	900c      	str	r0, [sp, #48]	; 0x30
   8563e:	dd0b      	ble.n	85658 <_vfiprintf_r+0x5a8>
   85640:	4650      	mov	r0, sl
   85642:	4649      	mov	r1, r9
   85644:	aa0b      	add	r2, sp, #44	; 0x2c
   85646:	9300      	str	r3, [sp, #0]
   85648:	f7ff fcfe 	bl	85048 <__sprint_r>
   8564c:	9b00      	ldr	r3, [sp, #0]
   8564e:	2800      	cmp	r0, #0
   85650:	f040 8131 	bne.w	858b6 <_vfiprintf_r+0x806>
   85654:	f10d 0860 	add.w	r8, sp, #96	; 0x60
   85658:	3b10      	subs	r3, #16
   8565a:	e7df      	b.n	8561c <_vfiprintf_r+0x56c>
   8565c:	9a0d      	ldr	r2, [sp, #52]	; 0x34
   8565e:	f8c8 3004 	str.w	r3, [r8, #4]
   85662:	18d1      	adds	r1, r2, r3
   85664:	9b0c      	ldr	r3, [sp, #48]	; 0x30
   85666:	910d      	str	r1, [sp, #52]	; 0x34
   85668:	1c58      	adds	r0, r3, #1
   8566a:	2807      	cmp	r0, #7
   8566c:	f108 0808 	add.w	r8, r8, #8
   85670:	900c      	str	r0, [sp, #48]	; 0x30
   85672:	dd09      	ble.n	85688 <_vfiprintf_r+0x5d8>
   85674:	4650      	mov	r0, sl
   85676:	4649      	mov	r1, r9
   85678:	aa0b      	add	r2, sp, #44	; 0x2c
   8567a:	f7ff fce5 	bl	85048 <__sprint_r>
   8567e:	2800      	cmp	r0, #0
   85680:	f040 8119 	bne.w	858b6 <_vfiprintf_r+0x806>
   85684:	f10d 0860 	add.w	r8, sp, #96	; 0x60
   85688:	f89d 2027 	ldrb.w	r2, [sp, #39]	; 0x27
   8568c:	b1d2      	cbz	r2, 856c4 <_vfiprintf_r+0x614>
   8568e:	f10d 0127 	add.w	r1, sp, #39	; 0x27
   85692:	f8c8 1000 	str.w	r1, [r8]
   85696:	990c      	ldr	r1, [sp, #48]	; 0x30
   85698:	2301      	movs	r3, #1
   8569a:	980d      	ldr	r0, [sp, #52]	; 0x34
   8569c:	f8c8 3004 	str.w	r3, [r8, #4]
   856a0:	1c4b      	adds	r3, r1, #1
   856a2:	1c42      	adds	r2, r0, #1
   856a4:	2b07      	cmp	r3, #7
   856a6:	920d      	str	r2, [sp, #52]	; 0x34
   856a8:	f108 0808 	add.w	r8, r8, #8
   856ac:	930c      	str	r3, [sp, #48]	; 0x30
   856ae:	dd09      	ble.n	856c4 <_vfiprintf_r+0x614>
   856b0:	4650      	mov	r0, sl
   856b2:	4649      	mov	r1, r9
   856b4:	aa0b      	add	r2, sp, #44	; 0x2c
   856b6:	f7ff fcc7 	bl	85048 <__sprint_r>
   856ba:	2800      	cmp	r0, #0
   856bc:	f040 80fb 	bne.w	858b6 <_vfiprintf_r+0x806>
   856c0:	f10d 0860 	add.w	r8, sp, #96	; 0x60
   856c4:	9806      	ldr	r0, [sp, #24]
   856c6:	b1c8      	cbz	r0, 856fc <_vfiprintf_r+0x64c>
   856c8:	aa0a      	add	r2, sp, #40	; 0x28
   856ca:	f8c8 2000 	str.w	r2, [r8]
   856ce:	9a0c      	ldr	r2, [sp, #48]	; 0x30
   856d0:	2102      	movs	r1, #2
   856d2:	9b0d      	ldr	r3, [sp, #52]	; 0x34
   856d4:	f8c8 1004 	str.w	r1, [r8, #4]
   856d8:	1c51      	adds	r1, r2, #1
   856da:	1c98      	adds	r0, r3, #2
   856dc:	2907      	cmp	r1, #7
   856de:	900d      	str	r0, [sp, #52]	; 0x34
   856e0:	f108 0808 	add.w	r8, r8, #8
   856e4:	910c      	str	r1, [sp, #48]	; 0x30
   856e6:	dd09      	ble.n	856fc <_vfiprintf_r+0x64c>
   856e8:	4650      	mov	r0, sl
   856ea:	4649      	mov	r1, r9
   856ec:	aa0b      	add	r2, sp, #44	; 0x2c
   856ee:	f7ff fcab 	bl	85048 <__sprint_r>
   856f2:	2800      	cmp	r0, #0
   856f4:	f040 80df 	bne.w	858b6 <_vfiprintf_r+0x806>
   856f8:	f10d 0860 	add.w	r8, sp, #96	; 0x60
   856fc:	9b07      	ldr	r3, [sp, #28]
   856fe:	2b80      	cmp	r3, #128	; 0x80
   85700:	d13a      	bne.n	85778 <_vfiprintf_r+0x6c8>
   85702:	9804      	ldr	r0, [sp, #16]
   85704:	9a02      	ldr	r2, [sp, #8]
   85706:	1a83      	subs	r3, r0, r2
   85708:	2b00      	cmp	r3, #0
   8570a:	dd35      	ble.n	85778 <_vfiprintf_r+0x6c8>
   8570c:	4965      	ldr	r1, [pc, #404]	; (858a4 <_vfiprintf_r+0x7f4>)
   8570e:	2b10      	cmp	r3, #16
   85710:	f8c8 1000 	str.w	r1, [r8]
   85714:	dd1a      	ble.n	8574c <_vfiprintf_r+0x69c>
   85716:	9a0c      	ldr	r2, [sp, #48]	; 0x30
   85718:	2110      	movs	r1, #16
   8571a:	980d      	ldr	r0, [sp, #52]	; 0x34
   8571c:	f8c8 1004 	str.w	r1, [r8, #4]
   85720:	1c51      	adds	r1, r2, #1
   85722:	3010      	adds	r0, #16
   85724:	2907      	cmp	r1, #7
   85726:	900d      	str	r0, [sp, #52]	; 0x34
   85728:	f108 0808 	add.w	r8, r8, #8
   8572c:	910c      	str	r1, [sp, #48]	; 0x30
   8572e:	dd0b      	ble.n	85748 <_vfiprintf_r+0x698>
   85730:	4650      	mov	r0, sl
   85732:	4649      	mov	r1, r9
   85734:	aa0b      	add	r2, sp, #44	; 0x2c
   85736:	9300      	str	r3, [sp, #0]
   85738:	f7ff fc86 	bl	85048 <__sprint_r>
   8573c:	9b00      	ldr	r3, [sp, #0]
   8573e:	2800      	cmp	r0, #0
   85740:	f040 80b9 	bne.w	858b6 <_vfiprintf_r+0x806>
   85744:	f10d 0860 	add.w	r8, sp, #96	; 0x60
   85748:	3b10      	subs	r3, #16
   8574a:	e7df      	b.n	8570c <_vfiprintf_r+0x65c>
   8574c:	9a0c      	ldr	r2, [sp, #48]	; 0x30
   8574e:	980d      	ldr	r0, [sp, #52]	; 0x34
   85750:	1c51      	adds	r1, r2, #1
   85752:	f8c8 3004 	str.w	r3, [r8, #4]
   85756:	2907      	cmp	r1, #7
   85758:	4403      	add	r3, r0
   8575a:	930d      	str	r3, [sp, #52]	; 0x34
   8575c:	f108 0808 	add.w	r8, r8, #8
   85760:	910c      	str	r1, [sp, #48]	; 0x30
   85762:	dd09      	ble.n	85778 <_vfiprintf_r+0x6c8>
   85764:	4650      	mov	r0, sl
   85766:	4649      	mov	r1, r9
   85768:	aa0b      	add	r2, sp, #44	; 0x2c
   8576a:	f7ff fc6d 	bl	85048 <__sprint_r>
   8576e:	2800      	cmp	r0, #0
   85770:	f040 80a1 	bne.w	858b6 <_vfiprintf_r+0x806>
   85774:	f10d 0860 	add.w	r8, sp, #96	; 0x60
   85778:	1b2d      	subs	r5, r5, r4
   8577a:	2d00      	cmp	r5, #0
   8577c:	dd32      	ble.n	857e4 <_vfiprintf_r+0x734>
   8577e:	4849      	ldr	r0, [pc, #292]	; (858a4 <_vfiprintf_r+0x7f4>)
   85780:	2d10      	cmp	r5, #16
   85782:	f8c8 0000 	str.w	r0, [r8]
   85786:	dd18      	ble.n	857ba <_vfiprintf_r+0x70a>
   85788:	9a0c      	ldr	r2, [sp, #48]	; 0x30
   8578a:	980d      	ldr	r0, [sp, #52]	; 0x34
   8578c:	1c53      	adds	r3, r2, #1
   8578e:	2110      	movs	r1, #16
   85790:	3010      	adds	r0, #16
   85792:	2b07      	cmp	r3, #7
   85794:	f8c8 1004 	str.w	r1, [r8, #4]
   85798:	900d      	str	r0, [sp, #52]	; 0x34
   8579a:	f108 0808 	add.w	r8, r8, #8
   8579e:	930c      	str	r3, [sp, #48]	; 0x30
   857a0:	dd09      	ble.n	857b6 <_vfiprintf_r+0x706>
   857a2:	4650      	mov	r0, sl
   857a4:	4649      	mov	r1, r9
   857a6:	aa0b      	add	r2, sp, #44	; 0x2c
   857a8:	f7ff fc4e 	bl	85048 <__sprint_r>
   857ac:	2800      	cmp	r0, #0
   857ae:	f040 8082 	bne.w	858b6 <_vfiprintf_r+0x806>
   857b2:	f10d 0860 	add.w	r8, sp, #96	; 0x60
   857b6:	3d10      	subs	r5, #16
   857b8:	e7e1      	b.n	8577e <_vfiprintf_r+0x6ce>
   857ba:	9a0c      	ldr	r2, [sp, #48]	; 0x30
   857bc:	9b0d      	ldr	r3, [sp, #52]	; 0x34
   857be:	1c51      	adds	r1, r2, #1
   857c0:	f8c8 5004 	str.w	r5, [r8, #4]
   857c4:	2907      	cmp	r1, #7
   857c6:	441d      	add	r5, r3
   857c8:	950d      	str	r5, [sp, #52]	; 0x34
   857ca:	f108 0808 	add.w	r8, r8, #8
   857ce:	910c      	str	r1, [sp, #48]	; 0x30
   857d0:	dd08      	ble.n	857e4 <_vfiprintf_r+0x734>
   857d2:	4650      	mov	r0, sl
   857d4:	4649      	mov	r1, r9
   857d6:	aa0b      	add	r2, sp, #44	; 0x2c
   857d8:	f7ff fc36 	bl	85048 <__sprint_r>
   857dc:	2800      	cmp	r0, #0
   857de:	d16a      	bne.n	858b6 <_vfiprintf_r+0x806>
   857e0:	f10d 0860 	add.w	r8, sp, #96	; 0x60
   857e4:	9a0c      	ldr	r2, [sp, #48]	; 0x30
   857e6:	980d      	ldr	r0, [sp, #52]	; 0x34
   857e8:	1c51      	adds	r1, r2, #1
   857ea:	f8c8 4004 	str.w	r4, [r8, #4]
   857ee:	2907      	cmp	r1, #7
   857f0:	4404      	add	r4, r0
   857f2:	f8c8 b000 	str.w	fp, [r8]
   857f6:	940d      	str	r4, [sp, #52]	; 0x34
   857f8:	f108 0308 	add.w	r3, r8, #8
   857fc:	910c      	str	r1, [sp, #48]	; 0x30
   857fe:	dd07      	ble.n	85810 <_vfiprintf_r+0x760>
   85800:	4650      	mov	r0, sl
   85802:	4649      	mov	r1, r9
   85804:	aa0b      	add	r2, sp, #44	; 0x2c
   85806:	f7ff fc1f 	bl	85048 <__sprint_r>
   8580a:	2800      	cmp	r0, #0
   8580c:	d153      	bne.n	858b6 <_vfiprintf_r+0x806>
   8580e:	ab18      	add	r3, sp, #96	; 0x60
   85810:	077a      	lsls	r2, r7, #29
   85812:	d40b      	bmi.n	8582c <_vfiprintf_r+0x77c>
   85814:	9b03      	ldr	r3, [sp, #12]
   85816:	9a02      	ldr	r2, [sp, #8]
   85818:	9904      	ldr	r1, [sp, #16]
   8581a:	980d      	ldr	r0, [sp, #52]	; 0x34
   8581c:	428a      	cmp	r2, r1
   8581e:	bfac      	ite	ge
   85820:	189b      	addge	r3, r3, r2
   85822:	185b      	addlt	r3, r3, r1
   85824:	9303      	str	r3, [sp, #12]
   85826:	2800      	cmp	r0, #0
   85828:	d035      	beq.n	85896 <_vfiprintf_r+0x7e6>
   8582a:	e02e      	b.n	8588a <_vfiprintf_r+0x7da>
   8582c:	9c04      	ldr	r4, [sp, #16]
   8582e:	9802      	ldr	r0, [sp, #8]
   85830:	1a24      	subs	r4, r4, r0
   85832:	2c00      	cmp	r4, #0
   85834:	ddee      	ble.n	85814 <_vfiprintf_r+0x764>
   85836:	4a1a      	ldr	r2, [pc, #104]	; (858a0 <_vfiprintf_r+0x7f0>)
   85838:	2c10      	cmp	r4, #16
   8583a:	601a      	str	r2, [r3, #0]
   8583c:	dd14      	ble.n	85868 <_vfiprintf_r+0x7b8>
   8583e:	980c      	ldr	r0, [sp, #48]	; 0x30
   85840:	2210      	movs	r2, #16
   85842:	990d      	ldr	r1, [sp, #52]	; 0x34
   85844:	605a      	str	r2, [r3, #4]
   85846:	1c42      	adds	r2, r0, #1
   85848:	3110      	adds	r1, #16
   8584a:	3308      	adds	r3, #8
   8584c:	2a07      	cmp	r2, #7
   8584e:	910d      	str	r1, [sp, #52]	; 0x34
   85850:	920c      	str	r2, [sp, #48]	; 0x30
   85852:	dd07      	ble.n	85864 <_vfiprintf_r+0x7b4>
   85854:	4650      	mov	r0, sl
   85856:	4649      	mov	r1, r9
   85858:	aa0b      	add	r2, sp, #44	; 0x2c
   8585a:	f7ff fbf5 	bl	85048 <__sprint_r>
   8585e:	2800      	cmp	r0, #0
   85860:	d129      	bne.n	858b6 <_vfiprintf_r+0x806>
   85862:	ab18      	add	r3, sp, #96	; 0x60
   85864:	3c10      	subs	r4, #16
   85866:	e7e6      	b.n	85836 <_vfiprintf_r+0x786>
   85868:	990c      	ldr	r1, [sp, #48]	; 0x30
   8586a:	605c      	str	r4, [r3, #4]
   8586c:	9b0d      	ldr	r3, [sp, #52]	; 0x34
   8586e:	1c48      	adds	r0, r1, #1
   85870:	191c      	adds	r4, r3, r4
   85872:	2807      	cmp	r0, #7
   85874:	940d      	str	r4, [sp, #52]	; 0x34
   85876:	900c      	str	r0, [sp, #48]	; 0x30
   85878:	ddcc      	ble.n	85814 <_vfiprintf_r+0x764>
   8587a:	4650      	mov	r0, sl
   8587c:	4649      	mov	r1, r9
   8587e:	aa0b      	add	r2, sp, #44	; 0x2c
   85880:	f7ff fbe2 	bl	85048 <__sprint_r>
   85884:	2800      	cmp	r0, #0
   85886:	d0c5      	beq.n	85814 <_vfiprintf_r+0x764>
   85888:	e015      	b.n	858b6 <_vfiprintf_r+0x806>
   8588a:	4650      	mov	r0, sl
   8588c:	4649      	mov	r1, r9
   8588e:	aa0b      	add	r2, sp, #44	; 0x2c
   85890:	f7ff fbda 	bl	85048 <__sprint_r>
   85894:	b978      	cbnz	r0, 858b6 <_vfiprintf_r+0x806>
   85896:	2500      	movs	r5, #0
   85898:	950c      	str	r5, [sp, #48]	; 0x30
   8589a:	f10d 0860 	add.w	r8, sp, #96	; 0x60
   8589e:	e453      	b.n	85148 <_vfiprintf_r+0x98>
   858a0:	00087f18 	.word	0x00087f18
   858a4:	00087f28 	.word	0x00087f28
   858a8:	9a0d      	ldr	r2, [sp, #52]	; 0x34
   858aa:	b122      	cbz	r2, 858b6 <_vfiprintf_r+0x806>
   858ac:	4650      	mov	r0, sl
   858ae:	4649      	mov	r1, r9
   858b0:	aa0b      	add	r2, sp, #44	; 0x2c
   858b2:	f7ff fbc9 	bl	85048 <__sprint_r>
   858b6:	f8b9 100c 	ldrh.w	r1, [r9, #12]
   858ba:	f001 0040 	and.w	r0, r1, #64	; 0x40
   858be:	b203      	sxth	r3, r0
   858c0:	2b00      	cmp	r3, #0
   858c2:	f47f ac28 	bne.w	85116 <_vfiprintf_r+0x66>
   858c6:	9803      	ldr	r0, [sp, #12]
   858c8:	b029      	add	sp, #164	; 0xa4
   858ca:	e8bd 8ff0 	ldmia.w	sp!, {r4, r5, r6, r7, r8, r9, sl, fp, pc}

000858ce <__sbprintf>:
   858ce:	b570      	push	{r4, r5, r6, lr}
   858d0:	460c      	mov	r4, r1
   858d2:	8989      	ldrh	r1, [r1, #12]
   858d4:	f5ad 6d8d 	sub.w	sp, sp, #1128	; 0x468
   858d8:	f021 0502 	bic.w	r5, r1, #2
   858dc:	6e61      	ldr	r1, [r4, #100]	; 0x64
   858de:	f8ad 500c 	strh.w	r5, [sp, #12]
   858e2:	9119      	str	r1, [sp, #100]	; 0x64
   858e4:	89e5      	ldrh	r5, [r4, #14]
   858e6:	69e1      	ldr	r1, [r4, #28]
   858e8:	f8ad 500e 	strh.w	r5, [sp, #14]
   858ec:	9107      	str	r1, [sp, #28]
   858ee:	6a65      	ldr	r5, [r4, #36]	; 0x24
   858f0:	a91a      	add	r1, sp, #104	; 0x68
   858f2:	9100      	str	r1, [sp, #0]
   858f4:	9104      	str	r1, [sp, #16]
   858f6:	2100      	movs	r1, #0
   858f8:	9509      	str	r5, [sp, #36]	; 0x24
   858fa:	9106      	str	r1, [sp, #24]
   858fc:	f44f 6580 	mov.w	r5, #1024	; 0x400
   85900:	4669      	mov	r1, sp
   85902:	9502      	str	r5, [sp, #8]
   85904:	9505      	str	r5, [sp, #20]
   85906:	4606      	mov	r6, r0
   85908:	f7ff fbd2 	bl	850b0 <_vfiprintf_r>
   8590c:	1e05      	subs	r5, r0, #0
   8590e:	db07      	blt.n	85920 <__sbprintf+0x52>
   85910:	4630      	mov	r0, r6
   85912:	4669      	mov	r1, sp
   85914:	f000 f88e 	bl	85a34 <_fflush_r>
   85918:	2800      	cmp	r0, #0
   8591a:	bf18      	it	ne
   8591c:	f04f 35ff 	movne.w	r5, #4294967295
   85920:	f8bd 300c 	ldrh.w	r3, [sp, #12]
   85924:	f003 0040 	and.w	r0, r3, #64	; 0x40
   85928:	b202      	sxth	r2, r0
   8592a:	b11a      	cbz	r2, 85934 <__sbprintf+0x66>
   8592c:	89a1      	ldrh	r1, [r4, #12]
   8592e:	f041 0340 	orr.w	r3, r1, #64	; 0x40
   85932:	81a3      	strh	r3, [r4, #12]
   85934:	4628      	mov	r0, r5
   85936:	b01a      	add	sp, #104	; 0x68
   85938:	f50d 6d80 	add.w	sp, sp, #1024	; 0x400
   8593c:	bd70      	pop	{r4, r5, r6, pc}

0008593e <vfiprintf>:
   8593e:	b530      	push	{r4, r5, lr}
   85940:	4613      	mov	r3, r2
   85942:	4a05      	ldr	r2, [pc, #20]	; (85958 <vfiprintf+0x1a>)
   85944:	4605      	mov	r5, r0
   85946:	460c      	mov	r4, r1
   85948:	6810      	ldr	r0, [r2, #0]
   8594a:	4629      	mov	r1, r5
   8594c:	4622      	mov	r2, r4
   8594e:	e8bd 4030 	ldmia.w	sp!, {r4, r5, lr}
   85952:	f7ff bbad 	b.w	850b0 <_vfiprintf_r>
   85956:	bf00      	nop
   85958:	20070018 	.word	0x20070018

0008595c <__swsetup_r>:
   8595c:	b538      	push	{r3, r4, r5, lr}
   8595e:	4b2c      	ldr	r3, [pc, #176]	; (85a10 <__swsetup_r+0xb4>)
   85960:	4605      	mov	r5, r0
   85962:	6818      	ldr	r0, [r3, #0]
   85964:	460c      	mov	r4, r1
   85966:	b118      	cbz	r0, 85970 <__swsetup_r+0x14>
   85968:	6b82      	ldr	r2, [r0, #56]	; 0x38
   8596a:	b90a      	cbnz	r2, 85970 <__swsetup_r+0x14>
   8596c:	f000 f954 	bl	85c18 <__sinit>
   85970:	89a0      	ldrh	r0, [r4, #12]
   85972:	f000 0108 	and.w	r1, r0, #8
   85976:	b20b      	sxth	r3, r1
   85978:	bb0b      	cbnz	r3, 859be <__swsetup_r+0x62>
   8597a:	f000 0210 	and.w	r2, r0, #16
   8597e:	b211      	sxth	r1, r2
   85980:	b911      	cbnz	r1, 85988 <__swsetup_r+0x2c>
   85982:	f04f 30ff 	mov.w	r0, #4294967295
   85986:	bd38      	pop	{r3, r4, r5, pc}
   85988:	f000 0004 	and.w	r0, r0, #4
   8598c:	b203      	sxth	r3, r0
   8598e:	b193      	cbz	r3, 859b6 <__swsetup_r+0x5a>
   85990:	6b21      	ldr	r1, [r4, #48]	; 0x30
   85992:	b141      	cbz	r1, 859a6 <__swsetup_r+0x4a>
   85994:	f104 0240 	add.w	r2, r4, #64	; 0x40
   85998:	4291      	cmp	r1, r2
   8599a:	d002      	beq.n	859a2 <__swsetup_r+0x46>
   8599c:	4628      	mov	r0, r5
   8599e:	f000 fa79 	bl	85e94 <_free_r>
   859a2:	2100      	movs	r1, #0
   859a4:	6321      	str	r1, [r4, #48]	; 0x30
   859a6:	89a0      	ldrh	r0, [r4, #12]
   859a8:	6921      	ldr	r1, [r4, #16]
   859aa:	f020 0324 	bic.w	r3, r0, #36	; 0x24
   859ae:	2200      	movs	r2, #0
   859b0:	81a3      	strh	r3, [r4, #12]
   859b2:	6062      	str	r2, [r4, #4]
   859b4:	6021      	str	r1, [r4, #0]
   859b6:	89a0      	ldrh	r0, [r4, #12]
   859b8:	f040 0308 	orr.w	r3, r0, #8
   859bc:	81a3      	strh	r3, [r4, #12]
   859be:	6922      	ldr	r2, [r4, #16]
   859c0:	b94a      	cbnz	r2, 859d6 <__swsetup_r+0x7a>
   859c2:	89a1      	ldrh	r1, [r4, #12]
   859c4:	f401 7020 	and.w	r0, r1, #640	; 0x280
   859c8:	f5b0 7f00 	cmp.w	r0, #512	; 0x200
   859cc:	d003      	beq.n	859d6 <__swsetup_r+0x7a>
   859ce:	4628      	mov	r0, r5
   859d0:	4621      	mov	r1, r4
   859d2:	f000 fcf7 	bl	863c4 <__smakebuf_r>
   859d6:	89a3      	ldrh	r3, [r4, #12]
   859d8:	f013 0201 	ands.w	r2, r3, #1
   859dc:	d005      	beq.n	859ea <__swsetup_r+0x8e>
   859de:	6961      	ldr	r1, [r4, #20]
   859e0:	2200      	movs	r2, #0
   859e2:	4248      	negs	r0, r1
   859e4:	60a2      	str	r2, [r4, #8]
   859e6:	61a0      	str	r0, [r4, #24]
   859e8:	e007      	b.n	859fa <__swsetup_r+0x9e>
   859ea:	f003 0102 	and.w	r1, r3, #2
   859ee:	b208      	sxth	r0, r1
   859f0:	b908      	cbnz	r0, 859f6 <__swsetup_r+0x9a>
   859f2:	6963      	ldr	r3, [r4, #20]
   859f4:	e000      	b.n	859f8 <__swsetup_r+0x9c>
   859f6:	4613      	mov	r3, r2
   859f8:	60a3      	str	r3, [r4, #8]
   859fa:	6923      	ldr	r3, [r4, #16]
   859fc:	b933      	cbnz	r3, 85a0c <__swsetup_r+0xb0>
   859fe:	89a2      	ldrh	r2, [r4, #12]
   85a00:	f002 0180 	and.w	r1, r2, #128	; 0x80
   85a04:	b208      	sxth	r0, r1
   85a06:	2800      	cmp	r0, #0
   85a08:	d1bb      	bne.n	85982 <__swsetup_r+0x26>
   85a0a:	bd38      	pop	{r3, r4, r5, pc}
   85a0c:	2000      	movs	r0, #0
   85a0e:	bd38      	pop	{r3, r4, r5, pc}
   85a10:	20070018 	.word	0x20070018

00085a14 <register_fini>:
   85a14:	4b02      	ldr	r3, [pc, #8]	; (85a20 <register_fini+0xc>)
   85a16:	b113      	cbz	r3, 85a1e <register_fini+0xa>
   85a18:	4802      	ldr	r0, [pc, #8]	; (85a24 <register_fini+0x10>)
   85a1a:	f000 b805 	b.w	85a28 <atexit>
   85a1e:	4770      	bx	lr
   85a20:	00000000 	.word	0x00000000
   85a24:	000845b5 	.word	0x000845b5

00085a28 <atexit>:
   85a28:	4601      	mov	r1, r0
   85a2a:	2000      	movs	r0, #0
   85a2c:	4602      	mov	r2, r0
   85a2e:	4603      	mov	r3, r0
   85a30:	f7fe bd72 	b.w	84518 <__register_exitproc>

00085a34 <_fflush_r>:
   85a34:	e92d 41f0 	stmdb	sp!, {r4, r5, r6, r7, r8, lr}
   85a38:	460c      	mov	r4, r1
   85a3a:	4605      	mov	r5, r0
   85a3c:	b118      	cbz	r0, 85a46 <_fflush_r+0x12>
   85a3e:	6b83      	ldr	r3, [r0, #56]	; 0x38
   85a40:	b90b      	cbnz	r3, 85a46 <_fflush_r+0x12>
   85a42:	f000 f8e9 	bl	85c18 <__sinit>
   85a46:	89a2      	ldrh	r2, [r4, #12]
   85a48:	b332      	cbz	r2, 85a98 <_fflush_r+0x64>
   85a4a:	f002 0008 	and.w	r0, r2, #8
   85a4e:	b201      	sxth	r1, r0
   85a50:	2900      	cmp	r1, #0
   85a52:	d162      	bne.n	85b1a <_fflush_r+0xe6>
   85a54:	6861      	ldr	r1, [r4, #4]
   85a56:	f442 6000 	orr.w	r0, r2, #2048	; 0x800
   85a5a:	2900      	cmp	r1, #0
   85a5c:	81a0      	strh	r0, [r4, #12]
   85a5e:	dc02      	bgt.n	85a66 <_fflush_r+0x32>
   85a60:	6be3      	ldr	r3, [r4, #60]	; 0x3c
   85a62:	2b00      	cmp	r3, #0
   85a64:	dd18      	ble.n	85a98 <_fflush_r+0x64>
   85a66:	6aa6      	ldr	r6, [r4, #40]	; 0x28
   85a68:	b1b6      	cbz	r6, 85a98 <_fflush_r+0x64>
   85a6a:	f402 5280 	and.w	r2, r2, #4096	; 0x1000
   85a6e:	2000      	movs	r0, #0
   85a70:	b212      	sxth	r2, r2
   85a72:	682f      	ldr	r7, [r5, #0]
   85a74:	6028      	str	r0, [r5, #0]
   85a76:	b10a      	cbz	r2, 85a7c <_fflush_r+0x48>
   85a78:	6d22      	ldr	r2, [r4, #80]	; 0x50
   85a7a:	e010      	b.n	85a9e <_fflush_r+0x6a>
   85a7c:	2301      	movs	r3, #1
   85a7e:	4628      	mov	r0, r5
   85a80:	69e1      	ldr	r1, [r4, #28]
   85a82:	47b0      	blx	r6
   85a84:	4602      	mov	r2, r0
   85a86:	3001      	adds	r0, #1
   85a88:	d109      	bne.n	85a9e <_fflush_r+0x6a>
   85a8a:	6829      	ldr	r1, [r5, #0]
   85a8c:	b139      	cbz	r1, 85a9e <_fflush_r+0x6a>
   85a8e:	291d      	cmp	r1, #29
   85a90:	d001      	beq.n	85a96 <_fflush_r+0x62>
   85a92:	2916      	cmp	r1, #22
   85a94:	d14e      	bne.n	85b34 <_fflush_r+0x100>
   85a96:	602f      	str	r7, [r5, #0]
   85a98:	2000      	movs	r0, #0
   85a9a:	e8bd 81f0 	ldmia.w	sp!, {r4, r5, r6, r7, r8, pc}
   85a9e:	89a6      	ldrh	r6, [r4, #12]
   85aa0:	f006 0104 	and.w	r1, r6, #4
   85aa4:	b20b      	sxth	r3, r1
   85aa6:	b12b      	cbz	r3, 85ab4 <_fflush_r+0x80>
   85aa8:	6860      	ldr	r0, [r4, #4]
   85aaa:	6b26      	ldr	r6, [r4, #48]	; 0x30
   85aac:	1a12      	subs	r2, r2, r0
   85aae:	b10e      	cbz	r6, 85ab4 <_fflush_r+0x80>
   85ab0:	6be1      	ldr	r1, [r4, #60]	; 0x3c
   85ab2:	1a52      	subs	r2, r2, r1
   85ab4:	69e1      	ldr	r1, [r4, #28]
   85ab6:	2300      	movs	r3, #0
   85ab8:	6aa6      	ldr	r6, [r4, #40]	; 0x28
   85aba:	4628      	mov	r0, r5
   85abc:	47b0      	blx	r6
   85abe:	1c41      	adds	r1, r0, #1
   85ac0:	d105      	bne.n	85ace <_fflush_r+0x9a>
   85ac2:	682a      	ldr	r2, [r5, #0]
   85ac4:	b11a      	cbz	r2, 85ace <_fflush_r+0x9a>
   85ac6:	2a1d      	cmp	r2, #29
   85ac8:	d001      	beq.n	85ace <_fflush_r+0x9a>
   85aca:	2a16      	cmp	r2, #22
   85acc:	d11f      	bne.n	85b0e <_fflush_r+0xda>
   85ace:	89a3      	ldrh	r3, [r4, #12]
   85ad0:	2100      	movs	r1, #0
   85ad2:	f423 6200 	bic.w	r2, r3, #2048	; 0x800
   85ad6:	81a2      	strh	r2, [r4, #12]
   85ad8:	f403 5380 	and.w	r3, r3, #4096	; 0x1000
   85adc:	6922      	ldr	r2, [r4, #16]
   85ade:	6061      	str	r1, [r4, #4]
   85ae0:	b219      	sxth	r1, r3
   85ae2:	6022      	str	r2, [r4, #0]
   85ae4:	b121      	cbz	r1, 85af0 <_fflush_r+0xbc>
   85ae6:	1c42      	adds	r2, r0, #1
   85ae8:	d101      	bne.n	85aee <_fflush_r+0xba>
   85aea:	682a      	ldr	r2, [r5, #0]
   85aec:	b902      	cbnz	r2, 85af0 <_fflush_r+0xbc>
   85aee:	6520      	str	r0, [r4, #80]	; 0x50
   85af0:	6b21      	ldr	r1, [r4, #48]	; 0x30
   85af2:	602f      	str	r7, [r5, #0]
   85af4:	2900      	cmp	r1, #0
   85af6:	d0cf      	beq.n	85a98 <_fflush_r+0x64>
   85af8:	f104 0040 	add.w	r0, r4, #64	; 0x40
   85afc:	4281      	cmp	r1, r0
   85afe:	d002      	beq.n	85b06 <_fflush_r+0xd2>
   85b00:	4628      	mov	r0, r5
   85b02:	f000 f9c7 	bl	85e94 <_free_r>
   85b06:	2000      	movs	r0, #0
   85b08:	6320      	str	r0, [r4, #48]	; 0x30
   85b0a:	e8bd 81f0 	ldmia.w	sp!, {r4, r5, r6, r7, r8, pc}
   85b0e:	89a3      	ldrh	r3, [r4, #12]
   85b10:	f043 0140 	orr.w	r1, r3, #64	; 0x40
   85b14:	81a1      	strh	r1, [r4, #12]
   85b16:	e8bd 81f0 	ldmia.w	sp!, {r4, r5, r6, r7, r8, pc}
   85b1a:	6926      	ldr	r6, [r4, #16]
   85b1c:	2e00      	cmp	r6, #0
   85b1e:	d0bb      	beq.n	85a98 <_fflush_r+0x64>
   85b20:	0792      	lsls	r2, r2, #30
   85b22:	6823      	ldr	r3, [r4, #0]
   85b24:	bf0c      	ite	eq
   85b26:	6962      	ldreq	r2, [r4, #20]
   85b28:	2200      	movne	r2, #0
   85b2a:	ebc6 0803 	rsb	r8, r6, r3
   85b2e:	6026      	str	r6, [r4, #0]
   85b30:	60a2      	str	r2, [r4, #8]
   85b32:	e012      	b.n	85b5a <_fflush_r+0x126>
   85b34:	89a3      	ldrh	r3, [r4, #12]
   85b36:	f043 0040 	orr.w	r0, r3, #64	; 0x40
   85b3a:	81a0      	strh	r0, [r4, #12]
   85b3c:	f04f 30ff 	mov.w	r0, #4294967295
   85b40:	e8bd 81f0 	ldmia.w	sp!, {r4, r5, r6, r7, r8, pc}
   85b44:	6a67      	ldr	r7, [r4, #36]	; 0x24
   85b46:	4628      	mov	r0, r5
   85b48:	69e1      	ldr	r1, [r4, #28]
   85b4a:	4632      	mov	r2, r6
   85b4c:	4643      	mov	r3, r8
   85b4e:	47b8      	blx	r7
   85b50:	2800      	cmp	r0, #0
   85b52:	ddef      	ble.n	85b34 <_fflush_r+0x100>
   85b54:	1836      	adds	r6, r6, r0
   85b56:	ebc0 0808 	rsb	r8, r0, r8
   85b5a:	f1b8 0f00 	cmp.w	r8, #0
   85b5e:	dcf1      	bgt.n	85b44 <_fflush_r+0x110>
   85b60:	e79a      	b.n	85a98 <_fflush_r+0x64>

00085b62 <fflush>:
   85b62:	4601      	mov	r1, r0
   85b64:	b920      	cbnz	r0, 85b70 <fflush+0xe>
   85b66:	4804      	ldr	r0, [pc, #16]	; (85b78 <fflush+0x16>)
   85b68:	4904      	ldr	r1, [pc, #16]	; (85b7c <fflush+0x1a>)
   85b6a:	6800      	ldr	r0, [r0, #0]
   85b6c:	f000 bbc4 	b.w	862f8 <_fwalk_reent>
   85b70:	4b03      	ldr	r3, [pc, #12]	; (85b80 <fflush+0x1e>)
   85b72:	6818      	ldr	r0, [r3, #0]
   85b74:	f7ff bf5e 	b.w	85a34 <_fflush_r>
   85b78:	00087ed0 	.word	0x00087ed0
   85b7c:	00085a35 	.word	0x00085a35
   85b80:	20070018 	.word	0x20070018

00085b84 <__fp_lock>:
   85b84:	2000      	movs	r0, #0
   85b86:	4770      	bx	lr

00085b88 <__fp_unlock>:
   85b88:	2000      	movs	r0, #0
   85b8a:	4770      	bx	lr

00085b8c <_cleanup_r>:
   85b8c:	4901      	ldr	r1, [pc, #4]	; (85b94 <_cleanup_r+0x8>)
   85b8e:	f000 bb92 	b.w	862b6 <_fwalk>
   85b92:	bf00      	nop
   85b94:	000877d1 	.word	0x000877d1

00085b98 <std.isra.0>:
   85b98:	2300      	movs	r3, #0
   85b9a:	b510      	push	{r4, lr}
   85b9c:	4604      	mov	r4, r0
   85b9e:	6003      	str	r3, [r0, #0]
   85ba0:	6043      	str	r3, [r0, #4]
   85ba2:	6083      	str	r3, [r0, #8]
   85ba4:	8181      	strh	r1, [r0, #12]
   85ba6:	6643      	str	r3, [r0, #100]	; 0x64
   85ba8:	81c2      	strh	r2, [r0, #14]
   85baa:	6103      	str	r3, [r0, #16]
   85bac:	6143      	str	r3, [r0, #20]
   85bae:	6183      	str	r3, [r0, #24]
   85bb0:	4619      	mov	r1, r3
   85bb2:	2208      	movs	r2, #8
   85bb4:	f100 005c 	add.w	r0, r0, #92	; 0x5c
   85bb8:	f7fe fd61 	bl	8467e <memset>
   85bbc:	4804      	ldr	r0, [pc, #16]	; (85bd0 <std.isra.0+0x38>)
   85bbe:	4905      	ldr	r1, [pc, #20]	; (85bd4 <std.isra.0+0x3c>)
   85bc0:	4a05      	ldr	r2, [pc, #20]	; (85bd8 <std.isra.0+0x40>)
   85bc2:	4b06      	ldr	r3, [pc, #24]	; (85bdc <std.isra.0+0x44>)
   85bc4:	61e4      	str	r4, [r4, #28]
   85bc6:	6220      	str	r0, [r4, #32]
   85bc8:	6261      	str	r1, [r4, #36]	; 0x24
   85bca:	62a2      	str	r2, [r4, #40]	; 0x28
   85bcc:	62e3      	str	r3, [r4, #44]	; 0x2c
   85bce:	bd10      	pop	{r4, pc}
   85bd0:	00086c11 	.word	0x00086c11
   85bd4:	00086c37 	.word	0x00086c37
   85bd8:	00086c73 	.word	0x00086c73
   85bdc:	00086c97 	.word	0x00086c97

00085be0 <__sfmoreglue>:
   85be0:	b570      	push	{r4, r5, r6, lr}
   85be2:	2568      	movs	r5, #104	; 0x68
   85be4:	434d      	muls	r5, r1
   85be6:	460e      	mov	r6, r1
   85be8:	f105 010c 	add.w	r1, r5, #12
   85bec:	f000 fc66 	bl	864bc <_malloc_r>
   85bf0:	4604      	mov	r4, r0
   85bf2:	b140      	cbz	r0, 85c06 <__sfmoreglue+0x26>
   85bf4:	f100 000c 	add.w	r0, r0, #12
   85bf8:	2100      	movs	r1, #0
   85bfa:	e884 0042 	stmia.w	r4, {r1, r6}
   85bfe:	60a0      	str	r0, [r4, #8]
   85c00:	462a      	mov	r2, r5
   85c02:	f7fe fd3c 	bl	8467e <memset>
   85c06:	4620      	mov	r0, r4
   85c08:	bd70      	pop	{r4, r5, r6, pc}

00085c0a <_cleanup>:
   85c0a:	4b02      	ldr	r3, [pc, #8]	; (85c14 <_cleanup+0xa>)
   85c0c:	6818      	ldr	r0, [r3, #0]
   85c0e:	f7ff bfbd 	b.w	85b8c <_cleanup_r>
   85c12:	bf00      	nop
   85c14:	00087ed0 	.word	0x00087ed0

00085c18 <__sinit>:
   85c18:	b538      	push	{r3, r4, r5, lr}
   85c1a:	6b83      	ldr	r3, [r0, #56]	; 0x38
   85c1c:	4604      	mov	r4, r0
   85c1e:	b9eb      	cbnz	r3, 85c5c <__sinit+0x44>
   85c20:	4a0f      	ldr	r2, [pc, #60]	; (85c60 <__sinit+0x48>)
   85c22:	2501      	movs	r5, #1
   85c24:	f8c0 32e0 	str.w	r3, [r0, #736]	; 0x2e0
   85c28:	63c2      	str	r2, [r0, #60]	; 0x3c
   85c2a:	6385      	str	r5, [r0, #56]	; 0x38
   85c2c:	f504 713b 	add.w	r1, r4, #748	; 0x2ec
   85c30:	2003      	movs	r0, #3
   85c32:	461a      	mov	r2, r3
   85c34:	f8c4 02e4 	str.w	r0, [r4, #740]	; 0x2e4
   85c38:	f8c4 12e8 	str.w	r1, [r4, #744]	; 0x2e8
   85c3c:	6860      	ldr	r0, [r4, #4]
   85c3e:	2104      	movs	r1, #4
   85c40:	f7ff ffaa 	bl	85b98 <std.isra.0>
   85c44:	68a0      	ldr	r0, [r4, #8]
   85c46:	2109      	movs	r1, #9
   85c48:	462a      	mov	r2, r5
   85c4a:	f7ff ffa5 	bl	85b98 <std.isra.0>
   85c4e:	68e0      	ldr	r0, [r4, #12]
   85c50:	2112      	movs	r1, #18
   85c52:	2202      	movs	r2, #2
   85c54:	e8bd 4038 	ldmia.w	sp!, {r3, r4, r5, lr}
   85c58:	f7ff bf9e 	b.w	85b98 <std.isra.0>
   85c5c:	bd38      	pop	{r3, r4, r5, pc}
   85c5e:	bf00      	nop
   85c60:	00085b8d 	.word	0x00085b8d

00085c64 <__sfp>:
   85c64:	b5f8      	push	{r3, r4, r5, r6, r7, lr}
   85c66:	4b1d      	ldr	r3, [pc, #116]	; (85cdc <__sfp+0x78>)
   85c68:	4607      	mov	r7, r0
   85c6a:	681e      	ldr	r6, [r3, #0]
   85c6c:	6bb0      	ldr	r0, [r6, #56]	; 0x38
   85c6e:	b910      	cbnz	r0, 85c76 <__sfp+0x12>
   85c70:	4630      	mov	r0, r6
   85c72:	f7ff ffd1 	bl	85c18 <__sinit>
   85c76:	f506 7638 	add.w	r6, r6, #736	; 0x2e0
   85c7a:	68b4      	ldr	r4, [r6, #8]
   85c7c:	6871      	ldr	r1, [r6, #4]
   85c7e:	3901      	subs	r1, #1
   85c80:	d404      	bmi.n	85c8c <__sfp+0x28>
   85c82:	f9b4 500c 	ldrsh.w	r5, [r4, #12]
   85c86:	b185      	cbz	r5, 85caa <__sfp+0x46>
   85c88:	3468      	adds	r4, #104	; 0x68
   85c8a:	e7f8      	b.n	85c7e <__sfp+0x1a>
   85c8c:	6832      	ldr	r2, [r6, #0]
   85c8e:	b10a      	cbz	r2, 85c94 <__sfp+0x30>
   85c90:	6836      	ldr	r6, [r6, #0]
   85c92:	e7f2      	b.n	85c7a <__sfp+0x16>
   85c94:	4638      	mov	r0, r7
   85c96:	2104      	movs	r1, #4
   85c98:	f7ff ffa2 	bl	85be0 <__sfmoreglue>
   85c9c:	6030      	str	r0, [r6, #0]
   85c9e:	2800      	cmp	r0, #0
   85ca0:	d1f6      	bne.n	85c90 <__sfp+0x2c>
   85ca2:	240c      	movs	r4, #12
   85ca4:	603c      	str	r4, [r7, #0]
   85ca6:	4604      	mov	r4, r0
   85ca8:	e015      	b.n	85cd6 <__sfp+0x72>
   85caa:	f64f 73ff 	movw	r3, #65535	; 0xffff
   85cae:	2001      	movs	r0, #1
   85cb0:	81a0      	strh	r0, [r4, #12]
   85cb2:	81e3      	strh	r3, [r4, #14]
   85cb4:	6665      	str	r5, [r4, #100]	; 0x64
   85cb6:	6025      	str	r5, [r4, #0]
   85cb8:	60a5      	str	r5, [r4, #8]
   85cba:	6065      	str	r5, [r4, #4]
   85cbc:	6125      	str	r5, [r4, #16]
   85cbe:	6165      	str	r5, [r4, #20]
   85cc0:	61a5      	str	r5, [r4, #24]
   85cc2:	f104 005c 	add.w	r0, r4, #92	; 0x5c
   85cc6:	4629      	mov	r1, r5
   85cc8:	2208      	movs	r2, #8
   85cca:	f7fe fcd8 	bl	8467e <memset>
   85cce:	6325      	str	r5, [r4, #48]	; 0x30
   85cd0:	6365      	str	r5, [r4, #52]	; 0x34
   85cd2:	6465      	str	r5, [r4, #68]	; 0x44
   85cd4:	64a5      	str	r5, [r4, #72]	; 0x48
   85cd6:	4620      	mov	r0, r4
   85cd8:	bdf8      	pop	{r3, r4, r5, r6, r7, pc}
   85cda:	bf00      	nop
   85cdc:	00087ed0 	.word	0x00087ed0

00085ce0 <__sfp_lock_acquire>:
   85ce0:	4770      	bx	lr

00085ce2 <__sfp_lock_release>:
   85ce2:	4770      	bx	lr

00085ce4 <__sinit_lock_acquire>:
   85ce4:	4770      	bx	lr

00085ce6 <__sinit_lock_release>:
   85ce6:	4770      	bx	lr

00085ce8 <__fp_lock_all>:
   85ce8:	4b02      	ldr	r3, [pc, #8]	; (85cf4 <__fp_lock_all+0xc>)
   85cea:	4903      	ldr	r1, [pc, #12]	; (85cf8 <__fp_lock_all+0x10>)
   85cec:	6818      	ldr	r0, [r3, #0]
   85cee:	f000 bae2 	b.w	862b6 <_fwalk>
   85cf2:	bf00      	nop
   85cf4:	20070018 	.word	0x20070018
   85cf8:	00085b85 	.word	0x00085b85

00085cfc <__fp_unlock_all>:
   85cfc:	4b02      	ldr	r3, [pc, #8]	; (85d08 <__fp_unlock_all+0xc>)
   85cfe:	4903      	ldr	r1, [pc, #12]	; (85d0c <__fp_unlock_all+0x10>)
   85d00:	6818      	ldr	r0, [r3, #0]
   85d02:	f000 bad8 	b.w	862b6 <_fwalk>
   85d06:	bf00      	nop
   85d08:	20070018 	.word	0x20070018
   85d0c:	00085b89 	.word	0x00085b89

00085d10 <_fputwc_r>:
   85d10:	8993      	ldrh	r3, [r2, #12]
   85d12:	e92d 41f3 	stmdb	sp!, {r0, r1, r4, r5, r6, r7, r8, lr}
   85d16:	4614      	mov	r4, r2
   85d18:	f403 5200 	and.w	r2, r3, #8192	; 0x2000
   85d1c:	4680      	mov	r8, r0
   85d1e:	b210      	sxth	r0, r2
   85d20:	460e      	mov	r6, r1
   85d22:	b930      	cbnz	r0, 85d32 <_fputwc_r+0x22>
   85d24:	6e67      	ldr	r7, [r4, #100]	; 0x64
   85d26:	f443 5100 	orr.w	r1, r3, #8192	; 0x2000
   85d2a:	f447 5300 	orr.w	r3, r7, #8192	; 0x2000
   85d2e:	81a1      	strh	r1, [r4, #12]
   85d30:	6663      	str	r3, [r4, #100]	; 0x64
   85d32:	f000 fb29 	bl	86388 <__locale_mb_cur_max>
   85d36:	2801      	cmp	r0, #1
   85d38:	d106      	bne.n	85d48 <_fputwc_r+0x38>
   85d3a:	b12e      	cbz	r6, 85d48 <_fputwc_r+0x38>
   85d3c:	2eff      	cmp	r6, #255	; 0xff
   85d3e:	d803      	bhi.n	85d48 <_fputwc_r+0x38>
   85d40:	f88d 6004 	strb.w	r6, [sp, #4]
   85d44:	4607      	mov	r7, r0
   85d46:	e00f      	b.n	85d68 <_fputwc_r+0x58>
   85d48:	4632      	mov	r2, r6
   85d4a:	4640      	mov	r0, r8
   85d4c:	a901      	add	r1, sp, #4
   85d4e:	f104 035c 	add.w	r3, r4, #92	; 0x5c
   85d52:	f001 fc83 	bl	8765c <_wcrtomb_r>
   85d56:	1c42      	adds	r2, r0, #1
   85d58:	4607      	mov	r7, r0
   85d5a:	d105      	bne.n	85d68 <_fputwc_r+0x58>
   85d5c:	89a2      	ldrh	r2, [r4, #12]
   85d5e:	f042 0040 	orr.w	r0, r2, #64	; 0x40
   85d62:	81a0      	strh	r0, [r4, #12]
   85d64:	4638      	mov	r0, r7
   85d66:	e031      	b.n	85dcc <_fputwc_r+0xbc>
   85d68:	2500      	movs	r5, #0
   85d6a:	42bd      	cmp	r5, r7
   85d6c:	d02a      	beq.n	85dc4 <_fputwc_r+0xb4>
   85d6e:	68a1      	ldr	r1, [r4, #8]
   85d70:	ab01      	add	r3, sp, #4
   85d72:	1e4a      	subs	r2, r1, #1
   85d74:	2a00      	cmp	r2, #0
   85d76:	60a2      	str	r2, [r4, #8]
   85d78:	da1a      	bge.n	85db0 <_fputwc_r+0xa0>
   85d7a:	69a0      	ldr	r0, [r4, #24]
   85d7c:	4282      	cmp	r2, r0
   85d7e:	db0c      	blt.n	85d9a <_fputwc_r+0x8a>
   85d80:	6821      	ldr	r1, [r4, #0]
   85d82:	5d5a      	ldrb	r2, [r3, r5]
   85d84:	700a      	strb	r2, [r1, #0]
   85d86:	6823      	ldr	r3, [r4, #0]
   85d88:	7819      	ldrb	r1, [r3, #0]
   85d8a:	290a      	cmp	r1, #10
   85d8c:	d003      	beq.n	85d96 <_fputwc_r+0x86>
   85d8e:	3301      	adds	r3, #1
   85d90:	2200      	movs	r2, #0
   85d92:	6023      	str	r3, [r4, #0]
   85d94:	e013      	b.n	85dbe <_fputwc_r+0xae>
   85d96:	4640      	mov	r0, r8
   85d98:	e001      	b.n	85d9e <_fputwc_r+0x8e>
   85d9a:	5d59      	ldrb	r1, [r3, r5]
   85d9c:	4640      	mov	r0, r8
   85d9e:	4622      	mov	r2, r4
   85da0:	f001 fc02 	bl	875a8 <__swbuf_r>
   85da4:	f1b0 31ff 	subs.w	r1, r0, #4294967295
   85da8:	4248      	negs	r0, r1
   85daa:	eb50 0201 	adcs.w	r2, r0, r1
   85dae:	e006      	b.n	85dbe <_fputwc_r+0xae>
   85db0:	6820      	ldr	r0, [r4, #0]
   85db2:	5d59      	ldrb	r1, [r3, r5]
   85db4:	7001      	strb	r1, [r0, #0]
   85db6:	6822      	ldr	r2, [r4, #0]
   85db8:	1c53      	adds	r3, r2, #1
   85dba:	6023      	str	r3, [r4, #0]
   85dbc:	e000      	b.n	85dc0 <_fputwc_r+0xb0>
   85dbe:	b91a      	cbnz	r2, 85dc8 <_fputwc_r+0xb8>
   85dc0:	3501      	adds	r5, #1
   85dc2:	e7d2      	b.n	85d6a <_fputwc_r+0x5a>
   85dc4:	4630      	mov	r0, r6
   85dc6:	e001      	b.n	85dcc <_fputwc_r+0xbc>
   85dc8:	f04f 30ff 	mov.w	r0, #4294967295
   85dcc:	e8bd 81fc 	ldmia.w	sp!, {r2, r3, r4, r5, r6, r7, r8, pc}

00085dd0 <fputwc>:
   85dd0:	b5f8      	push	{r3, r4, r5, r6, r7, lr}
   85dd2:	4c08      	ldr	r4, [pc, #32]	; (85df4 <fputwc+0x24>)
   85dd4:	4607      	mov	r7, r0
   85dd6:	6820      	ldr	r0, [r4, #0]
   85dd8:	460e      	mov	r6, r1
   85dda:	b118      	cbz	r0, 85de4 <fputwc+0x14>
   85ddc:	6b85      	ldr	r5, [r0, #56]	; 0x38
   85dde:	b90d      	cbnz	r5, 85de4 <fputwc+0x14>
   85de0:	f7ff ff1a 	bl	85c18 <__sinit>
   85de4:	6820      	ldr	r0, [r4, #0]
   85de6:	4639      	mov	r1, r7
   85de8:	4632      	mov	r2, r6
   85dea:	e8bd 40f8 	ldmia.w	sp!, {r3, r4, r5, r6, r7, lr}
   85dee:	f7ff bf8f 	b.w	85d10 <_fputwc_r>
   85df2:	bf00      	nop
   85df4:	20070018 	.word	0x20070018

00085df8 <_malloc_trim_r>:
   85df8:	b5f8      	push	{r3, r4, r5, r6, r7, lr}
   85dfa:	4d23      	ldr	r5, [pc, #140]	; (85e88 <_malloc_trim_r+0x90>)
   85dfc:	460e      	mov	r6, r1
   85dfe:	4604      	mov	r4, r0
   85e00:	f000 fd86 	bl	86910 <__malloc_lock>
   85e04:	68ab      	ldr	r3, [r5, #8]
   85e06:	685f      	ldr	r7, [r3, #4]
   85e08:	f027 0703 	bic.w	r7, r7, #3
   85e0c:	f607 70ef 	addw	r0, r7, #4079	; 0xfef
   85e10:	1b81      	subs	r1, r0, r6
   85e12:	f421 627f 	bic.w	r2, r1, #4080	; 0xff0
   85e16:	f022 060f 	bic.w	r6, r2, #15
   85e1a:	f5a6 5680 	sub.w	r6, r6, #4096	; 0x1000
   85e1e:	f5b6 5f80 	cmp.w	r6, #4096	; 0x1000
   85e22:	da04      	bge.n	85e2e <_malloc_trim_r+0x36>
   85e24:	4620      	mov	r0, r4
   85e26:	f000 fd74 	bl	86912 <__malloc_unlock>
   85e2a:	2000      	movs	r0, #0
   85e2c:	bdf8      	pop	{r3, r4, r5, r6, r7, pc}
   85e2e:	2100      	movs	r1, #0
   85e30:	4620      	mov	r0, r4
   85e32:	f000 fedd 	bl	86bf0 <_sbrk_r>
   85e36:	68ab      	ldr	r3, [r5, #8]
   85e38:	19d9      	adds	r1, r3, r7
   85e3a:	4288      	cmp	r0, r1
   85e3c:	d1f2      	bne.n	85e24 <_malloc_trim_r+0x2c>
   85e3e:	4271      	negs	r1, r6
   85e40:	4620      	mov	r0, r4
   85e42:	f000 fed5 	bl	86bf0 <_sbrk_r>
   85e46:	3001      	adds	r0, #1
   85e48:	d110      	bne.n	85e6c <_malloc_trim_r+0x74>
   85e4a:	2100      	movs	r1, #0
   85e4c:	4620      	mov	r0, r4
   85e4e:	f000 fecf 	bl	86bf0 <_sbrk_r>
   85e52:	68ab      	ldr	r3, [r5, #8]
   85e54:	1ac2      	subs	r2, r0, r3
   85e56:	2a0f      	cmp	r2, #15
   85e58:	dde4      	ble.n	85e24 <_malloc_trim_r+0x2c>
   85e5a:	490c      	ldr	r1, [pc, #48]	; (85e8c <_malloc_trim_r+0x94>)
   85e5c:	f042 0201 	orr.w	r2, r2, #1
   85e60:	6809      	ldr	r1, [r1, #0]
   85e62:	605a      	str	r2, [r3, #4]
   85e64:	1a40      	subs	r0, r0, r1
   85e66:	490a      	ldr	r1, [pc, #40]	; (85e90 <_malloc_trim_r+0x98>)
   85e68:	6008      	str	r0, [r1, #0]
   85e6a:	e7db      	b.n	85e24 <_malloc_trim_r+0x2c>
   85e6c:	4b08      	ldr	r3, [pc, #32]	; (85e90 <_malloc_trim_r+0x98>)
   85e6e:	68a8      	ldr	r0, [r5, #8]
   85e70:	681a      	ldr	r2, [r3, #0]
   85e72:	1bbf      	subs	r7, r7, r6
   85e74:	f047 0701 	orr.w	r7, r7, #1
   85e78:	6047      	str	r7, [r0, #4]
   85e7a:	1b96      	subs	r6, r2, r6
   85e7c:	4620      	mov	r0, r4
   85e7e:	601e      	str	r6, [r3, #0]
   85e80:	f000 fd47 	bl	86912 <__malloc_unlock>
   85e84:	2001      	movs	r0, #1
   85e86:	bdf8      	pop	{r3, r4, r5, r6, r7, pc}
   85e88:	200704c4 	.word	0x200704c4
   85e8c:	200708cc 	.word	0x200708cc
   85e90:	20078b64 	.word	0x20078b64

00085e94 <_free_r>:
   85e94:	b5f8      	push	{r3, r4, r5, r6, r7, lr}
   85e96:	4606      	mov	r6, r0
   85e98:	460d      	mov	r5, r1
   85e9a:	2900      	cmp	r1, #0
   85e9c:	f000 80a6 	beq.w	85fec <_free_r+0x158>
   85ea0:	f000 fd36 	bl	86910 <__malloc_lock>
   85ea4:	f855 cc04 	ldr.w	ip, [r5, #-4]
   85ea8:	4f51      	ldr	r7, [pc, #324]	; (85ff0 <_free_r+0x15c>)
   85eaa:	f1a5 0308 	sub.w	r3, r5, #8
   85eae:	f02c 0201 	bic.w	r2, ip, #1
   85eb2:	189c      	adds	r4, r3, r2
   85eb4:	68b9      	ldr	r1, [r7, #8]
   85eb6:	6860      	ldr	r0, [r4, #4]
   85eb8:	428c      	cmp	r4, r1
   85eba:	f020 0003 	bic.w	r0, r0, #3
   85ebe:	f00c 0101 	and.w	r1, ip, #1
   85ec2:	d11c      	bne.n	85efe <_free_r+0x6a>
   85ec4:	1882      	adds	r2, r0, r2
   85ec6:	b939      	cbnz	r1, 85ed8 <_free_r+0x44>
   85ec8:	f855 1c08 	ldr.w	r1, [r5, #-8]
   85ecc:	1a5b      	subs	r3, r3, r1
   85ece:	6898      	ldr	r0, [r3, #8]
   85ed0:	1852      	adds	r2, r2, r1
   85ed2:	68d9      	ldr	r1, [r3, #12]
   85ed4:	60c1      	str	r1, [r0, #12]
   85ed6:	6088      	str	r0, [r1, #8]
   85ed8:	4845      	ldr	r0, [pc, #276]	; (85ff0 <_free_r+0x15c>)
   85eda:	f042 0101 	orr.w	r1, r2, #1
   85ede:	6059      	str	r1, [r3, #4]
   85ee0:	6083      	str	r3, [r0, #8]
   85ee2:	4b44      	ldr	r3, [pc, #272]	; (85ff4 <_free_r+0x160>)
   85ee4:	6819      	ldr	r1, [r3, #0]
   85ee6:	428a      	cmp	r2, r1
   85ee8:	d304      	bcc.n	85ef4 <_free_r+0x60>
   85eea:	4a43      	ldr	r2, [pc, #268]	; (85ff8 <_free_r+0x164>)
   85eec:	4630      	mov	r0, r6
   85eee:	6811      	ldr	r1, [r2, #0]
   85ef0:	f7ff ff82 	bl	85df8 <_malloc_trim_r>
   85ef4:	4630      	mov	r0, r6
   85ef6:	e8bd 40f8 	ldmia.w	sp!, {r3, r4, r5, r6, r7, lr}
   85efa:	f000 bd0a 	b.w	86912 <__malloc_unlock>
   85efe:	6060      	str	r0, [r4, #4]
   85f00:	b959      	cbnz	r1, 85f1a <_free_r+0x86>
   85f02:	f855 5c08 	ldr.w	r5, [r5, #-8]
   85f06:	3708      	adds	r7, #8
   85f08:	1b5b      	subs	r3, r3, r5
   85f0a:	1952      	adds	r2, r2, r5
   85f0c:	689d      	ldr	r5, [r3, #8]
   85f0e:	42bd      	cmp	r5, r7
   85f10:	d005      	beq.n	85f1e <_free_r+0x8a>
   85f12:	68df      	ldr	r7, [r3, #12]
   85f14:	60ef      	str	r7, [r5, #12]
   85f16:	60bd      	str	r5, [r7, #8]
   85f18:	e002      	b.n	85f20 <_free_r+0x8c>
   85f1a:	2100      	movs	r1, #0
   85f1c:	e000      	b.n	85f20 <_free_r+0x8c>
   85f1e:	2101      	movs	r1, #1
   85f20:	1825      	adds	r5, r4, r0
   85f22:	686d      	ldr	r5, [r5, #4]
   85f24:	f015 0f01 	tst.w	r5, #1
   85f28:	d10f      	bne.n	85f4a <_free_r+0xb6>
   85f2a:	1812      	adds	r2, r2, r0
   85f2c:	b949      	cbnz	r1, 85f42 <_free_r+0xae>
   85f2e:	68a0      	ldr	r0, [r4, #8]
   85f30:	4d32      	ldr	r5, [pc, #200]	; (85ffc <_free_r+0x168>)
   85f32:	42a8      	cmp	r0, r5
   85f34:	d105      	bne.n	85f42 <_free_r+0xae>
   85f36:	60eb      	str	r3, [r5, #12]
   85f38:	60ab      	str	r3, [r5, #8]
   85f3a:	60d8      	str	r0, [r3, #12]
   85f3c:	6098      	str	r0, [r3, #8]
   85f3e:	2101      	movs	r1, #1
   85f40:	e003      	b.n	85f4a <_free_r+0xb6>
   85f42:	68e0      	ldr	r0, [r4, #12]
   85f44:	68a4      	ldr	r4, [r4, #8]
   85f46:	60e0      	str	r0, [r4, #12]
   85f48:	6084      	str	r4, [r0, #8]
   85f4a:	f042 0001 	orr.w	r0, r2, #1
   85f4e:	6058      	str	r0, [r3, #4]
   85f50:	509a      	str	r2, [r3, r2]
   85f52:	2900      	cmp	r1, #0
   85f54:	d1ce      	bne.n	85ef4 <_free_r+0x60>
   85f56:	f5b2 7f00 	cmp.w	r2, #512	; 0x200
   85f5a:	d20c      	bcs.n	85f76 <_free_r+0xe2>
   85f5c:	08d2      	lsrs	r2, r2, #3
   85f5e:	1090      	asrs	r0, r2, #2
   85f60:	2401      	movs	r4, #1
   85f62:	fa04 f400 	lsl.w	r4, r4, r0
   85f66:	4922      	ldr	r1, [pc, #136]	; (85ff0 <_free_r+0x15c>)
   85f68:	6848      	ldr	r0, [r1, #4]
   85f6a:	4320      	orrs	r0, r4
   85f6c:	6048      	str	r0, [r1, #4]
   85f6e:	eb01 00c2 	add.w	r0, r1, r2, lsl #3
   85f72:	6881      	ldr	r1, [r0, #8]
   85f74:	e035      	b.n	85fe2 <_free_r+0x14e>
   85f76:	0a54      	lsrs	r4, r2, #9
   85f78:	2c04      	cmp	r4, #4
   85f7a:	d802      	bhi.n	85f82 <_free_r+0xee>
   85f7c:	0994      	lsrs	r4, r2, #6
   85f7e:	3438      	adds	r4, #56	; 0x38
   85f80:	e016      	b.n	85fb0 <_free_r+0x11c>
   85f82:	2c14      	cmp	r4, #20
   85f84:	d801      	bhi.n	85f8a <_free_r+0xf6>
   85f86:	345b      	adds	r4, #91	; 0x5b
   85f88:	e012      	b.n	85fb0 <_free_r+0x11c>
   85f8a:	2c54      	cmp	r4, #84	; 0x54
   85f8c:	d802      	bhi.n	85f94 <_free_r+0x100>
   85f8e:	0b14      	lsrs	r4, r2, #12
   85f90:	346e      	adds	r4, #110	; 0x6e
   85f92:	e00d      	b.n	85fb0 <_free_r+0x11c>
   85f94:	f5b4 7faa 	cmp.w	r4, #340	; 0x154
   85f98:	d802      	bhi.n	85fa0 <_free_r+0x10c>
   85f9a:	0bd4      	lsrs	r4, r2, #15
   85f9c:	3477      	adds	r4, #119	; 0x77
   85f9e:	e007      	b.n	85fb0 <_free_r+0x11c>
   85fa0:	f240 5554 	movw	r5, #1364	; 0x554
   85fa4:	42ac      	cmp	r4, r5
   85fa6:	d802      	bhi.n	85fae <_free_r+0x11a>
   85fa8:	0c94      	lsrs	r4, r2, #18
   85faa:	347c      	adds	r4, #124	; 0x7c
   85fac:	e000      	b.n	85fb0 <_free_r+0x11c>
   85fae:	247e      	movs	r4, #126	; 0x7e
   85fb0:	4d0f      	ldr	r5, [pc, #60]	; (85ff0 <_free_r+0x15c>)
   85fb2:	eb05 00c4 	add.w	r0, r5, r4, lsl #3
   85fb6:	6881      	ldr	r1, [r0, #8]
   85fb8:	4281      	cmp	r1, r0
   85fba:	d10c      	bne.n	85fd6 <_free_r+0x142>
   85fbc:	2201      	movs	r2, #1
   85fbe:	10a4      	asrs	r4, r4, #2
   85fc0:	fa02 f404 	lsl.w	r4, r2, r4
   85fc4:	6868      	ldr	r0, [r5, #4]
   85fc6:	ea44 0200 	orr.w	r2, r4, r0
   85fca:	606a      	str	r2, [r5, #4]
   85fcc:	4608      	mov	r0, r1
   85fce:	e008      	b.n	85fe2 <_free_r+0x14e>
   85fd0:	6889      	ldr	r1, [r1, #8]
   85fd2:	4281      	cmp	r1, r0
   85fd4:	d004      	beq.n	85fe0 <_free_r+0x14c>
   85fd6:	684c      	ldr	r4, [r1, #4]
   85fd8:	f024 0403 	bic.w	r4, r4, #3
   85fdc:	42a2      	cmp	r2, r4
   85fde:	d3f7      	bcc.n	85fd0 <_free_r+0x13c>
   85fe0:	68c8      	ldr	r0, [r1, #12]
   85fe2:	60d8      	str	r0, [r3, #12]
   85fe4:	6099      	str	r1, [r3, #8]
   85fe6:	6083      	str	r3, [r0, #8]
   85fe8:	60cb      	str	r3, [r1, #12]
   85fea:	e783      	b.n	85ef4 <_free_r+0x60>
   85fec:	bdf8      	pop	{r3, r4, r5, r6, r7, pc}
   85fee:	bf00      	nop
   85ff0:	200704c4 	.word	0x200704c4
   85ff4:	200708d0 	.word	0x200708d0
   85ff8:	20078b60 	.word	0x20078b60
   85ffc:	200704cc 	.word	0x200704cc

00086000 <__sfvwrite_r>:
   86000:	6893      	ldr	r3, [r2, #8]
   86002:	e92d 4ff7 	stmdb	sp!, {r0, r1, r2, r4, r5, r6, r7, r8, r9, sl, fp, lr}
   86006:	4606      	mov	r6, r0
   86008:	460c      	mov	r4, r1
   8600a:	4691      	mov	r9, r2
   8600c:	b90b      	cbnz	r3, 86012 <__sfvwrite_r+0x12>
   8600e:	2000      	movs	r0, #0
   86010:	e14f      	b.n	862b2 <__sfvwrite_r+0x2b2>
   86012:	8988      	ldrh	r0, [r1, #12]
   86014:	f000 0108 	and.w	r1, r0, #8
   86018:	b20a      	sxth	r2, r1
   8601a:	b10a      	cbz	r2, 86020 <__sfvwrite_r+0x20>
   8601c:	6923      	ldr	r3, [r4, #16]
   8601e:	b95b      	cbnz	r3, 86038 <__sfvwrite_r+0x38>
   86020:	4630      	mov	r0, r6
   86022:	4621      	mov	r1, r4
   86024:	f7ff fc9a 	bl	8595c <__swsetup_r>
   86028:	b130      	cbz	r0, 86038 <__sfvwrite_r+0x38>
   8602a:	89a1      	ldrh	r1, [r4, #12]
   8602c:	2209      	movs	r2, #9
   8602e:	f041 0040 	orr.w	r0, r1, #64	; 0x40
   86032:	81a0      	strh	r0, [r4, #12]
   86034:	6032      	str	r2, [r6, #0]
   86036:	e13a      	b.n	862ae <__sfvwrite_r+0x2ae>
   86038:	f8b4 a00c 	ldrh.w	sl, [r4, #12]
   8603c:	f8d9 8000 	ldr.w	r8, [r9]
   86040:	f00a 0c02 	and.w	ip, sl, #2
   86044:	fa0f f58c 	sxth.w	r5, ip
   86048:	b315      	cbz	r5, 86090 <__sfvwrite_r+0x90>
   8604a:	f04f 0a00 	mov.w	sl, #0
   8604e:	4657      	mov	r7, sl
   86050:	b937      	cbnz	r7, 86060 <__sfvwrite_r+0x60>
   86052:	f8d8 a000 	ldr.w	sl, [r8]
   86056:	f8d8 7004 	ldr.w	r7, [r8, #4]
   8605a:	f108 0808 	add.w	r8, r8, #8
   8605e:	e7f7      	b.n	86050 <__sfvwrite_r+0x50>
   86060:	f5b7 6f80 	cmp.w	r7, #1024	; 0x400
   86064:	bf34      	ite	cc
   86066:	463b      	movcc	r3, r7
   86068:	f44f 6380 	movcs.w	r3, #1024	; 0x400
   8606c:	4630      	mov	r0, r6
   8606e:	69e1      	ldr	r1, [r4, #28]
   86070:	4652      	mov	r2, sl
   86072:	6a65      	ldr	r5, [r4, #36]	; 0x24
   86074:	47a8      	blx	r5
   86076:	2800      	cmp	r0, #0
   86078:	f340 8115 	ble.w	862a6 <__sfvwrite_r+0x2a6>
   8607c:	f8d9 1008 	ldr.w	r1, [r9, #8]
   86080:	4482      	add	sl, r0
   86082:	1a3f      	subs	r7, r7, r0
   86084:	1a08      	subs	r0, r1, r0
   86086:	f8c9 0008 	str.w	r0, [r9, #8]
   8608a:	2800      	cmp	r0, #0
   8608c:	d1e0      	bne.n	86050 <__sfvwrite_r+0x50>
   8608e:	e7be      	b.n	8600e <__sfvwrite_r+0xe>
   86090:	f01a 0a01 	ands.w	sl, sl, #1
   86094:	d004      	beq.n	860a0 <__sfvwrite_r+0xa0>
   86096:	46ab      	mov	fp, r5
   86098:	9501      	str	r5, [sp, #4]
   8609a:	462f      	mov	r7, r5
   8609c:	46aa      	mov	sl, r5
   8609e:	e0c7      	b.n	86230 <__sfvwrite_r+0x230>
   860a0:	4655      	mov	r5, sl
   860a2:	b935      	cbnz	r5, 860b2 <__sfvwrite_r+0xb2>
   860a4:	f8d8 a000 	ldr.w	sl, [r8]
   860a8:	f8d8 5004 	ldr.w	r5, [r8, #4]
   860ac:	f108 0808 	add.w	r8, r8, #8
   860b0:	e7f7      	b.n	860a2 <__sfvwrite_r+0xa2>
   860b2:	89a2      	ldrh	r2, [r4, #12]
   860b4:	f8d4 b008 	ldr.w	fp, [r4, #8]
   860b8:	f402 7000 	and.w	r0, r2, #512	; 0x200
   860bc:	b203      	sxth	r3, r0
   860be:	2b00      	cmp	r3, #0
   860c0:	d052      	beq.n	86168 <__sfvwrite_r+0x168>
   860c2:	455d      	cmp	r5, fp
   860c4:	d340      	bcc.n	86148 <__sfvwrite_r+0x148>
   860c6:	f412 6f90 	tst.w	r2, #1152	; 0x480
   860ca:	d03b      	beq.n	86144 <__sfvwrite_r+0x144>
   860cc:	6963      	ldr	r3, [r4, #20]
   860ce:	f04f 0b03 	mov.w	fp, #3
   860d2:	fb0b f303 	mul.w	r3, fp, r3
   860d6:	6921      	ldr	r1, [r4, #16]
   860d8:	6827      	ldr	r7, [r4, #0]
   860da:	2002      	movs	r0, #2
   860dc:	1a7f      	subs	r7, r7, r1
   860de:	fb93 fcf0 	sdiv	ip, r3, r0
   860e2:	1c7b      	adds	r3, r7, #1
   860e4:	1958      	adds	r0, r3, r5
   860e6:	f402 6280 	and.w	r2, r2, #1024	; 0x400
   860ea:	4584      	cmp	ip, r0
   860ec:	bf28      	it	cs
   860ee:	4660      	movcs	r0, ip
   860f0:	b213      	sxth	r3, r2
   860f2:	9001      	str	r0, [sp, #4]
   860f4:	4630      	mov	r0, r6
   860f6:	b17b      	cbz	r3, 86118 <__sfvwrite_r+0x118>
   860f8:	9901      	ldr	r1, [sp, #4]
   860fa:	f000 f9df 	bl	864bc <_malloc_r>
   860fe:	4683      	mov	fp, r0
   86100:	b198      	cbz	r0, 8612a <__sfvwrite_r+0x12a>
   86102:	6921      	ldr	r1, [r4, #16]
   86104:	463a      	mov	r2, r7
   86106:	f7fe fab1 	bl	8466c <memcpy>
   8610a:	89a1      	ldrh	r1, [r4, #12]
   8610c:	f421 6090 	bic.w	r0, r1, #1152	; 0x480
   86110:	f040 0280 	orr.w	r2, r0, #128	; 0x80
   86114:	81a2      	strh	r2, [r4, #12]
   86116:	e00b      	b.n	86130 <__sfvwrite_r+0x130>
   86118:	9a01      	ldr	r2, [sp, #4]
   8611a:	f000 fbfb 	bl	86914 <_realloc_r>
   8611e:	4683      	mov	fp, r0
   86120:	b930      	cbnz	r0, 86130 <__sfvwrite_r+0x130>
   86122:	4630      	mov	r0, r6
   86124:	6921      	ldr	r1, [r4, #16]
   86126:	f7ff feb5 	bl	85e94 <_free_r>
   8612a:	230c      	movs	r3, #12
   8612c:	6033      	str	r3, [r6, #0]
   8612e:	e0ba      	b.n	862a6 <__sfvwrite_r+0x2a6>
   86130:	9901      	ldr	r1, [sp, #4]
   86132:	eb0b 0307 	add.w	r3, fp, r7
   86136:	1bcf      	subs	r7, r1, r7
   86138:	f8c4 b010 	str.w	fp, [r4, #16]
   8613c:	6023      	str	r3, [r4, #0]
   8613e:	6161      	str	r1, [r4, #20]
   86140:	46ab      	mov	fp, r5
   86142:	60a7      	str	r7, [r4, #8]
   86144:	455d      	cmp	r5, fp
   86146:	d200      	bcs.n	8614a <__sfvwrite_r+0x14a>
   86148:	46ab      	mov	fp, r5
   8614a:	465a      	mov	r2, fp
   8614c:	4651      	mov	r1, sl
   8614e:	6820      	ldr	r0, [r4, #0]
   86150:	f000 fbc4 	bl	868dc <memmove>
   86154:	68a0      	ldr	r0, [r4, #8]
   86156:	6823      	ldr	r3, [r4, #0]
   86158:	ebcb 0200 	rsb	r2, fp, r0
   8615c:	eb03 010b 	add.w	r1, r3, fp
   86160:	60a2      	str	r2, [r4, #8]
   86162:	6021      	str	r1, [r4, #0]
   86164:	46ab      	mov	fp, r5
   86166:	e02a      	b.n	861be <__sfvwrite_r+0x1be>
   86168:	6820      	ldr	r0, [r4, #0]
   8616a:	6921      	ldr	r1, [r4, #16]
   8616c:	4288      	cmp	r0, r1
   8616e:	d90f      	bls.n	86190 <__sfvwrite_r+0x190>
   86170:	455d      	cmp	r5, fp
   86172:	d90d      	bls.n	86190 <__sfvwrite_r+0x190>
   86174:	4651      	mov	r1, sl
   86176:	465a      	mov	r2, fp
   86178:	f000 fbb0 	bl	868dc <memmove>
   8617c:	6822      	ldr	r2, [r4, #0]
   8617e:	4621      	mov	r1, r4
   86180:	eb02 000b 	add.w	r0, r2, fp
   86184:	6020      	str	r0, [r4, #0]
   86186:	4630      	mov	r0, r6
   86188:	f7ff fc54 	bl	85a34 <_fflush_r>
   8618c:	b1b8      	cbz	r0, 861be <__sfvwrite_r+0x1be>
   8618e:	e08a      	b.n	862a6 <__sfvwrite_r+0x2a6>
   86190:	6963      	ldr	r3, [r4, #20]
   86192:	429d      	cmp	r5, r3
   86194:	d308      	bcc.n	861a8 <__sfvwrite_r+0x1a8>
   86196:	6a67      	ldr	r7, [r4, #36]	; 0x24
   86198:	4630      	mov	r0, r6
   8619a:	69e1      	ldr	r1, [r4, #28]
   8619c:	4652      	mov	r2, sl
   8619e:	47b8      	blx	r7
   861a0:	f1b0 0b00 	subs.w	fp, r0, #0
   861a4:	dc0b      	bgt.n	861be <__sfvwrite_r+0x1be>
   861a6:	e07e      	b.n	862a6 <__sfvwrite_r+0x2a6>
   861a8:	4651      	mov	r1, sl
   861aa:	462a      	mov	r2, r5
   861ac:	f000 fb96 	bl	868dc <memmove>
   861b0:	68a2      	ldr	r2, [r4, #8]
   861b2:	6823      	ldr	r3, [r4, #0]
   861b4:	1b50      	subs	r0, r2, r5
   861b6:	1959      	adds	r1, r3, r5
   861b8:	46ab      	mov	fp, r5
   861ba:	60a0      	str	r0, [r4, #8]
   861bc:	6021      	str	r1, [r4, #0]
   861be:	f8d9 0008 	ldr.w	r0, [r9, #8]
   861c2:	44da      	add	sl, fp
   861c4:	ebcb 0200 	rsb	r2, fp, r0
   861c8:	ebcb 0505 	rsb	r5, fp, r5
   861cc:	f8c9 2008 	str.w	r2, [r9, #8]
   861d0:	2a00      	cmp	r2, #0
   861d2:	f47f af66 	bne.w	860a2 <__sfvwrite_r+0xa2>
   861d6:	e71a      	b.n	8600e <__sfvwrite_r+0xe>
   861d8:	9801      	ldr	r0, [sp, #4]
   861da:	2800      	cmp	r0, #0
   861dc:	d032      	beq.n	86244 <__sfvwrite_r+0x244>
   861de:	6820      	ldr	r0, [r4, #0]
   861e0:	6921      	ldr	r1, [r4, #16]
   861e2:	45d3      	cmp	fp, sl
   861e4:	bf34      	ite	cc
   861e6:	465b      	movcc	r3, fp
   861e8:	4653      	movcs	r3, sl
   861ea:	4288      	cmp	r0, r1
   861ec:	68a5      	ldr	r5, [r4, #8]
   861ee:	f8d4 e014 	ldr.w	lr, [r4, #20]
   861f2:	d937      	bls.n	86264 <__sfvwrite_r+0x264>
   861f4:	4475      	add	r5, lr
   861f6:	42ab      	cmp	r3, r5
   861f8:	dd34      	ble.n	86264 <__sfvwrite_r+0x264>
   861fa:	4639      	mov	r1, r7
   861fc:	462a      	mov	r2, r5
   861fe:	f000 fb6d 	bl	868dc <memmove>
   86202:	6820      	ldr	r0, [r4, #0]
   86204:	4621      	mov	r1, r4
   86206:	1943      	adds	r3, r0, r5
   86208:	6023      	str	r3, [r4, #0]
   8620a:	4630      	mov	r0, r6
   8620c:	f7ff fc12 	bl	85a34 <_fflush_r>
   86210:	2800      	cmp	r0, #0
   86212:	d148      	bne.n	862a6 <__sfvwrite_r+0x2a6>
   86214:	ebbb 0b05 	subs.w	fp, fp, r5
   86218:	d03d      	beq.n	86296 <__sfvwrite_r+0x296>
   8621a:	f8d9 2008 	ldr.w	r2, [r9, #8]
   8621e:	197f      	adds	r7, r7, r5
   86220:	ebc5 0a0a 	rsb	sl, r5, sl
   86224:	1b55      	subs	r5, r2, r5
   86226:	f8c9 5008 	str.w	r5, [r9, #8]
   8622a:	2d00      	cmp	r5, #0
   8622c:	f43f aeef 	beq.w	8600e <__sfvwrite_r+0xe>
   86230:	f1ba 0f00 	cmp.w	sl, #0
   86234:	d1d0      	bne.n	861d8 <__sfvwrite_r+0x1d8>
   86236:	2100      	movs	r1, #0
   86238:	e898 0480 	ldmia.w	r8, {r7, sl}
   8623c:	9101      	str	r1, [sp, #4]
   8623e:	f108 0808 	add.w	r8, r8, #8
   86242:	e7f5      	b.n	86230 <__sfvwrite_r+0x230>
   86244:	4638      	mov	r0, r7
   86246:	210a      	movs	r1, #10
   86248:	4652      	mov	r2, sl
   8624a:	f000 fb39 	bl	868c0 <memchr>
   8624e:	b120      	cbz	r0, 8625a <__sfvwrite_r+0x25a>
   86250:	f100 0101 	add.w	r1, r0, #1
   86254:	ebc7 0b01 	rsb	fp, r7, r1
   86258:	e001      	b.n	8625e <__sfvwrite_r+0x25e>
   8625a:	f10a 0b01 	add.w	fp, sl, #1
   8625e:	2201      	movs	r2, #1
   86260:	9201      	str	r2, [sp, #4]
   86262:	e7bc      	b.n	861de <__sfvwrite_r+0x1de>
   86264:	4573      	cmp	r3, lr
   86266:	db08      	blt.n	8627a <__sfvwrite_r+0x27a>
   86268:	6a65      	ldr	r5, [r4, #36]	; 0x24
   8626a:	4630      	mov	r0, r6
   8626c:	69e1      	ldr	r1, [r4, #28]
   8626e:	463a      	mov	r2, r7
   86270:	4673      	mov	r3, lr
   86272:	47a8      	blx	r5
   86274:	1e05      	subs	r5, r0, #0
   86276:	dccd      	bgt.n	86214 <__sfvwrite_r+0x214>
   86278:	e015      	b.n	862a6 <__sfvwrite_r+0x2a6>
   8627a:	461a      	mov	r2, r3
   8627c:	4639      	mov	r1, r7
   8627e:	9300      	str	r3, [sp, #0]
   86280:	f000 fb2c 	bl	868dc <memmove>
   86284:	9b00      	ldr	r3, [sp, #0]
   86286:	6825      	ldr	r5, [r4, #0]
   86288:	68a0      	ldr	r0, [r4, #8]
   8628a:	18e9      	adds	r1, r5, r3
   8628c:	1ac2      	subs	r2, r0, r3
   8628e:	60a2      	str	r2, [r4, #8]
   86290:	6021      	str	r1, [r4, #0]
   86292:	461d      	mov	r5, r3
   86294:	e7be      	b.n	86214 <__sfvwrite_r+0x214>
   86296:	4630      	mov	r0, r6
   86298:	4621      	mov	r1, r4
   8629a:	f7ff fbcb 	bl	85a34 <_fflush_r>
   8629e:	b910      	cbnz	r0, 862a6 <__sfvwrite_r+0x2a6>
   862a0:	f8cd b004 	str.w	fp, [sp, #4]
   862a4:	e7b9      	b.n	8621a <__sfvwrite_r+0x21a>
   862a6:	89a2      	ldrh	r2, [r4, #12]
   862a8:	f042 0340 	orr.w	r3, r2, #64	; 0x40
   862ac:	81a3      	strh	r3, [r4, #12]
   862ae:	f04f 30ff 	mov.w	r0, #4294967295
   862b2:	e8bd 8ffe 	ldmia.w	sp!, {r1, r2, r3, r4, r5, r6, r7, r8, r9, sl, fp, pc}

000862b6 <_fwalk>:
   862b6:	e92d 41f0 	stmdb	sp!, {r4, r5, r6, r7, r8, lr}
   862ba:	4604      	mov	r4, r0
   862bc:	4688      	mov	r8, r1
   862be:	f7ff fd0f 	bl	85ce0 <__sfp_lock_acquire>
   862c2:	f504 7438 	add.w	r4, r4, #736	; 0x2e0
   862c6:	2600      	movs	r6, #0
   862c8:	b18c      	cbz	r4, 862ee <_fwalk+0x38>
   862ca:	68a5      	ldr	r5, [r4, #8]
   862cc:	6867      	ldr	r7, [r4, #4]
   862ce:	3f01      	subs	r7, #1
   862d0:	d40b      	bmi.n	862ea <_fwalk+0x34>
   862d2:	f9b5 300c 	ldrsh.w	r3, [r5, #12]
   862d6:	b133      	cbz	r3, 862e6 <_fwalk+0x30>
   862d8:	f9b5 000e 	ldrsh.w	r0, [r5, #14]
   862dc:	1c43      	adds	r3, r0, #1
   862de:	d002      	beq.n	862e6 <_fwalk+0x30>
   862e0:	4628      	mov	r0, r5
   862e2:	47c0      	blx	r8
   862e4:	4306      	orrs	r6, r0
   862e6:	3568      	adds	r5, #104	; 0x68
   862e8:	e7f1      	b.n	862ce <_fwalk+0x18>
   862ea:	6824      	ldr	r4, [r4, #0]
   862ec:	e7ec      	b.n	862c8 <_fwalk+0x12>
   862ee:	f7ff fcf8 	bl	85ce2 <__sfp_lock_release>
   862f2:	4630      	mov	r0, r6
   862f4:	e8bd 81f0 	ldmia.w	sp!, {r4, r5, r6, r7, r8, pc}

000862f8 <_fwalk_reent>:
   862f8:	e92d 43f8 	stmdb	sp!, {r3, r4, r5, r6, r7, r8, r9, lr}
   862fc:	4680      	mov	r8, r0
   862fe:	4689      	mov	r9, r1
   86300:	f7ff fcee 	bl	85ce0 <__sfp_lock_acquire>
   86304:	f508 7438 	add.w	r4, r8, #736	; 0x2e0
   86308:	2600      	movs	r6, #0
   8630a:	b194      	cbz	r4, 86332 <_fwalk_reent+0x3a>
   8630c:	68a5      	ldr	r5, [r4, #8]
   8630e:	6867      	ldr	r7, [r4, #4]
   86310:	3f01      	subs	r7, #1
   86312:	d40c      	bmi.n	8632e <_fwalk_reent+0x36>
   86314:	f9b5 300c 	ldrsh.w	r3, [r5, #12]
   86318:	b13b      	cbz	r3, 8632a <_fwalk_reent+0x32>
   8631a:	f9b5 000e 	ldrsh.w	r0, [r5, #14]
   8631e:	1c43      	adds	r3, r0, #1
   86320:	d003      	beq.n	8632a <_fwalk_reent+0x32>
   86322:	4640      	mov	r0, r8
   86324:	4629      	mov	r1, r5
   86326:	47c8      	blx	r9
   86328:	4306      	orrs	r6, r0
   8632a:	3568      	adds	r5, #104	; 0x68
   8632c:	e7f0      	b.n	86310 <_fwalk_reent+0x18>
   8632e:	6824      	ldr	r4, [r4, #0]
   86330:	e7eb      	b.n	8630a <_fwalk_reent+0x12>
   86332:	f7ff fcd6 	bl	85ce2 <__sfp_lock_release>
   86336:	4630      	mov	r0, r6
   86338:	e8bd 83f8 	ldmia.w	sp!, {r3, r4, r5, r6, r7, r8, r9, pc}

0008633c <_setlocale_r>:
   8633c:	b510      	push	{r4, lr}
   8633e:	4614      	mov	r4, r2
   86340:	b90a      	cbnz	r2, 86346 <_setlocale_r+0xa>
   86342:	480c      	ldr	r0, [pc, #48]	; (86374 <_setlocale_r+0x38>)
   86344:	bd10      	pop	{r4, pc}
   86346:	4610      	mov	r0, r2
   86348:	490b      	ldr	r1, [pc, #44]	; (86378 <_setlocale_r+0x3c>)
   8634a:	f000 fca8 	bl	86c9e <strcmp>
   8634e:	2800      	cmp	r0, #0
   86350:	d0f7      	beq.n	86342 <_setlocale_r+0x6>
   86352:	4620      	mov	r0, r4
   86354:	4907      	ldr	r1, [pc, #28]	; (86374 <_setlocale_r+0x38>)
   86356:	f000 fca2 	bl	86c9e <strcmp>
   8635a:	2800      	cmp	r0, #0
   8635c:	d0f1      	beq.n	86342 <_setlocale_r+0x6>
   8635e:	4620      	mov	r0, r4
   86360:	4906      	ldr	r1, [pc, #24]	; (8637c <_setlocale_r+0x40>)
   86362:	f000 fc9c 	bl	86c9e <strcmp>
   86366:	4b03      	ldr	r3, [pc, #12]	; (86374 <_setlocale_r+0x38>)
   86368:	2800      	cmp	r0, #0
   8636a:	bf0c      	ite	eq
   8636c:	4618      	moveq	r0, r3
   8636e:	2000      	movne	r0, #0
   86370:	bd10      	pop	{r4, pc}
   86372:	bf00      	nop
   86374:	00087ed4 	.word	0x00087ed4
   86378:	00087f38 	.word	0x00087f38
   8637c:	00087f3f 	.word	0x00087f3f

00086380 <__locale_charset>:
   86380:	4800      	ldr	r0, [pc, #0]	; (86384 <__locale_charset+0x4>)
   86382:	4770      	bx	lr
   86384:	20070448 	.word	0x20070448

00086388 <__locale_mb_cur_max>:
   86388:	4b01      	ldr	r3, [pc, #4]	; (86390 <__locale_mb_cur_max+0x8>)
   8638a:	6a18      	ldr	r0, [r3, #32]
   8638c:	4770      	bx	lr
   8638e:	bf00      	nop
   86390:	20070448 	.word	0x20070448

00086394 <__locale_msgcharset>:
   86394:	4800      	ldr	r0, [pc, #0]	; (86398 <__locale_msgcharset+0x4>)
   86396:	4770      	bx	lr
   86398:	2007046c 	.word	0x2007046c

0008639c <__locale_cjk_lang>:
   8639c:	2000      	movs	r0, #0
   8639e:	4770      	bx	lr

000863a0 <_localeconv_r>:
   863a0:	4800      	ldr	r0, [pc, #0]	; (863a4 <_localeconv_r+0x4>)
   863a2:	4770      	bx	lr
   863a4:	2007048c 	.word	0x2007048c

000863a8 <setlocale>:
   863a8:	460a      	mov	r2, r1
   863aa:	4903      	ldr	r1, [pc, #12]	; (863b8 <setlocale+0x10>)
   863ac:	4603      	mov	r3, r0
   863ae:	6808      	ldr	r0, [r1, #0]
   863b0:	4619      	mov	r1, r3
   863b2:	f7ff bfc3 	b.w	8633c <_setlocale_r>
   863b6:	bf00      	nop
   863b8:	20070018 	.word	0x20070018

000863bc <localeconv>:
   863bc:	4800      	ldr	r0, [pc, #0]	; (863c0 <localeconv+0x4>)
   863be:	4770      	bx	lr
   863c0:	2007048c 	.word	0x2007048c

000863c4 <__smakebuf_r>:
   863c4:	b5f0      	push	{r4, r5, r6, r7, lr}
   863c6:	898b      	ldrh	r3, [r1, #12]
   863c8:	460c      	mov	r4, r1
   863ca:	f003 0102 	and.w	r1, r3, #2
   863ce:	b20a      	sxth	r2, r1
   863d0:	b091      	sub	sp, #68	; 0x44
   863d2:	4606      	mov	r6, r0
   863d4:	2a00      	cmp	r2, #0
   863d6:	d13f      	bne.n	86458 <__smakebuf_r+0x94>
   863d8:	f9b4 100e 	ldrsh.w	r1, [r4, #14]
   863dc:	2900      	cmp	r1, #0
   863de:	da0d      	bge.n	863fc <__smakebuf_r+0x38>
   863e0:	89a7      	ldrh	r7, [r4, #12]
   863e2:	f007 0280 	and.w	r2, r7, #128	; 0x80
   863e6:	f447 6300 	orr.w	r3, r7, #2048	; 0x800
   863ea:	b210      	sxth	r0, r2
   863ec:	2800      	cmp	r0, #0
   863ee:	bf0c      	ite	eq
   863f0:	f44f 6580 	moveq.w	r5, #1024	; 0x400
   863f4:	2540      	movne	r5, #64	; 0x40
   863f6:	81a3      	strh	r3, [r4, #12]
   863f8:	2700      	movs	r7, #0
   863fa:	e020      	b.n	8643e <__smakebuf_r+0x7a>
   863fc:	aa01      	add	r2, sp, #4
   863fe:	f001 f9ef 	bl	877e0 <_fstat_r>
   86402:	2800      	cmp	r0, #0
   86404:	dbec      	blt.n	863e0 <__smakebuf_r+0x1c>
   86406:	9802      	ldr	r0, [sp, #8]
   86408:	f400 4570 	and.w	r5, r0, #61440	; 0xf000
   8640c:	f5b5 5300 	subs.w	r3, r5, #8192	; 0x2000
   86410:	425f      	negs	r7, r3
   86412:	415f      	adcs	r7, r3
   86414:	f5b5 4f00 	cmp.w	r5, #32768	; 0x8000
   86418:	d10b      	bne.n	86432 <__smakebuf_r+0x6e>
   8641a:	6aa1      	ldr	r1, [r4, #40]	; 0x28
   8641c:	4a1d      	ldr	r2, [pc, #116]	; (86494 <__smakebuf_r+0xd0>)
   8641e:	4291      	cmp	r1, r2
   86420:	d107      	bne.n	86432 <__smakebuf_r+0x6e>
   86422:	89a3      	ldrh	r3, [r4, #12]
   86424:	f44f 6580 	mov.w	r5, #1024	; 0x400
   86428:	f443 6180 	orr.w	r1, r3, #1024	; 0x400
   8642c:	81a1      	strh	r1, [r4, #12]
   8642e:	64e5      	str	r5, [r4, #76]	; 0x4c
   86430:	e005      	b.n	8643e <__smakebuf_r+0x7a>
   86432:	89a0      	ldrh	r0, [r4, #12]
   86434:	f440 6500 	orr.w	r5, r0, #2048	; 0x800
   86438:	81a5      	strh	r5, [r4, #12]
   8643a:	f44f 6580 	mov.w	r5, #1024	; 0x400
   8643e:	4630      	mov	r0, r6
   86440:	4629      	mov	r1, r5
   86442:	f000 f83b 	bl	864bc <_malloc_r>
   86446:	b970      	cbnz	r0, 86466 <__smakebuf_r+0xa2>
   86448:	89a3      	ldrh	r3, [r4, #12]
   8644a:	f403 7200 	and.w	r2, r3, #512	; 0x200
   8644e:	b210      	sxth	r0, r2
   86450:	b9e8      	cbnz	r0, 8648e <__smakebuf_r+0xca>
   86452:	f043 0102 	orr.w	r1, r3, #2
   86456:	81a1      	strh	r1, [r4, #12]
   86458:	f104 0343 	add.w	r3, r4, #67	; 0x43
   8645c:	2201      	movs	r2, #1
   8645e:	6023      	str	r3, [r4, #0]
   86460:	6123      	str	r3, [r4, #16]
   86462:	6162      	str	r2, [r4, #20]
   86464:	e013      	b.n	8648e <__smakebuf_r+0xca>
   86466:	89a2      	ldrh	r2, [r4, #12]
   86468:	490b      	ldr	r1, [pc, #44]	; (86498 <__smakebuf_r+0xd4>)
   8646a:	f042 0380 	orr.w	r3, r2, #128	; 0x80
   8646e:	63f1      	str	r1, [r6, #60]	; 0x3c
   86470:	81a3      	strh	r3, [r4, #12]
   86472:	6020      	str	r0, [r4, #0]
   86474:	6120      	str	r0, [r4, #16]
   86476:	6165      	str	r5, [r4, #20]
   86478:	b14f      	cbz	r7, 8648e <__smakebuf_r+0xca>
   8647a:	4630      	mov	r0, r6
   8647c:	f9b4 100e 	ldrsh.w	r1, [r4, #14]
   86480:	f001 f9c0 	bl	87804 <_isatty_r>
   86484:	b118      	cbz	r0, 8648e <__smakebuf_r+0xca>
   86486:	89a0      	ldrh	r0, [r4, #12]
   86488:	f040 0101 	orr.w	r1, r0, #1
   8648c:	81a1      	strh	r1, [r4, #12]
   8648e:	b011      	add	sp, #68	; 0x44
   86490:	bdf0      	pop	{r4, r5, r6, r7, pc}
   86492:	bf00      	nop
   86494:	00086c73 	.word	0x00086c73
   86498:	00085b8d 	.word	0x00085b8d

0008649c <malloc>:
   8649c:	4b02      	ldr	r3, [pc, #8]	; (864a8 <malloc+0xc>)
   8649e:	4601      	mov	r1, r0
   864a0:	6818      	ldr	r0, [r3, #0]
   864a2:	f000 b80b 	b.w	864bc <_malloc_r>
   864a6:	bf00      	nop
   864a8:	20070018 	.word	0x20070018

000864ac <free>:
   864ac:	4b02      	ldr	r3, [pc, #8]	; (864b8 <free+0xc>)
   864ae:	4601      	mov	r1, r0
   864b0:	6818      	ldr	r0, [r3, #0]
   864b2:	f7ff bcef 	b.w	85e94 <_free_r>
   864b6:	bf00      	nop
   864b8:	20070018 	.word	0x20070018

000864bc <_malloc_r>:
   864bc:	e92d 47f0 	stmdb	sp!, {r4, r5, r6, r7, r8, r9, sl, lr}
   864c0:	f101 040b 	add.w	r4, r1, #11
   864c4:	2c16      	cmp	r4, #22
   864c6:	4606      	mov	r6, r0
   864c8:	d903      	bls.n	864d2 <_malloc_r+0x16>
   864ca:	f034 0407 	bics.w	r4, r4, #7
   864ce:	d501      	bpl.n	864d4 <_malloc_r+0x18>
   864d0:	e002      	b.n	864d8 <_malloc_r+0x1c>
   864d2:	2410      	movs	r4, #16
   864d4:	428c      	cmp	r4, r1
   864d6:	d202      	bcs.n	864de <_malloc_r+0x22>
   864d8:	250c      	movs	r5, #12
   864da:	6035      	str	r5, [r6, #0]
   864dc:	e1d9      	b.n	86892 <_malloc_r+0x3d6>
   864de:	4630      	mov	r0, r6
   864e0:	f000 fa16 	bl	86910 <__malloc_lock>
   864e4:	f5b4 7ffc 	cmp.w	r4, #504	; 0x1f8
   864e8:	d214      	bcs.n	86514 <_malloc_r+0x58>
   864ea:	4da0      	ldr	r5, [pc, #640]	; (8676c <_malloc_r+0x2b0>)
   864ec:	08e1      	lsrs	r1, r4, #3
   864ee:	eb05 00c1 	add.w	r0, r5, r1, lsl #3
   864f2:	68c5      	ldr	r5, [r0, #12]
   864f4:	4285      	cmp	r5, r0
   864f6:	d105      	bne.n	86504 <_malloc_r+0x48>
   864f8:	f105 0308 	add.w	r3, r5, #8
   864fc:	696d      	ldr	r5, [r5, #20]
   864fe:	1c8a      	adds	r2, r1, #2
   86500:	429d      	cmp	r5, r3
   86502:	d044      	beq.n	8658e <_malloc_r+0xd2>
   86504:	68e8      	ldr	r0, [r5, #12]
   86506:	68a9      	ldr	r1, [r5, #8]
   86508:	686a      	ldr	r2, [r5, #4]
   8650a:	60c8      	str	r0, [r1, #12]
   8650c:	f022 0303 	bic.w	r3, r2, #3
   86510:	6081      	str	r1, [r0, #8]
   86512:	e059      	b.n	865c8 <_malloc_r+0x10c>
   86514:	0a62      	lsrs	r2, r4, #9
   86516:	d101      	bne.n	8651c <_malloc_r+0x60>
   86518:	08e2      	lsrs	r2, r4, #3
   8651a:	e01b      	b.n	86554 <_malloc_r+0x98>
   8651c:	2a04      	cmp	r2, #4
   8651e:	d802      	bhi.n	86526 <_malloc_r+0x6a>
   86520:	09a2      	lsrs	r2, r4, #6
   86522:	3238      	adds	r2, #56	; 0x38
   86524:	e016      	b.n	86554 <_malloc_r+0x98>
   86526:	2a14      	cmp	r2, #20
   86528:	d801      	bhi.n	8652e <_malloc_r+0x72>
   8652a:	325b      	adds	r2, #91	; 0x5b
   8652c:	e012      	b.n	86554 <_malloc_r+0x98>
   8652e:	2a54      	cmp	r2, #84	; 0x54
   86530:	d802      	bhi.n	86538 <_malloc_r+0x7c>
   86532:	0b22      	lsrs	r2, r4, #12
   86534:	326e      	adds	r2, #110	; 0x6e
   86536:	e00d      	b.n	86554 <_malloc_r+0x98>
   86538:	f5b2 7faa 	cmp.w	r2, #340	; 0x154
   8653c:	d802      	bhi.n	86544 <_malloc_r+0x88>
   8653e:	0be2      	lsrs	r2, r4, #15
   86540:	3277      	adds	r2, #119	; 0x77
   86542:	e007      	b.n	86554 <_malloc_r+0x98>
   86544:	f240 5354 	movw	r3, #1364	; 0x554
   86548:	429a      	cmp	r2, r3
   8654a:	d802      	bhi.n	86552 <_malloc_r+0x96>
   8654c:	0ca2      	lsrs	r2, r4, #18
   8654e:	327c      	adds	r2, #124	; 0x7c
   86550:	e000      	b.n	86554 <_malloc_r+0x98>
   86552:	227e      	movs	r2, #126	; 0x7e
   86554:	4885      	ldr	r0, [pc, #532]	; (8676c <_malloc_r+0x2b0>)
   86556:	eb00 03c2 	add.w	r3, r0, r2, lsl #3
   8655a:	68dd      	ldr	r5, [r3, #12]
   8655c:	429d      	cmp	r5, r3
   8655e:	d015      	beq.n	8658c <_malloc_r+0xd0>
   86560:	6869      	ldr	r1, [r5, #4]
   86562:	f021 0103 	bic.w	r1, r1, #3
   86566:	1b08      	subs	r0, r1, r4
   86568:	280f      	cmp	r0, #15
   8656a:	dd01      	ble.n	86570 <_malloc_r+0xb4>
   8656c:	3a01      	subs	r2, #1
   8656e:	e00d      	b.n	8658c <_malloc_r+0xd0>
   86570:	2800      	cmp	r0, #0
   86572:	db09      	blt.n	86588 <_malloc_r+0xcc>
   86574:	68eb      	ldr	r3, [r5, #12]
   86576:	68aa      	ldr	r2, [r5, #8]
   86578:	60d3      	str	r3, [r2, #12]
   8657a:	609a      	str	r2, [r3, #8]
   8657c:	186b      	adds	r3, r5, r1
   8657e:	685a      	ldr	r2, [r3, #4]
   86580:	f042 0001 	orr.w	r0, r2, #1
   86584:	6058      	str	r0, [r3, #4]
   86586:	e190      	b.n	868aa <_malloc_r+0x3ee>
   86588:	68ed      	ldr	r5, [r5, #12]
   8658a:	e7e7      	b.n	8655c <_malloc_r+0xa0>
   8658c:	3201      	adds	r2, #1
   8658e:	4977      	ldr	r1, [pc, #476]	; (8676c <_malloc_r+0x2b0>)
   86590:	690d      	ldr	r5, [r1, #16]
   86592:	f101 0708 	add.w	r7, r1, #8
   86596:	42bd      	cmp	r5, r7
   86598:	d068      	beq.n	8666c <_malloc_r+0x1b0>
   8659a:	6868      	ldr	r0, [r5, #4]
   8659c:	f020 0303 	bic.w	r3, r0, #3
   865a0:	1b18      	subs	r0, r3, r4
   865a2:	280f      	cmp	r0, #15
   865a4:	dd0c      	ble.n	865c0 <_malloc_r+0x104>
   865a6:	192b      	adds	r3, r5, r4
   865a8:	614b      	str	r3, [r1, #20]
   865aa:	610b      	str	r3, [r1, #16]
   865ac:	f044 0401 	orr.w	r4, r4, #1
   865b0:	f040 0101 	orr.w	r1, r0, #1
   865b4:	606c      	str	r4, [r5, #4]
   865b6:	60df      	str	r7, [r3, #12]
   865b8:	609f      	str	r7, [r3, #8]
   865ba:	6059      	str	r1, [r3, #4]
   865bc:	5018      	str	r0, [r3, r0]
   865be:	e174      	b.n	868aa <_malloc_r+0x3ee>
   865c0:	2800      	cmp	r0, #0
   865c2:	614f      	str	r7, [r1, #20]
   865c4:	610f      	str	r7, [r1, #16]
   865c6:	db01      	blt.n	865cc <_malloc_r+0x110>
   865c8:	18eb      	adds	r3, r5, r3
   865ca:	e7d8      	b.n	8657e <_malloc_r+0xc2>
   865cc:	f5b3 7f00 	cmp.w	r3, #512	; 0x200
   865d0:	d20f      	bcs.n	865f2 <_malloc_r+0x136>
   865d2:	08db      	lsrs	r3, r3, #3
   865d4:	1098      	asrs	r0, r3, #2
   865d6:	2701      	movs	r7, #1
   865d8:	fa07 f700 	lsl.w	r7, r7, r0
   865dc:	6848      	ldr	r0, [r1, #4]
   865de:	4307      	orrs	r7, r0
   865e0:	604f      	str	r7, [r1, #4]
   865e2:	eb01 01c3 	add.w	r1, r1, r3, lsl #3
   865e6:	688b      	ldr	r3, [r1, #8]
   865e8:	60e9      	str	r1, [r5, #12]
   865ea:	60ab      	str	r3, [r5, #8]
   865ec:	60dd      	str	r5, [r3, #12]
   865ee:	608d      	str	r5, [r1, #8]
   865f0:	e03c      	b.n	8666c <_malloc_r+0x1b0>
   865f2:	0a58      	lsrs	r0, r3, #9
   865f4:	2804      	cmp	r0, #4
   865f6:	d802      	bhi.n	865fe <_malloc_r+0x142>
   865f8:	0998      	lsrs	r0, r3, #6
   865fa:	3038      	adds	r0, #56	; 0x38
   865fc:	e016      	b.n	8662c <_malloc_r+0x170>
   865fe:	2814      	cmp	r0, #20
   86600:	d801      	bhi.n	86606 <_malloc_r+0x14a>
   86602:	305b      	adds	r0, #91	; 0x5b
   86604:	e012      	b.n	8662c <_malloc_r+0x170>
   86606:	2854      	cmp	r0, #84	; 0x54
   86608:	d802      	bhi.n	86610 <_malloc_r+0x154>
   8660a:	0b18      	lsrs	r0, r3, #12
   8660c:	306e      	adds	r0, #110	; 0x6e
   8660e:	e00d      	b.n	8662c <_malloc_r+0x170>
   86610:	f5b0 7faa 	cmp.w	r0, #340	; 0x154
   86614:	d802      	bhi.n	8661c <_malloc_r+0x160>
   86616:	0bd8      	lsrs	r0, r3, #15
   86618:	3077      	adds	r0, #119	; 0x77
   8661a:	e007      	b.n	8662c <_malloc_r+0x170>
   8661c:	f240 5754 	movw	r7, #1364	; 0x554
   86620:	42b8      	cmp	r0, r7
   86622:	d802      	bhi.n	8662a <_malloc_r+0x16e>
   86624:	0c98      	lsrs	r0, r3, #18
   86626:	307c      	adds	r0, #124	; 0x7c
   86628:	e000      	b.n	8662c <_malloc_r+0x170>
   8662a:	207e      	movs	r0, #126	; 0x7e
   8662c:	f8df e13c 	ldr.w	lr, [pc, #316]	; 8676c <_malloc_r+0x2b0>
   86630:	eb0e 07c0 	add.w	r7, lr, r0, lsl #3
   86634:	68b9      	ldr	r1, [r7, #8]
   86636:	42b9      	cmp	r1, r7
   86638:	d10e      	bne.n	86658 <_malloc_r+0x19c>
   8663a:	1087      	asrs	r7, r0, #2
   8663c:	2301      	movs	r3, #1
   8663e:	fa03 f007 	lsl.w	r0, r3, r7
   86642:	f8de 7004 	ldr.w	r7, [lr, #4]
   86646:	ea40 0307 	orr.w	r3, r0, r7
   8664a:	f8ce 3004 	str.w	r3, [lr, #4]
   8664e:	4608      	mov	r0, r1
   86650:	e008      	b.n	86664 <_malloc_r+0x1a8>
   86652:	6889      	ldr	r1, [r1, #8]
   86654:	42b9      	cmp	r1, r7
   86656:	d004      	beq.n	86662 <_malloc_r+0x1a6>
   86658:	6848      	ldr	r0, [r1, #4]
   8665a:	f020 0003 	bic.w	r0, r0, #3
   8665e:	4283      	cmp	r3, r0
   86660:	d3f7      	bcc.n	86652 <_malloc_r+0x196>
   86662:	68c8      	ldr	r0, [r1, #12]
   86664:	60e8      	str	r0, [r5, #12]
   86666:	60a9      	str	r1, [r5, #8]
   86668:	60cd      	str	r5, [r1, #12]
   8666a:	6085      	str	r5, [r0, #8]
   8666c:	1095      	asrs	r5, r2, #2
   8666e:	2001      	movs	r0, #1
   86670:	fa00 f305 	lsl.w	r3, r0, r5
   86674:	4f3d      	ldr	r7, [pc, #244]	; (8676c <_malloc_r+0x2b0>)
   86676:	6879      	ldr	r1, [r7, #4]
   86678:	428b      	cmp	r3, r1
   8667a:	d85d      	bhi.n	86738 <_malloc_r+0x27c>
   8667c:	420b      	tst	r3, r1
   8667e:	d105      	bne.n	8668c <_malloc_r+0x1d0>
   86680:	f022 0203 	bic.w	r2, r2, #3
   86684:	005b      	lsls	r3, r3, #1
   86686:	3204      	adds	r2, #4
   86688:	420b      	tst	r3, r1
   8668a:	d0fb      	beq.n	86684 <_malloc_r+0x1c8>
   8668c:	4d37      	ldr	r5, [pc, #220]	; (8676c <_malloc_r+0x2b0>)
   8668e:	4610      	mov	r0, r2
   86690:	eb05 0ec2 	add.w	lr, r5, r2, lsl #3
   86694:	4677      	mov	r7, lr
   86696:	68fd      	ldr	r5, [r7, #12]
   86698:	42bd      	cmp	r5, r7
   8669a:	d02d      	beq.n	866f8 <_malloc_r+0x23c>
   8669c:	6869      	ldr	r1, [r5, #4]
   8669e:	f021 0c03 	bic.w	ip, r1, #3
   866a2:	ebc4 010c 	rsb	r1, r4, ip
   866a6:	290f      	cmp	r1, #15
   866a8:	dd13      	ble.n	866d2 <_malloc_r+0x216>
   866aa:	192b      	adds	r3, r5, r4
   866ac:	f044 0401 	orr.w	r4, r4, #1
   866b0:	68ea      	ldr	r2, [r5, #12]
   866b2:	606c      	str	r4, [r5, #4]
   866b4:	f855 0f08 	ldr.w	r0, [r5, #8]!
   866b8:	5059      	str	r1, [r3, r1]
   866ba:	60c2      	str	r2, [r0, #12]
   866bc:	6090      	str	r0, [r2, #8]
   866be:	4a2b      	ldr	r2, [pc, #172]	; (8676c <_malloc_r+0x2b0>)
   866c0:	f041 0001 	orr.w	r0, r1, #1
   866c4:	6153      	str	r3, [r2, #20]
   866c6:	6113      	str	r3, [r2, #16]
   866c8:	3208      	adds	r2, #8
   866ca:	60da      	str	r2, [r3, #12]
   866cc:	609a      	str	r2, [r3, #8]
   866ce:	6058      	str	r0, [r3, #4]
   866d0:	e00c      	b.n	866ec <_malloc_r+0x230>
   866d2:	2900      	cmp	r1, #0
   866d4:	db0e      	blt.n	866f4 <_malloc_r+0x238>
   866d6:	eb05 000c 	add.w	r0, r5, ip
   866da:	6842      	ldr	r2, [r0, #4]
   866dc:	68e9      	ldr	r1, [r5, #12]
   866de:	f042 0301 	orr.w	r3, r2, #1
   866e2:	6043      	str	r3, [r0, #4]
   866e4:	f855 0f08 	ldr.w	r0, [r5, #8]!
   866e8:	60c1      	str	r1, [r0, #12]
   866ea:	6088      	str	r0, [r1, #8]
   866ec:	4630      	mov	r0, r6
   866ee:	f000 f910 	bl	86912 <__malloc_unlock>
   866f2:	e0de      	b.n	868b2 <_malloc_r+0x3f6>
   866f4:	68ed      	ldr	r5, [r5, #12]
   866f6:	e7cf      	b.n	86698 <_malloc_r+0x1dc>
   866f8:	3001      	adds	r0, #1
   866fa:	0781      	lsls	r1, r0, #30
   866fc:	f105 0708 	add.w	r7, r5, #8
   86700:	d1c9      	bne.n	86696 <_malloc_r+0x1da>
   86702:	4671      	mov	r1, lr
   86704:	0795      	lsls	r5, r2, #30
   86706:	d105      	bne.n	86714 <_malloc_r+0x258>
   86708:	4a18      	ldr	r2, [pc, #96]	; (8676c <_malloc_r+0x2b0>)
   8670a:	6855      	ldr	r5, [r2, #4]
   8670c:	ea25 0503 	bic.w	r5, r5, r3
   86710:	6055      	str	r5, [r2, #4]
   86712:	e005      	b.n	86720 <_malloc_r+0x264>
   86714:	f1a1 0708 	sub.w	r7, r1, #8
   86718:	6809      	ldr	r1, [r1, #0]
   8671a:	3a01      	subs	r2, #1
   8671c:	42b9      	cmp	r1, r7
   8671e:	d0f1      	beq.n	86704 <_malloc_r+0x248>
   86720:	4f12      	ldr	r7, [pc, #72]	; (8676c <_malloc_r+0x2b0>)
   86722:	005b      	lsls	r3, r3, #1
   86724:	687f      	ldr	r7, [r7, #4]
   86726:	42bb      	cmp	r3, r7
   86728:	d806      	bhi.n	86738 <_malloc_r+0x27c>
   8672a:	b12b      	cbz	r3, 86738 <_malloc_r+0x27c>
   8672c:	4602      	mov	r2, r0
   8672e:	423b      	tst	r3, r7
   86730:	d1ac      	bne.n	8668c <_malloc_r+0x1d0>
   86732:	3204      	adds	r2, #4
   86734:	005b      	lsls	r3, r3, #1
   86736:	e7fa      	b.n	8672e <_malloc_r+0x272>
   86738:	4b0c      	ldr	r3, [pc, #48]	; (8676c <_malloc_r+0x2b0>)
   8673a:	689f      	ldr	r7, [r3, #8]
   8673c:	4619      	mov	r1, r3
   8673e:	6878      	ldr	r0, [r7, #4]
   86740:	f020 0903 	bic.w	r9, r0, #3
   86744:	45a1      	cmp	r9, r4
   86746:	d304      	bcc.n	86752 <_malloc_r+0x296>
   86748:	ebc4 0009 	rsb	r0, r4, r9
   8674c:	280f      	cmp	r0, #15
   8674e:	f300 80a2 	bgt.w	86896 <_malloc_r+0x3da>
   86752:	4a07      	ldr	r2, [pc, #28]	; (86770 <_malloc_r+0x2b4>)
   86754:	f8d1 3408 	ldr.w	r3, [r1, #1032]	; 0x408
   86758:	6815      	ldr	r5, [r2, #0]
   8675a:	3301      	adds	r3, #1
   8675c:	eb07 0a09 	add.w	sl, r7, r9
   86760:	eb04 0805 	add.w	r8, r4, r5
   86764:	d106      	bne.n	86774 <_malloc_r+0x2b8>
   86766:	f108 0810 	add.w	r8, r8, #16
   8676a:	e00b      	b.n	86784 <_malloc_r+0x2c8>
   8676c:	200704c4 	.word	0x200704c4
   86770:	20078b60 	.word	0x20078b60
   86774:	f508 5080 	add.w	r0, r8, #4096	; 0x1000
   86778:	f100 010f 	add.w	r1, r0, #15
   8677c:	f421 627f 	bic.w	r2, r1, #4080	; 0xff0
   86780:	f022 080f 	bic.w	r8, r2, #15
   86784:	4630      	mov	r0, r6
   86786:	4641      	mov	r1, r8
   86788:	f000 fa32 	bl	86bf0 <_sbrk_r>
   8678c:	1c42      	adds	r2, r0, #1
   8678e:	4605      	mov	r5, r0
   86790:	d071      	beq.n	86876 <_malloc_r+0x3ba>
   86792:	4550      	cmp	r0, sl
   86794:	d202      	bcs.n	8679c <_malloc_r+0x2e0>
   86796:	4b48      	ldr	r3, [pc, #288]	; (868b8 <_malloc_r+0x3fc>)
   86798:	429f      	cmp	r7, r3
   8679a:	d16c      	bne.n	86876 <_malloc_r+0x3ba>
   8679c:	4847      	ldr	r0, [pc, #284]	; (868bc <_malloc_r+0x400>)
   8679e:	4555      	cmp	r5, sl
   867a0:	6841      	ldr	r1, [r0, #4]
   867a2:	4a45      	ldr	r2, [pc, #276]	; (868b8 <_malloc_r+0x3fc>)
   867a4:	eb08 0301 	add.w	r3, r8, r1
   867a8:	6043      	str	r3, [r0, #4]
   867aa:	d107      	bne.n	867bc <_malloc_r+0x300>
   867ac:	0529      	lsls	r1, r5, #20
   867ae:	d105      	bne.n	867bc <_malloc_r+0x300>
   867b0:	6895      	ldr	r5, [r2, #8]
   867b2:	44c8      	add	r8, r9
   867b4:	f048 0001 	orr.w	r0, r8, #1
   867b8:	6068      	str	r0, [r5, #4]
   867ba:	e051      	b.n	86860 <_malloc_r+0x3a4>
   867bc:	f8d2 0408 	ldr.w	r0, [r2, #1032]	; 0x408
   867c0:	1c42      	adds	r2, r0, #1
   867c2:	d103      	bne.n	867cc <_malloc_r+0x310>
   867c4:	4a3c      	ldr	r2, [pc, #240]	; (868b8 <_malloc_r+0x3fc>)
   867c6:	f8c2 5408 	str.w	r5, [r2, #1032]	; 0x408
   867ca:	e005      	b.n	867d8 <_malloc_r+0x31c>
   867cc:	ebca 0a05 	rsb	sl, sl, r5
   867d0:	eb03 010a 	add.w	r1, r3, sl
   867d4:	4b39      	ldr	r3, [pc, #228]	; (868bc <_malloc_r+0x400>)
   867d6:	6059      	str	r1, [r3, #4]
   867d8:	f015 0007 	ands.w	r0, r5, #7
   867dc:	bf1c      	itt	ne
   867de:	f1c0 0008 	rsbne	r0, r0, #8
   867e2:	182d      	addne	r5, r5, r0
   867e4:	eb05 0c08 	add.w	ip, r5, r8
   867e8:	f500 5180 	add.w	r1, r0, #4096	; 0x1000
   867ec:	ea4f 5e0c 	mov.w	lr, ip, lsl #20
   867f0:	eba1 581e 	sub.w	r8, r1, lr, lsr #20
   867f4:	4641      	mov	r1, r8
   867f6:	4630      	mov	r0, r6
   867f8:	f000 f9fa 	bl	86bf0 <_sbrk_r>
   867fc:	4a2f      	ldr	r2, [pc, #188]	; (868bc <_malloc_r+0x400>)
   867fe:	1c43      	adds	r3, r0, #1
   86800:	6853      	ldr	r3, [r2, #4]
   86802:	bf08      	it	eq
   86804:	f04f 0800 	moveq.w	r8, #0
   86808:	eb08 0103 	add.w	r1, r8, r3
   8680c:	bf08      	it	eq
   8680e:	4628      	moveq	r0, r5
   86810:	6051      	str	r1, [r2, #4]
   86812:	1b40      	subs	r0, r0, r5
   86814:	4a28      	ldr	r2, [pc, #160]	; (868b8 <_malloc_r+0x3fc>)
   86816:	eb00 0308 	add.w	r3, r0, r8
   8681a:	f043 0101 	orr.w	r1, r3, #1
   8681e:	4297      	cmp	r7, r2
   86820:	6095      	str	r5, [r2, #8]
   86822:	6069      	str	r1, [r5, #4]
   86824:	d01c      	beq.n	86860 <_malloc_r+0x3a4>
   86826:	f1b9 0f0f 	cmp.w	r9, #15
   8682a:	d802      	bhi.n	86832 <_malloc_r+0x376>
   8682c:	2201      	movs	r2, #1
   8682e:	606a      	str	r2, [r5, #4]
   86830:	e021      	b.n	86876 <_malloc_r+0x3ba>
   86832:	687d      	ldr	r5, [r7, #4]
   86834:	f1a9 090c 	sub.w	r9, r9, #12
   86838:	f029 0907 	bic.w	r9, r9, #7
   8683c:	f005 0201 	and.w	r2, r5, #1
   86840:	2105      	movs	r1, #5
   86842:	eb07 0309 	add.w	r3, r7, r9
   86846:	ea49 0002 	orr.w	r0, r9, r2
   8684a:	f1b9 0f0f 	cmp.w	r9, #15
   8684e:	6078      	str	r0, [r7, #4]
   86850:	6059      	str	r1, [r3, #4]
   86852:	6099      	str	r1, [r3, #8]
   86854:	d904      	bls.n	86860 <_malloc_r+0x3a4>
   86856:	4630      	mov	r0, r6
   86858:	f107 0108 	add.w	r1, r7, #8
   8685c:	f7ff fb1a 	bl	85e94 <_free_r>
   86860:	4a16      	ldr	r2, [pc, #88]	; (868bc <_malloc_r+0x400>)
   86862:	6853      	ldr	r3, [r2, #4]
   86864:	6ad1      	ldr	r1, [r2, #44]	; 0x2c
   86866:	6b15      	ldr	r5, [r2, #48]	; 0x30
   86868:	428b      	cmp	r3, r1
   8686a:	bf88      	it	hi
   8686c:	62d3      	strhi	r3, [r2, #44]	; 0x2c
   8686e:	42ab      	cmp	r3, r5
   86870:	bf84      	itt	hi
   86872:	4d12      	ldrhi	r5, [pc, #72]	; (868bc <_malloc_r+0x400>)
   86874:	632b      	strhi	r3, [r5, #48]	; 0x30
   86876:	4810      	ldr	r0, [pc, #64]	; (868b8 <_malloc_r+0x3fc>)
   86878:	6882      	ldr	r2, [r0, #8]
   8687a:	6853      	ldr	r3, [r2, #4]
   8687c:	f023 0103 	bic.w	r1, r3, #3
   86880:	42a1      	cmp	r1, r4
   86882:	ebc4 0001 	rsb	r0, r4, r1
   86886:	d301      	bcc.n	8688c <_malloc_r+0x3d0>
   86888:	280f      	cmp	r0, #15
   8688a:	dc04      	bgt.n	86896 <_malloc_r+0x3da>
   8688c:	4630      	mov	r0, r6
   8688e:	f000 f840 	bl	86912 <__malloc_unlock>
   86892:	2500      	movs	r5, #0
   86894:	e00d      	b.n	868b2 <_malloc_r+0x3f6>
   86896:	4a08      	ldr	r2, [pc, #32]	; (868b8 <_malloc_r+0x3fc>)
   86898:	f044 0301 	orr.w	r3, r4, #1
   8689c:	6895      	ldr	r5, [r2, #8]
   8689e:	f040 0101 	orr.w	r1, r0, #1
   868a2:	192c      	adds	r4, r5, r4
   868a4:	606b      	str	r3, [r5, #4]
   868a6:	6094      	str	r4, [r2, #8]
   868a8:	6061      	str	r1, [r4, #4]
   868aa:	4630      	mov	r0, r6
   868ac:	f000 f831 	bl	86912 <__malloc_unlock>
   868b0:	3508      	adds	r5, #8
   868b2:	4628      	mov	r0, r5
   868b4:	e8bd 87f0 	ldmia.w	sp!, {r4, r5, r6, r7, r8, r9, sl, pc}
   868b8:	200704c4 	.word	0x200704c4
   868bc:	20078b60 	.word	0x20078b60

000868c0 <memchr>:
   868c0:	b510      	push	{r4, lr}
   868c2:	b2c9      	uxtb	r1, r1
   868c4:	4603      	mov	r3, r0
   868c6:	1882      	adds	r2, r0, r2
   868c8:	4293      	cmp	r3, r2
   868ca:	4618      	mov	r0, r3
   868cc:	d004      	beq.n	868d8 <memchr+0x18>
   868ce:	7804      	ldrb	r4, [r0, #0]
   868d0:	3301      	adds	r3, #1
   868d2:	428c      	cmp	r4, r1
   868d4:	d1f8      	bne.n	868c8 <memchr+0x8>
   868d6:	e000      	b.n	868da <memchr+0x1a>
   868d8:	2000      	movs	r0, #0
   868da:	bd10      	pop	{r4, pc}

000868dc <memmove>:
   868dc:	4281      	cmp	r1, r0
   868de:	b570      	push	{r4, r5, r6, lr}
   868e0:	d20e      	bcs.n	86900 <memmove+0x24>
   868e2:	188c      	adds	r4, r1, r2
   868e4:	42a0      	cmp	r0, r4
   868e6:	d20b      	bcs.n	86900 <memmove+0x24>
   868e8:	1885      	adds	r5, r0, r2
   868ea:	4613      	mov	r3, r2
   868ec:	f113 33ff 	adds.w	r3, r3, #4294967295
   868f0:	d305      	bcc.n	868fe <memmove+0x22>
   868f2:	4251      	negs	r1, r2
   868f4:	1866      	adds	r6, r4, r1
   868f6:	5cf6      	ldrb	r6, [r6, r3]
   868f8:	1869      	adds	r1, r5, r1
   868fa:	54ce      	strb	r6, [r1, r3]
   868fc:	e7f6      	b.n	868ec <memmove+0x10>
   868fe:	bd70      	pop	{r4, r5, r6, pc}
   86900:	2300      	movs	r3, #0
   86902:	4293      	cmp	r3, r2
   86904:	d003      	beq.n	8690e <memmove+0x32>
   86906:	5ccc      	ldrb	r4, [r1, r3]
   86908:	54c4      	strb	r4, [r0, r3]
   8690a:	3301      	adds	r3, #1
   8690c:	e7f9      	b.n	86902 <memmove+0x26>
   8690e:	bd70      	pop	{r4, r5, r6, pc}

00086910 <__malloc_lock>:
   86910:	4770      	bx	lr

00086912 <__malloc_unlock>:
   86912:	4770      	bx	lr

00086914 <_realloc_r>:
   86914:	e92d 4ff8 	stmdb	sp!, {r3, r4, r5, r6, r7, r8, r9, sl, fp, lr}
   86918:	4681      	mov	r9, r0
   8691a:	4616      	mov	r6, r2
   8691c:	460c      	mov	r4, r1
   8691e:	b921      	cbnz	r1, 8692a <_realloc_r+0x16>
   86920:	4611      	mov	r1, r2
   86922:	e8bd 4ff8 	ldmia.w	sp!, {r3, r4, r5, r6, r7, r8, r9, sl, fp, lr}
   86926:	f7ff bdc9 	b.w	864bc <_malloc_r>
   8692a:	f7ff fff1 	bl	86910 <__malloc_lock>
   8692e:	f106 070b 	add.w	r7, r6, #11
   86932:	f854 5c04 	ldr.w	r5, [r4, #-4]
   86936:	2f16      	cmp	r7, #22
   86938:	f1a4 0b08 	sub.w	fp, r4, #8
   8693c:	f025 0803 	bic.w	r8, r5, #3
   86940:	d903      	bls.n	8694a <_realloc_r+0x36>
   86942:	f037 0707 	bics.w	r7, r7, #7
   86946:	d501      	bpl.n	8694c <_realloc_r+0x38>
   86948:	e002      	b.n	86950 <_realloc_r+0x3c>
   8694a:	2710      	movs	r7, #16
   8694c:	42b7      	cmp	r7, r6
   8694e:	d204      	bcs.n	8695a <_realloc_r+0x46>
   86950:	200c      	movs	r0, #12
   86952:	f8c9 0000 	str.w	r0, [r9]
   86956:	2600      	movs	r6, #0
   86958:	e145      	b.n	86be6 <_realloc_r+0x2d2>
   8695a:	45b8      	cmp	r8, r7
   8695c:	f280 811a 	bge.w	86b94 <_realloc_r+0x280>
   86960:	4aa2      	ldr	r2, [pc, #648]	; (86bec <_realloc_r+0x2d8>)
   86962:	eb0b 0308 	add.w	r3, fp, r8
   86966:	6891      	ldr	r1, [r2, #8]
   86968:	428b      	cmp	r3, r1
   8696a:	d006      	beq.n	8697a <_realloc_r+0x66>
   8696c:	6858      	ldr	r0, [r3, #4]
   8696e:	f020 0201 	bic.w	r2, r0, #1
   86972:	1898      	adds	r0, r3, r2
   86974:	6842      	ldr	r2, [r0, #4]
   86976:	07d0      	lsls	r0, r2, #31
   86978:	d426      	bmi.n	869c8 <_realloc_r+0xb4>
   8697a:	685a      	ldr	r2, [r3, #4]
   8697c:	428b      	cmp	r3, r1
   8697e:	f022 0003 	bic.w	r0, r2, #3
   86982:	eb00 0a08 	add.w	sl, r0, r8
   86986:	d118      	bne.n	869ba <_realloc_r+0xa6>
   86988:	f107 0210 	add.w	r2, r7, #16
   8698c:	4592      	cmp	sl, r2
   8698e:	db1d      	blt.n	869cc <_realloc_r+0xb8>
   86990:	ebc7 0a0a 	rsb	sl, r7, sl
   86994:	eb0b 0507 	add.w	r5, fp, r7
   86998:	f04a 0101 	orr.w	r1, sl, #1
   8699c:	6069      	str	r1, [r5, #4]
   8699e:	f854 2c04 	ldr.w	r2, [r4, #-4]
   869a2:	4e92      	ldr	r6, [pc, #584]	; (86bec <_realloc_r+0x2d8>)
   869a4:	f002 0301 	and.w	r3, r2, #1
   869a8:	431f      	orrs	r7, r3
   869aa:	60b5      	str	r5, [r6, #8]
   869ac:	f844 7c04 	str.w	r7, [r4, #-4]
   869b0:	4648      	mov	r0, r9
   869b2:	f7ff ffae 	bl	86912 <__malloc_unlock>
   869b6:	4626      	mov	r6, r4
   869b8:	e115      	b.n	86be6 <_realloc_r+0x2d2>
   869ba:	45ba      	cmp	sl, r7
   869bc:	db06      	blt.n	869cc <_realloc_r+0xb8>
   869be:	68dd      	ldr	r5, [r3, #12]
   869c0:	689e      	ldr	r6, [r3, #8]
   869c2:	60f5      	str	r5, [r6, #12]
   869c4:	60ae      	str	r6, [r5, #8]
   869c6:	e0e6      	b.n	86b96 <_realloc_r+0x282>
   869c8:	2000      	movs	r0, #0
   869ca:	4603      	mov	r3, r0
   869cc:	07ea      	lsls	r2, r5, #31
   869ce:	f100 8091 	bmi.w	86af4 <_realloc_r+0x1e0>
   869d2:	f854 5c08 	ldr.w	r5, [r4, #-8]
   869d6:	ebc5 050b 	rsb	r5, r5, fp
   869da:	686a      	ldr	r2, [r5, #4]
   869dc:	f022 0203 	bic.w	r2, r2, #3
   869e0:	2b00      	cmp	r3, #0
   869e2:	d051      	beq.n	86a88 <_realloc_r+0x174>
   869e4:	eb02 0a08 	add.w	sl, r2, r8
   869e8:	428b      	cmp	r3, r1
   869ea:	4482      	add	sl, r0
   869ec:	d145      	bne.n	86a7a <_realloc_r+0x166>
   869ee:	f107 0310 	add.w	r3, r7, #16
   869f2:	459a      	cmp	sl, r3
   869f4:	db48      	blt.n	86a88 <_realloc_r+0x174>
   869f6:	462e      	mov	r6, r5
   869f8:	68e9      	ldr	r1, [r5, #12]
   869fa:	f856 3f08 	ldr.w	r3, [r6, #8]!
   869fe:	f1a8 0204 	sub.w	r2, r8, #4
   86a02:	2a24      	cmp	r2, #36	; 0x24
   86a04:	60d9      	str	r1, [r3, #12]
   86a06:	608b      	str	r3, [r1, #8]
   86a08:	d825      	bhi.n	86a56 <_realloc_r+0x142>
   86a0a:	2a13      	cmp	r2, #19
   86a0c:	d91b      	bls.n	86a46 <_realloc_r+0x132>
   86a0e:	6821      	ldr	r1, [r4, #0]
   86a10:	2a1b      	cmp	r2, #27
   86a12:	60a9      	str	r1, [r5, #8]
   86a14:	6863      	ldr	r3, [r4, #4]
   86a16:	60eb      	str	r3, [r5, #12]
   86a18:	d803      	bhi.n	86a22 <_realloc_r+0x10e>
   86a1a:	f105 0010 	add.w	r0, r5, #16
   86a1e:	3408      	adds	r4, #8
   86a20:	e012      	b.n	86a48 <_realloc_r+0x134>
   86a22:	68a0      	ldr	r0, [r4, #8]
   86a24:	2a24      	cmp	r2, #36	; 0x24
   86a26:	6128      	str	r0, [r5, #16]
   86a28:	68e1      	ldr	r1, [r4, #12]
   86a2a:	6169      	str	r1, [r5, #20]
   86a2c:	d003      	beq.n	86a36 <_realloc_r+0x122>
   86a2e:	f105 0018 	add.w	r0, r5, #24
   86a32:	3410      	adds	r4, #16
   86a34:	e008      	b.n	86a48 <_realloc_r+0x134>
   86a36:	6922      	ldr	r2, [r4, #16]
   86a38:	f105 0020 	add.w	r0, r5, #32
   86a3c:	61aa      	str	r2, [r5, #24]
   86a3e:	6963      	ldr	r3, [r4, #20]
   86a40:	3418      	adds	r4, #24
   86a42:	61eb      	str	r3, [r5, #28]
   86a44:	e000      	b.n	86a48 <_realloc_r+0x134>
   86a46:	4630      	mov	r0, r6
   86a48:	6821      	ldr	r1, [r4, #0]
   86a4a:	6001      	str	r1, [r0, #0]
   86a4c:	6862      	ldr	r2, [r4, #4]
   86a4e:	6042      	str	r2, [r0, #4]
   86a50:	68a3      	ldr	r3, [r4, #8]
   86a52:	6083      	str	r3, [r0, #8]
   86a54:	e003      	b.n	86a5e <_realloc_r+0x14a>
   86a56:	4630      	mov	r0, r6
   86a58:	4621      	mov	r1, r4
   86a5a:	f7ff ff3f 	bl	868dc <memmove>
   86a5e:	ebc7 0a0a 	rsb	sl, r7, sl
   86a62:	19e8      	adds	r0, r5, r7
   86a64:	f04a 0201 	orr.w	r2, sl, #1
   86a68:	6042      	str	r2, [r0, #4]
   86a6a:	686b      	ldr	r3, [r5, #4]
   86a6c:	495f      	ldr	r1, [pc, #380]	; (86bec <_realloc_r+0x2d8>)
   86a6e:	6088      	str	r0, [r1, #8]
   86a70:	f003 0001 	and.w	r0, r3, #1
   86a74:	4307      	orrs	r7, r0
   86a76:	606f      	str	r7, [r5, #4]
   86a78:	e088      	b.n	86b8c <_realloc_r+0x278>
   86a7a:	45ba      	cmp	sl, r7
   86a7c:	db04      	blt.n	86a88 <_realloc_r+0x174>
   86a7e:	68d9      	ldr	r1, [r3, #12]
   86a80:	6898      	ldr	r0, [r3, #8]
   86a82:	60c1      	str	r1, [r0, #12]
   86a84:	6088      	str	r0, [r1, #8]
   86a86:	e003      	b.n	86a90 <_realloc_r+0x17c>
   86a88:	eb02 0a08 	add.w	sl, r2, r8
   86a8c:	45ba      	cmp	sl, r7
   86a8e:	db31      	blt.n	86af4 <_realloc_r+0x1e0>
   86a90:	4628      	mov	r0, r5
   86a92:	68eb      	ldr	r3, [r5, #12]
   86a94:	f850 1f08 	ldr.w	r1, [r0, #8]!
   86a98:	f1a8 0204 	sub.w	r2, r8, #4
   86a9c:	2a24      	cmp	r2, #36	; 0x24
   86a9e:	60cb      	str	r3, [r1, #12]
   86aa0:	6099      	str	r1, [r3, #8]
   86aa2:	d823      	bhi.n	86aec <_realloc_r+0x1d8>
   86aa4:	2a13      	cmp	r2, #19
   86aa6:	d91a      	bls.n	86ade <_realloc_r+0x1ca>
   86aa8:	6820      	ldr	r0, [r4, #0]
   86aaa:	2a1b      	cmp	r2, #27
   86aac:	60a8      	str	r0, [r5, #8]
   86aae:	6866      	ldr	r6, [r4, #4]
   86ab0:	60ee      	str	r6, [r5, #12]
   86ab2:	d803      	bhi.n	86abc <_realloc_r+0x1a8>
   86ab4:	f105 0010 	add.w	r0, r5, #16
   86ab8:	3408      	adds	r4, #8
   86aba:	e010      	b.n	86ade <_realloc_r+0x1ca>
   86abc:	68a3      	ldr	r3, [r4, #8]
   86abe:	2a24      	cmp	r2, #36	; 0x24
   86ac0:	612b      	str	r3, [r5, #16]
   86ac2:	68e1      	ldr	r1, [r4, #12]
   86ac4:	6169      	str	r1, [r5, #20]
   86ac6:	d003      	beq.n	86ad0 <_realloc_r+0x1bc>
   86ac8:	f105 0018 	add.w	r0, r5, #24
   86acc:	3410      	adds	r4, #16
   86ace:	e006      	b.n	86ade <_realloc_r+0x1ca>
   86ad0:	6922      	ldr	r2, [r4, #16]
   86ad2:	61aa      	str	r2, [r5, #24]
   86ad4:	6960      	ldr	r0, [r4, #20]
   86ad6:	3418      	adds	r4, #24
   86ad8:	61e8      	str	r0, [r5, #28]
   86ada:	f105 0020 	add.w	r0, r5, #32
   86ade:	6826      	ldr	r6, [r4, #0]
   86ae0:	6006      	str	r6, [r0, #0]
   86ae2:	6863      	ldr	r3, [r4, #4]
   86ae4:	6043      	str	r3, [r0, #4]
   86ae6:	68a1      	ldr	r1, [r4, #8]
   86ae8:	6081      	str	r1, [r0, #8]
   86aea:	e055      	b.n	86b98 <_realloc_r+0x284>
   86aec:	4621      	mov	r1, r4
   86aee:	f7ff fef5 	bl	868dc <memmove>
   86af2:	e051      	b.n	86b98 <_realloc_r+0x284>
   86af4:	4631      	mov	r1, r6
   86af6:	4648      	mov	r0, r9
   86af8:	f7ff fce0 	bl	864bc <_malloc_r>
   86afc:	4606      	mov	r6, r0
   86afe:	2800      	cmp	r0, #0
   86b00:	d044      	beq.n	86b8c <_realloc_r+0x278>
   86b02:	f854 1c04 	ldr.w	r1, [r4, #-4]
   86b06:	f1a0 0208 	sub.w	r2, r0, #8
   86b0a:	f021 0301 	bic.w	r3, r1, #1
   86b0e:	eb0b 0103 	add.w	r1, fp, r3
   86b12:	428a      	cmp	r2, r1
   86b14:	d106      	bne.n	86b24 <_realloc_r+0x210>
   86b16:	f850 6c04 	ldr.w	r6, [r0, #-4]
   86b1a:	f026 0503 	bic.w	r5, r6, #3
   86b1e:	eb05 0a08 	add.w	sl, r5, r8
   86b22:	e038      	b.n	86b96 <_realloc_r+0x282>
   86b24:	f1a8 0204 	sub.w	r2, r8, #4
   86b28:	2a24      	cmp	r2, #36	; 0x24
   86b2a:	d828      	bhi.n	86b7e <_realloc_r+0x26a>
   86b2c:	2a13      	cmp	r2, #19
   86b2e:	d91e      	bls.n	86b6e <_realloc_r+0x25a>
   86b30:	6823      	ldr	r3, [r4, #0]
   86b32:	2a1b      	cmp	r2, #27
   86b34:	6003      	str	r3, [r0, #0]
   86b36:	6861      	ldr	r1, [r4, #4]
   86b38:	6041      	str	r1, [r0, #4]
   86b3a:	d804      	bhi.n	86b46 <_realloc_r+0x232>
   86b3c:	f100 0008 	add.w	r0, r0, #8
   86b40:	f104 0208 	add.w	r2, r4, #8
   86b44:	e014      	b.n	86b70 <_realloc_r+0x25c>
   86b46:	68a0      	ldr	r0, [r4, #8]
   86b48:	2a24      	cmp	r2, #36	; 0x24
   86b4a:	60b0      	str	r0, [r6, #8]
   86b4c:	68e3      	ldr	r3, [r4, #12]
   86b4e:	60f3      	str	r3, [r6, #12]
   86b50:	d004      	beq.n	86b5c <_realloc_r+0x248>
   86b52:	f106 0010 	add.w	r0, r6, #16
   86b56:	f104 0210 	add.w	r2, r4, #16
   86b5a:	e009      	b.n	86b70 <_realloc_r+0x25c>
   86b5c:	6922      	ldr	r2, [r4, #16]
   86b5e:	f106 0018 	add.w	r0, r6, #24
   86b62:	6132      	str	r2, [r6, #16]
   86b64:	6961      	ldr	r1, [r4, #20]
   86b66:	f104 0218 	add.w	r2, r4, #24
   86b6a:	6171      	str	r1, [r6, #20]
   86b6c:	e000      	b.n	86b70 <_realloc_r+0x25c>
   86b6e:	4622      	mov	r2, r4
   86b70:	6813      	ldr	r3, [r2, #0]
   86b72:	6003      	str	r3, [r0, #0]
   86b74:	6851      	ldr	r1, [r2, #4]
   86b76:	6041      	str	r1, [r0, #4]
   86b78:	6892      	ldr	r2, [r2, #8]
   86b7a:	6082      	str	r2, [r0, #8]
   86b7c:	e002      	b.n	86b84 <_realloc_r+0x270>
   86b7e:	4621      	mov	r1, r4
   86b80:	f7ff feac 	bl	868dc <memmove>
   86b84:	4648      	mov	r0, r9
   86b86:	4621      	mov	r1, r4
   86b88:	f7ff f984 	bl	85e94 <_free_r>
   86b8c:	4648      	mov	r0, r9
   86b8e:	f7ff fec0 	bl	86912 <__malloc_unlock>
   86b92:	e028      	b.n	86be6 <_realloc_r+0x2d2>
   86b94:	46c2      	mov	sl, r8
   86b96:	465d      	mov	r5, fp
   86b98:	ebc7 000a 	rsb	r0, r7, sl
   86b9c:	280f      	cmp	r0, #15
   86b9e:	686a      	ldr	r2, [r5, #4]
   86ba0:	d911      	bls.n	86bc6 <_realloc_r+0x2b2>
   86ba2:	f002 0601 	and.w	r6, r2, #1
   86ba6:	19e9      	adds	r1, r5, r7
   86ba8:	f040 0301 	orr.w	r3, r0, #1
   86bac:	4337      	orrs	r7, r6
   86bae:	606f      	str	r7, [r5, #4]
   86bb0:	1808      	adds	r0, r1, r0
   86bb2:	604b      	str	r3, [r1, #4]
   86bb4:	6842      	ldr	r2, [r0, #4]
   86bb6:	3108      	adds	r1, #8
   86bb8:	f042 0601 	orr.w	r6, r2, #1
   86bbc:	6046      	str	r6, [r0, #4]
   86bbe:	4648      	mov	r0, r9
   86bc0:	f7ff f968 	bl	85e94 <_free_r>
   86bc4:	e00a      	b.n	86bdc <_realloc_r+0x2c8>
   86bc6:	f002 0601 	and.w	r6, r2, #1
   86bca:	ea4a 0306 	orr.w	r3, sl, r6
   86bce:	606b      	str	r3, [r5, #4]
   86bd0:	eb05 010a 	add.w	r1, r5, sl
   86bd4:	6848      	ldr	r0, [r1, #4]
   86bd6:	f040 0201 	orr.w	r2, r0, #1
   86bda:	604a      	str	r2, [r1, #4]
   86bdc:	4648      	mov	r0, r9
   86bde:	f7ff fe98 	bl	86912 <__malloc_unlock>
   86be2:	f105 0608 	add.w	r6, r5, #8
   86be6:	4630      	mov	r0, r6
   86be8:	e8bd 8ff8 	ldmia.w	sp!, {r3, r4, r5, r6, r7, r8, r9, sl, fp, pc}
   86bec:	200704c4 	.word	0x200704c4

00086bf0 <_sbrk_r>:
   86bf0:	b538      	push	{r3, r4, r5, lr}
   86bf2:	4c06      	ldr	r4, [pc, #24]	; (86c0c <_sbrk_r+0x1c>)
   86bf4:	2300      	movs	r3, #0
   86bf6:	4605      	mov	r5, r0
   86bf8:	4608      	mov	r0, r1
   86bfa:	6023      	str	r3, [r4, #0]
   86bfc:	f7fc fbc0 	bl	83380 <_sbrk>
   86c00:	1c43      	adds	r3, r0, #1
   86c02:	d102      	bne.n	86c0a <_sbrk_r+0x1a>
   86c04:	6821      	ldr	r1, [r4, #0]
   86c06:	b101      	cbz	r1, 86c0a <_sbrk_r+0x1a>
   86c08:	6029      	str	r1, [r5, #0]
   86c0a:	bd38      	pop	{r3, r4, r5, pc}
   86c0c:	20078ba8 	.word	0x20078ba8

00086c10 <__sread>:
   86c10:	b510      	push	{r4, lr}
   86c12:	460c      	mov	r4, r1
   86c14:	f9b1 100e 	ldrsh.w	r1, [r1, #14]
   86c18:	f000 fe16 	bl	87848 <_read_r>
   86c1c:	2800      	cmp	r0, #0
   86c1e:	db03      	blt.n	86c28 <__sread+0x18>
   86c20:	6d22      	ldr	r2, [r4, #80]	; 0x50
   86c22:	1813      	adds	r3, r2, r0
   86c24:	6523      	str	r3, [r4, #80]	; 0x50
   86c26:	bd10      	pop	{r4, pc}
   86c28:	89a3      	ldrh	r3, [r4, #12]
   86c2a:	f423 5180 	bic.w	r1, r3, #4096	; 0x1000
   86c2e:	81a1      	strh	r1, [r4, #12]
   86c30:	bd10      	pop	{r4, pc}

00086c32 <__seofread>:
   86c32:	2000      	movs	r0, #0
   86c34:	4770      	bx	lr

00086c36 <__swrite>:
   86c36:	e92d 41f0 	stmdb	sp!, {r4, r5, r6, r7, r8, lr}
   86c3a:	461d      	mov	r5, r3
   86c3c:	898b      	ldrh	r3, [r1, #12]
   86c3e:	460c      	mov	r4, r1
   86c40:	f403 7180 	and.w	r1, r3, #256	; 0x100
   86c44:	4616      	mov	r6, r2
   86c46:	b20a      	sxth	r2, r1
   86c48:	4607      	mov	r7, r0
   86c4a:	b12a      	cbz	r2, 86c58 <__swrite+0x22>
   86c4c:	f9b4 100e 	ldrsh.w	r1, [r4, #14]
   86c50:	2200      	movs	r2, #0
   86c52:	2302      	movs	r3, #2
   86c54:	f000 fde6 	bl	87824 <_lseek_r>
   86c58:	89a0      	ldrh	r0, [r4, #12]
   86c5a:	f9b4 100e 	ldrsh.w	r1, [r4, #14]
   86c5e:	f420 5380 	bic.w	r3, r0, #4096	; 0x1000
   86c62:	81a3      	strh	r3, [r4, #12]
   86c64:	4638      	mov	r0, r7
   86c66:	4632      	mov	r2, r6
   86c68:	462b      	mov	r3, r5
   86c6a:	e8bd 41f0 	ldmia.w	sp!, {r4, r5, r6, r7, r8, lr}
   86c6e:	f000 bd4b 	b.w	87708 <_write_r>

00086c72 <__sseek>:
   86c72:	b510      	push	{r4, lr}
   86c74:	460c      	mov	r4, r1
   86c76:	f9b1 100e 	ldrsh.w	r1, [r1, #14]
   86c7a:	f000 fdd3 	bl	87824 <_lseek_r>
   86c7e:	1c43      	adds	r3, r0, #1
   86c80:	89a3      	ldrh	r3, [r4, #12]
   86c82:	d103      	bne.n	86c8c <__sseek+0x1a>
   86c84:	f423 5280 	bic.w	r2, r3, #4096	; 0x1000
   86c88:	81a2      	strh	r2, [r4, #12]
   86c8a:	bd10      	pop	{r4, pc}
   86c8c:	f443 5180 	orr.w	r1, r3, #4096	; 0x1000
   86c90:	81a1      	strh	r1, [r4, #12]
   86c92:	6520      	str	r0, [r4, #80]	; 0x50
   86c94:	bd10      	pop	{r4, pc}

00086c96 <__sclose>:
   86c96:	f9b1 100e 	ldrsh.w	r1, [r1, #14]
   86c9a:	f000 bd47 	b.w	8772c <_close_r>

00086c9e <strcmp>:
   86c9e:	f810 2b01 	ldrb.w	r2, [r0], #1
   86ca2:	f811 3b01 	ldrb.w	r3, [r1], #1
   86ca6:	2a01      	cmp	r2, #1
   86ca8:	bf28      	it	cs
   86caa:	429a      	cmpcs	r2, r3
   86cac:	d0f7      	beq.n	86c9e <strcmp>
   86cae:	eba2 0003 	sub.w	r0, r2, r3
   86cb2:	4770      	bx	lr

00086cb4 <__ssprint_r>:
   86cb4:	e92d 4ff7 	stmdb	sp!, {r0, r1, r2, r4, r5, r6, r7, r8, r9, sl, fp, lr}
   86cb8:	4607      	mov	r7, r0
   86cba:	6890      	ldr	r0, [r2, #8]
   86cbc:	460c      	mov	r4, r1
   86cbe:	4615      	mov	r5, r2
   86cc0:	f8d2 8000 	ldr.w	r8, [r2]
   86cc4:	b908      	cbnz	r0, 86cca <__ssprint_r+0x16>
   86cc6:	6050      	str	r0, [r2, #4]
   86cc8:	e06f      	b.n	86daa <__ssprint_r+0xf6>
   86cca:	f04f 0b00 	mov.w	fp, #0
   86cce:	465e      	mov	r6, fp
   86cd0:	b936      	cbnz	r6, 86ce0 <__ssprint_r+0x2c>
   86cd2:	f8d8 b000 	ldr.w	fp, [r8]
   86cd6:	f8d8 6004 	ldr.w	r6, [r8, #4]
   86cda:	f108 0808 	add.w	r8, r8, #8
   86cde:	e7f7      	b.n	86cd0 <__ssprint_r+0x1c>
   86ce0:	68a3      	ldr	r3, [r4, #8]
   86ce2:	429e      	cmp	r6, r3
   86ce4:	d34c      	bcc.n	86d80 <__ssprint_r+0xcc>
   86ce6:	89a2      	ldrh	r2, [r4, #12]
   86ce8:	f412 6f90 	tst.w	r2, #1152	; 0x480
   86cec:	d046      	beq.n	86d7c <__ssprint_r+0xc8>
   86cee:	6823      	ldr	r3, [r4, #0]
   86cf0:	6960      	ldr	r0, [r4, #20]
   86cf2:	6921      	ldr	r1, [r4, #16]
   86cf4:	f04f 0a03 	mov.w	sl, #3
   86cf8:	ebc1 0903 	rsb	r9, r1, r3
   86cfc:	fb0a f300 	mul.w	r3, sl, r0
   86d00:	2002      	movs	r0, #2
   86d02:	fb93 faf0 	sdiv	sl, r3, r0
   86d06:	f402 6280 	and.w	r2, r2, #1024	; 0x400
   86d0a:	f109 0301 	add.w	r3, r9, #1
   86d0e:	1998      	adds	r0, r3, r6
   86d10:	b213      	sxth	r3, r2
   86d12:	4582      	cmp	sl, r0
   86d14:	bf38      	it	cc
   86d16:	4682      	movcc	sl, r0
   86d18:	4638      	mov	r0, r7
   86d1a:	b183      	cbz	r3, 86d3e <__ssprint_r+0x8a>
   86d1c:	4651      	mov	r1, sl
   86d1e:	f7ff fbcd 	bl	864bc <_malloc_r>
   86d22:	b1a8      	cbz	r0, 86d50 <__ssprint_r+0x9c>
   86d24:	6921      	ldr	r1, [r4, #16]
   86d26:	464a      	mov	r2, r9
   86d28:	9001      	str	r0, [sp, #4]
   86d2a:	f7fd fc9f 	bl	8466c <memcpy>
   86d2e:	89a0      	ldrh	r0, [r4, #12]
   86d30:	f420 6290 	bic.w	r2, r0, #1152	; 0x480
   86d34:	f042 0180 	orr.w	r1, r2, #128	; 0x80
   86d38:	81a1      	strh	r1, [r4, #12]
   86d3a:	9901      	ldr	r1, [sp, #4]
   86d3c:	e014      	b.n	86d68 <__ssprint_r+0xb4>
   86d3e:	4652      	mov	r2, sl
   86d40:	f7ff fde8 	bl	86914 <_realloc_r>
   86d44:	4601      	mov	r1, r0
   86d46:	b978      	cbnz	r0, 86d68 <__ssprint_r+0xb4>
   86d48:	4638      	mov	r0, r7
   86d4a:	6921      	ldr	r1, [r4, #16]
   86d4c:	f7ff f8a2 	bl	85e94 <_free_r>
   86d50:	89a3      	ldrh	r3, [r4, #12]
   86d52:	200c      	movs	r0, #12
   86d54:	2100      	movs	r1, #0
   86d56:	f043 0240 	orr.w	r2, r3, #64	; 0x40
   86d5a:	6038      	str	r0, [r7, #0]
   86d5c:	81a2      	strh	r2, [r4, #12]
   86d5e:	f04f 30ff 	mov.w	r0, #4294967295
   86d62:	60a9      	str	r1, [r5, #8]
   86d64:	6069      	str	r1, [r5, #4]
   86d66:	e020      	b.n	86daa <__ssprint_r+0xf6>
   86d68:	eb01 0309 	add.w	r3, r1, r9
   86d6c:	ebc9 000a 	rsb	r0, r9, sl
   86d70:	6023      	str	r3, [r4, #0]
   86d72:	6121      	str	r1, [r4, #16]
   86d74:	f8c4 a014 	str.w	sl, [r4, #20]
   86d78:	4633      	mov	r3, r6
   86d7a:	60a0      	str	r0, [r4, #8]
   86d7c:	429e      	cmp	r6, r3
   86d7e:	d200      	bcs.n	86d82 <__ssprint_r+0xce>
   86d80:	4633      	mov	r3, r6
   86d82:	461a      	mov	r2, r3
   86d84:	4659      	mov	r1, fp
   86d86:	6820      	ldr	r0, [r4, #0]
   86d88:	9301      	str	r3, [sp, #4]
   86d8a:	f7ff fda7 	bl	868dc <memmove>
   86d8e:	68a2      	ldr	r2, [r4, #8]
   86d90:	9901      	ldr	r1, [sp, #4]
   86d92:	6823      	ldr	r3, [r4, #0]
   86d94:	1a50      	subs	r0, r2, r1
   86d96:	185a      	adds	r2, r3, r1
   86d98:	68a9      	ldr	r1, [r5, #8]
   86d9a:	60a0      	str	r0, [r4, #8]
   86d9c:	1b8e      	subs	r6, r1, r6
   86d9e:	6022      	str	r2, [r4, #0]
   86da0:	60ae      	str	r6, [r5, #8]
   86da2:	2e00      	cmp	r6, #0
   86da4:	d195      	bne.n	86cd2 <__ssprint_r+0x1e>
   86da6:	606e      	str	r6, [r5, #4]
   86da8:	4630      	mov	r0, r6
   86daa:	e8bd 8ffe 	ldmia.w	sp!, {r1, r2, r3, r4, r5, r6, r7, r8, r9, sl, fp, pc}

00086dae <_svfiprintf_r>:
   86dae:	e92d 4ff0 	stmdb	sp!, {r4, r5, r6, r7, r8, r9, sl, fp, lr}
   86db2:	461e      	mov	r6, r3
   86db4:	898b      	ldrh	r3, [r1, #12]
   86db6:	4689      	mov	r9, r1
   86db8:	f003 0180 	and.w	r1, r3, #128	; 0x80
   86dbc:	4614      	mov	r4, r2
   86dbe:	b20a      	sxth	r2, r1
   86dc0:	b0a9      	sub	sp, #164	; 0xa4
   86dc2:	4683      	mov	fp, r0
   86dc4:	b19a      	cbz	r2, 86dee <_svfiprintf_r+0x40>
   86dc6:	f8d9 3010 	ldr.w	r3, [r9, #16]
   86dca:	b983      	cbnz	r3, 86dee <_svfiprintf_r+0x40>
   86dcc:	2140      	movs	r1, #64	; 0x40
   86dce:	f7ff fb75 	bl	864bc <_malloc_r>
   86dd2:	f8c9 0000 	str.w	r0, [r9]
   86dd6:	f8c9 0010 	str.w	r0, [r9, #16]
   86dda:	b928      	cbnz	r0, 86de8 <_svfiprintf_r+0x3a>
   86ddc:	220c      	movs	r2, #12
   86dde:	f8cb 2000 	str.w	r2, [fp]
   86de2:	f04f 30ff 	mov.w	r0, #4294967295
   86de6:	e3db      	b.n	875a0 <_svfiprintf_r+0x7f2>
   86de8:	2040      	movs	r0, #64	; 0x40
   86dea:	f8c9 0014 	str.w	r0, [r9, #20]
   86dee:	2100      	movs	r1, #0
   86df0:	ad18      	add	r5, sp, #96	; 0x60
   86df2:	950b      	str	r5, [sp, #44]	; 0x2c
   86df4:	910d      	str	r1, [sp, #52]	; 0x34
   86df6:	910c      	str	r1, [sp, #48]	; 0x30
   86df8:	9401      	str	r4, [sp, #4]
   86dfa:	9105      	str	r1, [sp, #20]
   86dfc:	9104      	str	r1, [sp, #16]
   86dfe:	46a8      	mov	r8, r5
   86e00:	9b01      	ldr	r3, [sp, #4]
   86e02:	461c      	mov	r4, r3
   86e04:	f813 2b01 	ldrb.w	r2, [r3], #1
   86e08:	b91a      	cbnz	r2, 86e12 <_svfiprintf_r+0x64>
   86e0a:	9801      	ldr	r0, [sp, #4]
   86e0c:	1a25      	subs	r5, r4, r0
   86e0e:	d103      	bne.n	86e18 <_svfiprintf_r+0x6a>
   86e10:	e01d      	b.n	86e4e <_svfiprintf_r+0xa0>
   86e12:	2a25      	cmp	r2, #37	; 0x25
   86e14:	d1f5      	bne.n	86e02 <_svfiprintf_r+0x54>
   86e16:	e7f8      	b.n	86e0a <_svfiprintf_r+0x5c>
   86e18:	9a01      	ldr	r2, [sp, #4]
   86e1a:	990d      	ldr	r1, [sp, #52]	; 0x34
   86e1c:	e888 0024 	stmia.w	r8, {r2, r5}
   86e20:	9a0c      	ldr	r2, [sp, #48]	; 0x30
   86e22:	194b      	adds	r3, r1, r5
   86e24:	1c50      	adds	r0, r2, #1
   86e26:	2807      	cmp	r0, #7
   86e28:	930d      	str	r3, [sp, #52]	; 0x34
   86e2a:	900c      	str	r0, [sp, #48]	; 0x30
   86e2c:	dc02      	bgt.n	86e34 <_svfiprintf_r+0x86>
   86e2e:	f108 0808 	add.w	r8, r8, #8
   86e32:	e009      	b.n	86e48 <_svfiprintf_r+0x9a>
   86e34:	4658      	mov	r0, fp
   86e36:	4649      	mov	r1, r9
   86e38:	aa0b      	add	r2, sp, #44	; 0x2c
   86e3a:	f7ff ff3b 	bl	86cb4 <__ssprint_r>
   86e3e:	2800      	cmp	r0, #0
   86e40:	f040 83a3 	bne.w	8758a <_svfiprintf_r+0x7dc>
   86e44:	f10d 0860 	add.w	r8, sp, #96	; 0x60
   86e48:	9904      	ldr	r1, [sp, #16]
   86e4a:	194b      	adds	r3, r1, r5
   86e4c:	9304      	str	r3, [sp, #16]
   86e4e:	7822      	ldrb	r2, [r4, #0]
   86e50:	2a00      	cmp	r2, #0
   86e52:	f000 8393 	beq.w	8757c <_svfiprintf_r+0x7ce>
   86e56:	2200      	movs	r2, #0
   86e58:	3401      	adds	r4, #1
   86e5a:	9401      	str	r4, [sp, #4]
   86e5c:	f88d 2027 	strb.w	r2, [sp, #39]	; 0x27
   86e60:	f04f 3cff 	mov.w	ip, #4294967295
   86e64:	9203      	str	r2, [sp, #12]
   86e66:	4617      	mov	r7, r2
   86e68:	9801      	ldr	r0, [sp, #4]
   86e6a:	f810 3b01 	ldrb.w	r3, [r0], #1
   86e6e:	9001      	str	r0, [sp, #4]
   86e70:	2b63      	cmp	r3, #99	; 0x63
   86e72:	f000 80b3 	beq.w	86fdc <_svfiprintf_r+0x22e>
   86e76:	dc33      	bgt.n	86ee0 <_svfiprintf_r+0x132>
   86e78:	2b39      	cmp	r3, #57	; 0x39
   86e7a:	dc1a      	bgt.n	86eb2 <_svfiprintf_r+0x104>
   86e7c:	2b31      	cmp	r3, #49	; 0x31
   86e7e:	f280 8091 	bge.w	86fa4 <_svfiprintf_r+0x1f6>
   86e82:	2b2b      	cmp	r3, #43	; 0x2b
   86e84:	d101      	bne.n	86e8a <_svfiprintf_r+0xdc>
   86e86:	461a      	mov	r2, r3
   86e88:	e7ee      	b.n	86e68 <_svfiprintf_r+0xba>
   86e8a:	dc0a      	bgt.n	86ea2 <_svfiprintf_r+0xf4>
   86e8c:	2b23      	cmp	r3, #35	; 0x23
   86e8e:	d055      	beq.n	86f3c <_svfiprintf_r+0x18e>
   86e90:	2b2a      	cmp	r3, #42	; 0x2a
   86e92:	d056      	beq.n	86f42 <_svfiprintf_r+0x194>
   86e94:	2b20      	cmp	r3, #32
   86e96:	f040 81f6 	bne.w	87286 <_svfiprintf_r+0x4d8>
   86e9a:	2a00      	cmp	r2, #0
   86e9c:	bf08      	it	eq
   86e9e:	2220      	moveq	r2, #32
   86ea0:	e7e2      	b.n	86e68 <_svfiprintf_r+0xba>
   86ea2:	2b2e      	cmp	r3, #46	; 0x2e
   86ea4:	d058      	beq.n	86f58 <_svfiprintf_r+0x1aa>
   86ea6:	2b30      	cmp	r3, #48	; 0x30
   86ea8:	d079      	beq.n	86f9e <_svfiprintf_r+0x1f0>
   86eaa:	2b2d      	cmp	r3, #45	; 0x2d
   86eac:	f040 81eb 	bne.w	87286 <_svfiprintf_r+0x4d8>
   86eb0:	e04f      	b.n	86f52 <_svfiprintf_r+0x1a4>
   86eb2:	2b4f      	cmp	r3, #79	; 0x4f
   86eb4:	f000 80de 	beq.w	87074 <_svfiprintf_r+0x2c6>
   86eb8:	dc07      	bgt.n	86eca <_svfiprintf_r+0x11c>
   86eba:	2b44      	cmp	r3, #68	; 0x44
   86ebc:	f040 81e3 	bne.w	87286 <_svfiprintf_r+0x4d8>
   86ec0:	f88d 2027 	strb.w	r2, [sp, #39]	; 0x27
   86ec4:	f047 0710 	orr.w	r7, r7, #16
   86ec8:	e090      	b.n	86fec <_svfiprintf_r+0x23e>
   86eca:	2b55      	cmp	r3, #85	; 0x55
   86ecc:	f000 811f 	beq.w	8710e <_svfiprintf_r+0x360>
   86ed0:	2b58      	cmp	r3, #88	; 0x58
   86ed2:	f040 81d8 	bne.w	87286 <_svfiprintf_r+0x4d8>
   86ed6:	4daf      	ldr	r5, [pc, #700]	; (87194 <_svfiprintf_r+0x3e6>)
   86ed8:	f88d 2027 	strb.w	r2, [sp, #39]	; 0x27
   86edc:	9505      	str	r5, [sp, #20]
   86ede:	e130      	b.n	87142 <_svfiprintf_r+0x394>
   86ee0:	2b6f      	cmp	r3, #111	; 0x6f
   86ee2:	f000 80c9 	beq.w	87078 <_svfiprintf_r+0x2ca>
   86ee6:	dc10      	bgt.n	86f0a <_svfiprintf_r+0x15c>
   86ee8:	2b69      	cmp	r3, #105	; 0x69
   86eea:	d024      	beq.n	86f36 <_svfiprintf_r+0x188>
   86eec:	dc07      	bgt.n	86efe <_svfiprintf_r+0x150>
   86eee:	2b64      	cmp	r3, #100	; 0x64
   86ef0:	d021      	beq.n	86f36 <_svfiprintf_r+0x188>
   86ef2:	2b68      	cmp	r3, #104	; 0x68
   86ef4:	f040 81c7 	bne.w	87286 <_svfiprintf_r+0x4d8>
   86ef8:	f047 0740 	orr.w	r7, r7, #64	; 0x40
   86efc:	e7b4      	b.n	86e68 <_svfiprintf_r+0xba>
   86efe:	2b6c      	cmp	r3, #108	; 0x6c
   86f00:	d05f      	beq.n	86fc2 <_svfiprintf_r+0x214>
   86f02:	2b6e      	cmp	r3, #110	; 0x6e
   86f04:	f040 81bf 	bne.w	87286 <_svfiprintf_r+0x4d8>
   86f08:	e096      	b.n	87038 <_svfiprintf_r+0x28a>
   86f0a:	2b73      	cmp	r3, #115	; 0x73
   86f0c:	f000 80df 	beq.w	870ce <_svfiprintf_r+0x320>
   86f10:	dc06      	bgt.n	86f20 <_svfiprintf_r+0x172>
   86f12:	2b70      	cmp	r3, #112	; 0x70
   86f14:	f000 80cd 	beq.w	870b2 <_svfiprintf_r+0x304>
   86f18:	2b71      	cmp	r3, #113	; 0x71
   86f1a:	f040 81b4 	bne.w	87286 <_svfiprintf_r+0x4d8>
   86f1e:	e05a      	b.n	86fd6 <_svfiprintf_r+0x228>
   86f20:	2b75      	cmp	r3, #117	; 0x75
   86f22:	f000 80f6 	beq.w	87112 <_svfiprintf_r+0x364>
   86f26:	2b78      	cmp	r3, #120	; 0x78
   86f28:	f040 81ad 	bne.w	87286 <_svfiprintf_r+0x4d8>
   86f2c:	4d9a      	ldr	r5, [pc, #616]	; (87198 <_svfiprintf_r+0x3ea>)
   86f2e:	f88d 2027 	strb.w	r2, [sp, #39]	; 0x27
   86f32:	9505      	str	r5, [sp, #20]
   86f34:	e105      	b.n	87142 <_svfiprintf_r+0x394>
   86f36:	f88d 2027 	strb.w	r2, [sp, #39]	; 0x27
   86f3a:	e057      	b.n	86fec <_svfiprintf_r+0x23e>
   86f3c:	f047 0701 	orr.w	r7, r7, #1
   86f40:	e792      	b.n	86e68 <_svfiprintf_r+0xba>
   86f42:	1d33      	adds	r3, r6, #4
   86f44:	6836      	ldr	r6, [r6, #0]
   86f46:	2e00      	cmp	r6, #0
   86f48:	9603      	str	r6, [sp, #12]
   86f4a:	da15      	bge.n	86f78 <_svfiprintf_r+0x1ca>
   86f4c:	4270      	negs	r0, r6
   86f4e:	9003      	str	r0, [sp, #12]
   86f50:	461e      	mov	r6, r3
   86f52:	f047 0704 	orr.w	r7, r7, #4
   86f56:	e787      	b.n	86e68 <_svfiprintf_r+0xba>
   86f58:	9901      	ldr	r1, [sp, #4]
   86f5a:	f811 3b01 	ldrb.w	r3, [r1], #1
   86f5e:	2b2a      	cmp	r3, #42	; 0x2a
   86f60:	9101      	str	r1, [sp, #4]
   86f62:	d10b      	bne.n	86f7c <_svfiprintf_r+0x1ce>
   86f64:	f8d6 c000 	ldr.w	ip, [r6]
   86f68:	1d33      	adds	r3, r6, #4
   86f6a:	f1bc 0f00 	cmp.w	ip, #0
   86f6e:	da03      	bge.n	86f78 <_svfiprintf_r+0x1ca>
   86f70:	461e      	mov	r6, r3
   86f72:	f04f 3cff 	mov.w	ip, #4294967295
   86f76:	e777      	b.n	86e68 <_svfiprintf_r+0xba>
   86f78:	461e      	mov	r6, r3
   86f7a:	e775      	b.n	86e68 <_svfiprintf_r+0xba>
   86f7c:	f04f 0c00 	mov.w	ip, #0
   86f80:	f1a3 0030 	sub.w	r0, r3, #48	; 0x30
   86f84:	2809      	cmp	r0, #9
   86f86:	d807      	bhi.n	86f98 <_svfiprintf_r+0x1ea>
   86f88:	9901      	ldr	r1, [sp, #4]
   86f8a:	230a      	movs	r3, #10
   86f8c:	fb03 0c0c 	mla	ip, r3, ip, r0
   86f90:	f811 3b01 	ldrb.w	r3, [r1], #1
   86f94:	9101      	str	r1, [sp, #4]
   86f96:	e7f3      	b.n	86f80 <_svfiprintf_r+0x1d2>
   86f98:	ea4c 7cec 	orr.w	ip, ip, ip, asr #31
   86f9c:	e768      	b.n	86e70 <_svfiprintf_r+0xc2>
   86f9e:	f047 0780 	orr.w	r7, r7, #128	; 0x80
   86fa2:	e761      	b.n	86e68 <_svfiprintf_r+0xba>
   86fa4:	9801      	ldr	r0, [sp, #4]
   86fa6:	2100      	movs	r1, #0
   86fa8:	3b30      	subs	r3, #48	; 0x30
   86faa:	240a      	movs	r4, #10
   86fac:	fb04 3101 	mla	r1, r4, r1, r3
   86fb0:	f810 3b01 	ldrb.w	r3, [r0], #1
   86fb4:	f1a3 0430 	sub.w	r4, r3, #48	; 0x30
   86fb8:	2c09      	cmp	r4, #9
   86fba:	9001      	str	r0, [sp, #4]
   86fbc:	d9f4      	bls.n	86fa8 <_svfiprintf_r+0x1fa>
   86fbe:	9103      	str	r1, [sp, #12]
   86fc0:	e756      	b.n	86e70 <_svfiprintf_r+0xc2>
   86fc2:	9901      	ldr	r1, [sp, #4]
   86fc4:	780b      	ldrb	r3, [r1, #0]
   86fc6:	2b6c      	cmp	r3, #108	; 0x6c
   86fc8:	d102      	bne.n	86fd0 <_svfiprintf_r+0x222>
   86fca:	1c48      	adds	r0, r1, #1
   86fcc:	9001      	str	r0, [sp, #4]
   86fce:	e002      	b.n	86fd6 <_svfiprintf_r+0x228>
   86fd0:	f047 0710 	orr.w	r7, r7, #16
   86fd4:	e748      	b.n	86e68 <_svfiprintf_r+0xba>
   86fd6:	f047 0720 	orr.w	r7, r7, #32
   86fda:	e745      	b.n	86e68 <_svfiprintf_r+0xba>
   86fdc:	6832      	ldr	r2, [r6, #0]
   86fde:	2500      	movs	r5, #0
   86fe0:	f88d 2038 	strb.w	r2, [sp, #56]	; 0x38
   86fe4:	f88d 5027 	strb.w	r5, [sp, #39]	; 0x27
   86fe8:	3604      	adds	r6, #4
   86fea:	e156      	b.n	8729a <_svfiprintf_r+0x4ec>
   86fec:	06ba      	lsls	r2, r7, #26
   86fee:	d507      	bpl.n	87000 <_svfiprintf_r+0x252>
   86ff0:	3607      	adds	r6, #7
   86ff2:	f026 0507 	bic.w	r5, r6, #7
   86ff6:	f105 0608 	add.w	r6, r5, #8
   86ffa:	e9d5 4500 	ldrd	r4, r5, [r5]
   86ffe:	e00f      	b.n	87020 <_svfiprintf_r+0x272>
   87000:	f017 0f10 	tst.w	r7, #16
   87004:	f106 0104 	add.w	r1, r6, #4
   87008:	d001      	beq.n	8700e <_svfiprintf_r+0x260>
   8700a:	6832      	ldr	r2, [r6, #0]
   8700c:	e005      	b.n	8701a <_svfiprintf_r+0x26c>
   8700e:	f017 0f40 	tst.w	r7, #64	; 0x40
   87012:	6832      	ldr	r2, [r6, #0]
   87014:	d001      	beq.n	8701a <_svfiprintf_r+0x26c>
   87016:	b214      	sxth	r4, r2
   87018:	e000      	b.n	8701c <_svfiprintf_r+0x26e>
   8701a:	4614      	mov	r4, r2
   8701c:	17e5      	asrs	r5, r4, #31
   8701e:	460e      	mov	r6, r1
   87020:	2c00      	cmp	r4, #0
   87022:	f175 0200 	sbcs.w	r2, r5, #0
   87026:	f280 80b9 	bge.w	8719c <_svfiprintf_r+0x3ee>
   8702a:	232d      	movs	r3, #45	; 0x2d
   8702c:	4264      	negs	r4, r4
   8702e:	eb65 0545 	sbc.w	r5, r5, r5, lsl #1
   87032:	f88d 3027 	strb.w	r3, [sp, #39]	; 0x27
   87036:	e0b1      	b.n	8719c <_svfiprintf_r+0x3ee>
   87038:	f017 0f20 	tst.w	r7, #32
   8703c:	f88d 2027 	strb.w	r2, [sp, #39]	; 0x27
   87040:	f106 0204 	add.w	r2, r6, #4
   87044:	d005      	beq.n	87052 <_svfiprintf_r+0x2a4>
   87046:	9c04      	ldr	r4, [sp, #16]
   87048:	6835      	ldr	r5, [r6, #0]
   8704a:	17e0      	asrs	r0, r4, #31
   8704c:	602c      	str	r4, [r5, #0]
   8704e:	6068      	str	r0, [r5, #4]
   87050:	e004      	b.n	8705c <_svfiprintf_r+0x2ae>
   87052:	06fb      	lsls	r3, r7, #27
   87054:	d504      	bpl.n	87060 <_svfiprintf_r+0x2b2>
   87056:	6833      	ldr	r3, [r6, #0]
   87058:	9904      	ldr	r1, [sp, #16]
   8705a:	6019      	str	r1, [r3, #0]
   8705c:	4616      	mov	r6, r2
   8705e:	e6cf      	b.n	86e00 <_svfiprintf_r+0x52>
   87060:	6830      	ldr	r0, [r6, #0]
   87062:	9c04      	ldr	r4, [sp, #16]
   87064:	f017 0f40 	tst.w	r7, #64	; 0x40
   87068:	f106 0604 	add.w	r6, r6, #4
   8706c:	bf14      	ite	ne
   8706e:	8004      	strhne	r4, [r0, #0]
   87070:	6004      	streq	r4, [r0, #0]
   87072:	e6c5      	b.n	86e00 <_svfiprintf_r+0x52>
   87074:	f047 0710 	orr.w	r7, r7, #16
   87078:	f017 0020 	ands.w	r0, r7, #32
   8707c:	d008      	beq.n	87090 <_svfiprintf_r+0x2e2>
   8707e:	1df3      	adds	r3, r6, #7
   87080:	f023 0507 	bic.w	r5, r3, #7
   87084:	f105 0608 	add.w	r6, r5, #8
   87088:	e9d5 4500 	ldrd	r4, r5, [r5]
   8708c:	2000      	movs	r0, #0
   8708e:	e07c      	b.n	8718a <_svfiprintf_r+0x3dc>
   87090:	f017 0110 	ands.w	r1, r7, #16
   87094:	f106 0204 	add.w	r2, r6, #4
   87098:	d106      	bne.n	870a8 <_svfiprintf_r+0x2fa>
   8709a:	f017 0040 	ands.w	r0, r7, #64	; 0x40
   8709e:	d003      	beq.n	870a8 <_svfiprintf_r+0x2fa>
   870a0:	8834      	ldrh	r4, [r6, #0]
   870a2:	2500      	movs	r5, #0
   870a4:	4616      	mov	r6, r2
   870a6:	e7f1      	b.n	8708c <_svfiprintf_r+0x2de>
   870a8:	6836      	ldr	r6, [r6, #0]
   870aa:	2500      	movs	r5, #0
   870ac:	4634      	mov	r4, r6
   870ae:	4616      	mov	r6, r2
   870b0:	e06b      	b.n	8718a <_svfiprintf_r+0x3dc>
   870b2:	4b39      	ldr	r3, [pc, #228]	; (87198 <_svfiprintf_r+0x3ea>)
   870b4:	2130      	movs	r1, #48	; 0x30
   870b6:	2278      	movs	r2, #120	; 0x78
   870b8:	6834      	ldr	r4, [r6, #0]
   870ba:	2500      	movs	r5, #0
   870bc:	f047 0702 	orr.w	r7, r7, #2
   870c0:	f88d 1028 	strb.w	r1, [sp, #40]	; 0x28
   870c4:	f88d 2029 	strb.w	r2, [sp, #41]	; 0x29
   870c8:	3604      	adds	r6, #4
   870ca:	9305      	str	r3, [sp, #20]
   870cc:	e05c      	b.n	87188 <_svfiprintf_r+0x3da>
   870ce:	4631      	mov	r1, r6
   870d0:	2500      	movs	r5, #0
   870d2:	f8d1 a000 	ldr.w	sl, [r1]
   870d6:	3604      	adds	r6, #4
   870d8:	45ac      	cmp	ip, r5
   870da:	f88d 5027 	strb.w	r5, [sp, #39]	; 0x27
   870de:	4650      	mov	r0, sl
   870e0:	db11      	blt.n	87106 <_svfiprintf_r+0x358>
   870e2:	4662      	mov	r2, ip
   870e4:	4629      	mov	r1, r5
   870e6:	f8cd c000 	str.w	ip, [sp]
   870ea:	f7ff fbe9 	bl	868c0 <memchr>
   870ee:	f8dd c000 	ldr.w	ip, [sp]
   870f2:	2800      	cmp	r0, #0
   870f4:	f000 80d5 	beq.w	872a2 <_svfiprintf_r+0x4f4>
   870f8:	ebca 0400 	rsb	r4, sl, r0
   870fc:	4564      	cmp	r4, ip
   870fe:	f340 80d2 	ble.w	872a6 <_svfiprintf_r+0x4f8>
   87102:	4664      	mov	r4, ip
   87104:	e0cf      	b.n	872a6 <_svfiprintf_r+0x4f8>
   87106:	f7fd fb85 	bl	84814 <strlen>
   8710a:	4604      	mov	r4, r0
   8710c:	e0cb      	b.n	872a6 <_svfiprintf_r+0x4f8>
   8710e:	f047 0710 	orr.w	r7, r7, #16
   87112:	06bd      	lsls	r5, r7, #26
   87114:	d506      	bpl.n	87124 <_svfiprintf_r+0x376>
   87116:	1df0      	adds	r0, r6, #7
   87118:	f020 0407 	bic.w	r4, r0, #7
   8711c:	f104 0608 	add.w	r6, r4, #8
   87120:	cc30      	ldmia	r4, {r4, r5}
   87122:	e00c      	b.n	8713e <_svfiprintf_r+0x390>
   87124:	f017 0f10 	tst.w	r7, #16
   87128:	f106 0304 	add.w	r3, r6, #4
   8712c:	d103      	bne.n	87136 <_svfiprintf_r+0x388>
   8712e:	067c      	lsls	r4, r7, #25
   87130:	d501      	bpl.n	87136 <_svfiprintf_r+0x388>
   87132:	8834      	ldrh	r4, [r6, #0]
   87134:	e001      	b.n	8713a <_svfiprintf_r+0x38c>
   87136:	6835      	ldr	r5, [r6, #0]
   87138:	462c      	mov	r4, r5
   8713a:	2500      	movs	r5, #0
   8713c:	461e      	mov	r6, r3
   8713e:	2001      	movs	r0, #1
   87140:	e023      	b.n	8718a <_svfiprintf_r+0x3dc>
   87142:	06b8      	lsls	r0, r7, #26
   87144:	d507      	bpl.n	87156 <_svfiprintf_r+0x3a8>
   87146:	1df4      	adds	r4, r6, #7
   87148:	f024 0107 	bic.w	r1, r4, #7
   8714c:	f101 0608 	add.w	r6, r1, #8
   87150:	e9d1 4500 	ldrd	r4, r5, [r1]
   87154:	e00c      	b.n	87170 <_svfiprintf_r+0x3c2>
   87156:	f017 0f10 	tst.w	r7, #16
   8715a:	f106 0004 	add.w	r0, r6, #4
   8715e:	d103      	bne.n	87168 <_svfiprintf_r+0x3ba>
   87160:	0679      	lsls	r1, r7, #25
   87162:	d501      	bpl.n	87168 <_svfiprintf_r+0x3ba>
   87164:	8834      	ldrh	r4, [r6, #0]
   87166:	e001      	b.n	8716c <_svfiprintf_r+0x3be>
   87168:	6836      	ldr	r6, [r6, #0]
   8716a:	4634      	mov	r4, r6
   8716c:	2500      	movs	r5, #0
   8716e:	4606      	mov	r6, r0
   87170:	07fa      	lsls	r2, r7, #31
   87172:	d509      	bpl.n	87188 <_svfiprintf_r+0x3da>
   87174:	ea54 0205 	orrs.w	r2, r4, r5
   87178:	d006      	beq.n	87188 <_svfiprintf_r+0x3da>
   8717a:	2230      	movs	r2, #48	; 0x30
   8717c:	f88d 2028 	strb.w	r2, [sp, #40]	; 0x28
   87180:	f88d 3029 	strb.w	r3, [sp, #41]	; 0x29
   87184:	f047 0702 	orr.w	r7, r7, #2
   87188:	2002      	movs	r0, #2
   8718a:	2100      	movs	r1, #0
   8718c:	f88d 1027 	strb.w	r1, [sp, #39]	; 0x27
   87190:	e005      	b.n	8719e <_svfiprintf_r+0x3f0>
   87192:	bf00      	nop
   87194:	00087ef6 	.word	0x00087ef6
   87198:	00087f07 	.word	0x00087f07
   8719c:	2001      	movs	r0, #1
   8719e:	f1bc 0f00 	cmp.w	ip, #0
   871a2:	bfa8      	it	ge
   871a4:	f027 0780 	bicge.w	r7, r7, #128	; 0x80
   871a8:	ea54 0105 	orrs.w	r1, r4, r5
   871ac:	d102      	bne.n	871b4 <_svfiprintf_r+0x406>
   871ae:	f1bc 0f00 	cmp.w	ip, #0
   871b2:	d058      	beq.n	87266 <_svfiprintf_r+0x4b8>
   871b4:	2801      	cmp	r0, #1
   871b6:	d01d      	beq.n	871f4 <_svfiprintf_r+0x446>
   871b8:	2802      	cmp	r0, #2
   871ba:	f10d 035f 	add.w	r3, sp, #95	; 0x5f
   871be:	d041      	beq.n	87244 <_svfiprintf_r+0x496>
   871c0:	f004 0207 	and.w	r2, r4, #7
   871c4:	08e4      	lsrs	r4, r4, #3
   871c6:	ea44 7045 	orr.w	r0, r4, r5, lsl #29
   871ca:	08e9      	lsrs	r1, r5, #3
   871cc:	4604      	mov	r4, r0
   871ce:	460d      	mov	r5, r1
   871d0:	3230      	adds	r2, #48	; 0x30
   871d2:	ea54 0105 	orrs.w	r1, r4, r5
   871d6:	469a      	mov	sl, r3
   871d8:	701a      	strb	r2, [r3, #0]
   871da:	f103 33ff 	add.w	r3, r3, #4294967295
   871de:	d1ef      	bne.n	871c0 <_svfiprintf_r+0x412>
   871e0:	07f8      	lsls	r0, r7, #31
   871e2:	4655      	mov	r5, sl
   871e4:	d54a      	bpl.n	8727c <_svfiprintf_r+0x4ce>
   871e6:	2a30      	cmp	r2, #48	; 0x30
   871e8:	d048      	beq.n	8727c <_svfiprintf_r+0x4ce>
   871ea:	2230      	movs	r2, #48	; 0x30
   871ec:	469a      	mov	sl, r3
   871ee:	f805 2c01 	strb.w	r2, [r5, #-1]
   871f2:	e043      	b.n	8727c <_svfiprintf_r+0x4ce>
   871f4:	2d00      	cmp	r5, #0
   871f6:	bf08      	it	eq
   871f8:	2c0a      	cmpeq	r4, #10
   871fa:	d203      	bcs.n	87204 <_svfiprintf_r+0x456>
   871fc:	3430      	adds	r4, #48	; 0x30
   871fe:	f88d 405f 	strb.w	r4, [sp, #95]	; 0x5f
   87202:	e036      	b.n	87272 <_svfiprintf_r+0x4c4>
   87204:	f10d 035f 	add.w	r3, sp, #95	; 0x5f
   87208:	9302      	str	r3, [sp, #8]
   8720a:	4620      	mov	r0, r4
   8720c:	4629      	mov	r1, r5
   8720e:	220a      	movs	r2, #10
   87210:	2300      	movs	r3, #0
   87212:	f8cd c000 	str.w	ip, [sp]
   87216:	f000 fb29 	bl	8786c <__aeabi_uldivmod>
   8721a:	9802      	ldr	r0, [sp, #8]
   8721c:	3230      	adds	r2, #48	; 0x30
   8721e:	f800 2901 	strb.w	r2, [r0], #-1
   87222:	4629      	mov	r1, r5
   87224:	220a      	movs	r2, #10
   87226:	2300      	movs	r3, #0
   87228:	f8dd a008 	ldr.w	sl, [sp, #8]
   8722c:	9002      	str	r0, [sp, #8]
   8722e:	4620      	mov	r0, r4
   87230:	f000 fb1c 	bl	8786c <__aeabi_uldivmod>
   87234:	4604      	mov	r4, r0
   87236:	460d      	mov	r5, r1
   87238:	ea54 0105 	orrs.w	r1, r4, r5
   8723c:	f8dd c000 	ldr.w	ip, [sp]
   87240:	d1e3      	bne.n	8720a <_svfiprintf_r+0x45c>
   87242:	e01b      	b.n	8727c <_svfiprintf_r+0x4ce>
   87244:	9905      	ldr	r1, [sp, #20]
   87246:	f004 000f 	and.w	r0, r4, #15
   8724a:	0924      	lsrs	r4, r4, #4
   8724c:	5c0a      	ldrb	r2, [r1, r0]
   8724e:	ea44 7005 	orr.w	r0, r4, r5, lsl #28
   87252:	0929      	lsrs	r1, r5, #4
   87254:	4604      	mov	r4, r0
   87256:	460d      	mov	r5, r1
   87258:	469a      	mov	sl, r3
   8725a:	f803 2901 	strb.w	r2, [r3], #-1
   8725e:	ea54 0205 	orrs.w	r2, r4, r5
   87262:	d1ef      	bne.n	87244 <_svfiprintf_r+0x496>
   87264:	e00a      	b.n	8727c <_svfiprintf_r+0x4ce>
   87266:	b938      	cbnz	r0, 87278 <_svfiprintf_r+0x4ca>
   87268:	07f9      	lsls	r1, r7, #31
   8726a:	d505      	bpl.n	87278 <_svfiprintf_r+0x4ca>
   8726c:	2030      	movs	r0, #48	; 0x30
   8726e:	f88d 005f 	strb.w	r0, [sp, #95]	; 0x5f
   87272:	f10d 0a5f 	add.w	sl, sp, #95	; 0x5f
   87276:	e001      	b.n	8727c <_svfiprintf_r+0x4ce>
   87278:	f10d 0a60 	add.w	sl, sp, #96	; 0x60
   8727c:	ad18      	add	r5, sp, #96	; 0x60
   8727e:	ebca 0405 	rsb	r4, sl, r5
   87282:	4665      	mov	r5, ip
   87284:	e00f      	b.n	872a6 <_svfiprintf_r+0x4f8>
   87286:	f88d 2027 	strb.w	r2, [sp, #39]	; 0x27
   8728a:	2b00      	cmp	r3, #0
   8728c:	f000 8176 	beq.w	8757c <_svfiprintf_r+0x7ce>
   87290:	2500      	movs	r5, #0
   87292:	f88d 3038 	strb.w	r3, [sp, #56]	; 0x38
   87296:	f88d 5027 	strb.w	r5, [sp, #39]	; 0x27
   8729a:	2401      	movs	r4, #1
   8729c:	f10d 0a38 	add.w	sl, sp, #56	; 0x38
   872a0:	e001      	b.n	872a6 <_svfiprintf_r+0x4f8>
   872a2:	4664      	mov	r4, ip
   872a4:	4605      	mov	r5, r0
   872a6:	f89d 3027 	ldrb.w	r3, [sp, #39]	; 0x27
   872aa:	42ac      	cmp	r4, r5
   872ac:	bfac      	ite	ge
   872ae:	4621      	movge	r1, r4
   872b0:	4629      	movlt	r1, r5
   872b2:	9102      	str	r1, [sp, #8]
   872b4:	b113      	cbz	r3, 872bc <_svfiprintf_r+0x50e>
   872b6:	9802      	ldr	r0, [sp, #8]
   872b8:	1c42      	adds	r2, r0, #1
   872ba:	9202      	str	r2, [sp, #8]
   872bc:	f017 0102 	ands.w	r1, r7, #2
   872c0:	9106      	str	r1, [sp, #24]
   872c2:	d002      	beq.n	872ca <_svfiprintf_r+0x51c>
   872c4:	9b02      	ldr	r3, [sp, #8]
   872c6:	1c98      	adds	r0, r3, #2
   872c8:	9002      	str	r0, [sp, #8]
   872ca:	f017 0284 	ands.w	r2, r7, #132	; 0x84
   872ce:	9207      	str	r2, [sp, #28]
   872d0:	d13c      	bne.n	8734c <_svfiprintf_r+0x59e>
   872d2:	9903      	ldr	r1, [sp, #12]
   872d4:	9b02      	ldr	r3, [sp, #8]
   872d6:	1acb      	subs	r3, r1, r3
   872d8:	2b00      	cmp	r3, #0
   872da:	dd37      	ble.n	8734c <_svfiprintf_r+0x59e>
   872dc:	48a5      	ldr	r0, [pc, #660]	; (87574 <_svfiprintf_r+0x7c6>)
   872de:	2b10      	cmp	r3, #16
   872e0:	f8c8 0000 	str.w	r0, [r8]
   872e4:	dd1b      	ble.n	8731e <_svfiprintf_r+0x570>
   872e6:	9a0c      	ldr	r2, [sp, #48]	; 0x30
   872e8:	2110      	movs	r1, #16
   872ea:	980d      	ldr	r0, [sp, #52]	; 0x34
   872ec:	f8c8 1004 	str.w	r1, [r8, #4]
   872f0:	1c51      	adds	r1, r2, #1
   872f2:	3010      	adds	r0, #16
   872f4:	2907      	cmp	r1, #7
   872f6:	900d      	str	r0, [sp, #52]	; 0x34
   872f8:	910c      	str	r1, [sp, #48]	; 0x30
   872fa:	dc02      	bgt.n	87302 <_svfiprintf_r+0x554>
   872fc:	f108 0808 	add.w	r8, r8, #8
   87300:	e00b      	b.n	8731a <_svfiprintf_r+0x56c>
   87302:	4658      	mov	r0, fp
   87304:	4649      	mov	r1, r9
   87306:	aa0b      	add	r2, sp, #44	; 0x2c
   87308:	9300      	str	r3, [sp, #0]
   8730a:	f7ff fcd3 	bl	86cb4 <__ssprint_r>
   8730e:	9b00      	ldr	r3, [sp, #0]
   87310:	2800      	cmp	r0, #0
   87312:	f040 813a 	bne.w	8758a <_svfiprintf_r+0x7dc>
   87316:	f10d 0860 	add.w	r8, sp, #96	; 0x60
   8731a:	3b10      	subs	r3, #16
   8731c:	e7de      	b.n	872dc <_svfiprintf_r+0x52e>
   8731e:	9a0d      	ldr	r2, [sp, #52]	; 0x34
   87320:	f8c8 3004 	str.w	r3, [r8, #4]
   87324:	18d1      	adds	r1, r2, r3
   87326:	9b0c      	ldr	r3, [sp, #48]	; 0x30
   87328:	910d      	str	r1, [sp, #52]	; 0x34
   8732a:	1c58      	adds	r0, r3, #1
   8732c:	2807      	cmp	r0, #7
   8732e:	900c      	str	r0, [sp, #48]	; 0x30
   87330:	dc02      	bgt.n	87338 <_svfiprintf_r+0x58a>
   87332:	f108 0808 	add.w	r8, r8, #8
   87336:	e009      	b.n	8734c <_svfiprintf_r+0x59e>
   87338:	4658      	mov	r0, fp
   8733a:	4649      	mov	r1, r9
   8733c:	aa0b      	add	r2, sp, #44	; 0x2c
   8733e:	f7ff fcb9 	bl	86cb4 <__ssprint_r>
   87342:	2800      	cmp	r0, #0
   87344:	f040 8121 	bne.w	8758a <_svfiprintf_r+0x7dc>
   87348:	f10d 0860 	add.w	r8, sp, #96	; 0x60
   8734c:	f89d 2027 	ldrb.w	r2, [sp, #39]	; 0x27
   87350:	b1da      	cbz	r2, 8738a <_svfiprintf_r+0x5dc>
   87352:	f10d 0127 	add.w	r1, sp, #39	; 0x27
   87356:	f8c8 1000 	str.w	r1, [r8]
   8735a:	990c      	ldr	r1, [sp, #48]	; 0x30
   8735c:	2301      	movs	r3, #1
   8735e:	980d      	ldr	r0, [sp, #52]	; 0x34
   87360:	f8c8 3004 	str.w	r3, [r8, #4]
   87364:	1c4b      	adds	r3, r1, #1
   87366:	1c42      	adds	r2, r0, #1
   87368:	2b07      	cmp	r3, #7
   8736a:	920d      	str	r2, [sp, #52]	; 0x34
   8736c:	930c      	str	r3, [sp, #48]	; 0x30
   8736e:	dc02      	bgt.n	87376 <_svfiprintf_r+0x5c8>
   87370:	f108 0808 	add.w	r8, r8, #8
   87374:	e009      	b.n	8738a <_svfiprintf_r+0x5dc>
   87376:	4658      	mov	r0, fp
   87378:	4649      	mov	r1, r9
   8737a:	aa0b      	add	r2, sp, #44	; 0x2c
   8737c:	f7ff fc9a 	bl	86cb4 <__ssprint_r>
   87380:	2800      	cmp	r0, #0
   87382:	f040 8102 	bne.w	8758a <_svfiprintf_r+0x7dc>
   87386:	f10d 0860 	add.w	r8, sp, #96	; 0x60
   8738a:	9806      	ldr	r0, [sp, #24]
   8738c:	b1d0      	cbz	r0, 873c4 <_svfiprintf_r+0x616>
   8738e:	aa0a      	add	r2, sp, #40	; 0x28
   87390:	f8c8 2000 	str.w	r2, [r8]
   87394:	9a0c      	ldr	r2, [sp, #48]	; 0x30
   87396:	2102      	movs	r1, #2
   87398:	9b0d      	ldr	r3, [sp, #52]	; 0x34
   8739a:	f8c8 1004 	str.w	r1, [r8, #4]
   8739e:	1c51      	adds	r1, r2, #1
   873a0:	1c98      	adds	r0, r3, #2
   873a2:	2907      	cmp	r1, #7
   873a4:	900d      	str	r0, [sp, #52]	; 0x34
   873a6:	910c      	str	r1, [sp, #48]	; 0x30
   873a8:	dc02      	bgt.n	873b0 <_svfiprintf_r+0x602>
   873aa:	f108 0808 	add.w	r8, r8, #8
   873ae:	e009      	b.n	873c4 <_svfiprintf_r+0x616>
   873b0:	4658      	mov	r0, fp
   873b2:	4649      	mov	r1, r9
   873b4:	aa0b      	add	r2, sp, #44	; 0x2c
   873b6:	f7ff fc7d 	bl	86cb4 <__ssprint_r>
   873ba:	2800      	cmp	r0, #0
   873bc:	f040 80e5 	bne.w	8758a <_svfiprintf_r+0x7dc>
   873c0:	f10d 0860 	add.w	r8, sp, #96	; 0x60
   873c4:	9b07      	ldr	r3, [sp, #28]
   873c6:	2b80      	cmp	r3, #128	; 0x80
   873c8:	d13c      	bne.n	87444 <_svfiprintf_r+0x696>
   873ca:	9803      	ldr	r0, [sp, #12]
   873cc:	9a02      	ldr	r2, [sp, #8]
   873ce:	1a83      	subs	r3, r0, r2
   873d0:	2b00      	cmp	r3, #0
   873d2:	dd37      	ble.n	87444 <_svfiprintf_r+0x696>
   873d4:	4968      	ldr	r1, [pc, #416]	; (87578 <_svfiprintf_r+0x7ca>)
   873d6:	2b10      	cmp	r3, #16
   873d8:	f8c8 1000 	str.w	r1, [r8]
   873dc:	dd1b      	ble.n	87416 <_svfiprintf_r+0x668>
   873de:	980c      	ldr	r0, [sp, #48]	; 0x30
   873e0:	2210      	movs	r2, #16
   873e2:	990d      	ldr	r1, [sp, #52]	; 0x34
   873e4:	f8c8 2004 	str.w	r2, [r8, #4]
   873e8:	1c42      	adds	r2, r0, #1
   873ea:	3110      	adds	r1, #16
   873ec:	2a07      	cmp	r2, #7
   873ee:	910d      	str	r1, [sp, #52]	; 0x34
   873f0:	920c      	str	r2, [sp, #48]	; 0x30
   873f2:	dc02      	bgt.n	873fa <_svfiprintf_r+0x64c>
   873f4:	f108 0808 	add.w	r8, r8, #8
   873f8:	e00b      	b.n	87412 <_svfiprintf_r+0x664>
   873fa:	4658      	mov	r0, fp
   873fc:	4649      	mov	r1, r9
   873fe:	aa0b      	add	r2, sp, #44	; 0x2c
   87400:	9300      	str	r3, [sp, #0]
   87402:	f7ff fc57 	bl	86cb4 <__ssprint_r>
   87406:	9b00      	ldr	r3, [sp, #0]
   87408:	2800      	cmp	r0, #0
   8740a:	f040 80be 	bne.w	8758a <_svfiprintf_r+0x7dc>
   8740e:	f10d 0860 	add.w	r8, sp, #96	; 0x60
   87412:	3b10      	subs	r3, #16
   87414:	e7de      	b.n	873d4 <_svfiprintf_r+0x626>
   87416:	9a0c      	ldr	r2, [sp, #48]	; 0x30
   87418:	980d      	ldr	r0, [sp, #52]	; 0x34
   8741a:	1c51      	adds	r1, r2, #1
   8741c:	f8c8 3004 	str.w	r3, [r8, #4]
   87420:	2907      	cmp	r1, #7
   87422:	4403      	add	r3, r0
   87424:	930d      	str	r3, [sp, #52]	; 0x34
   87426:	910c      	str	r1, [sp, #48]	; 0x30
   87428:	dc02      	bgt.n	87430 <_svfiprintf_r+0x682>
   8742a:	f108 0808 	add.w	r8, r8, #8
   8742e:	e009      	b.n	87444 <_svfiprintf_r+0x696>
   87430:	4658      	mov	r0, fp
   87432:	4649      	mov	r1, r9
   87434:	aa0b      	add	r2, sp, #44	; 0x2c
   87436:	f7ff fc3d 	bl	86cb4 <__ssprint_r>
   8743a:	2800      	cmp	r0, #0
   8743c:	f040 80a5 	bne.w	8758a <_svfiprintf_r+0x7dc>
   87440:	f10d 0860 	add.w	r8, sp, #96	; 0x60
   87444:	1b2d      	subs	r5, r5, r4
   87446:	2d00      	cmp	r5, #0
   87448:	dd34      	ble.n	874b4 <_svfiprintf_r+0x706>
   8744a:	484b      	ldr	r0, [pc, #300]	; (87578 <_svfiprintf_r+0x7ca>)
   8744c:	2d10      	cmp	r5, #16
   8744e:	f8c8 0000 	str.w	r0, [r8]
   87452:	dd19      	ble.n	87488 <_svfiprintf_r+0x6da>
   87454:	980c      	ldr	r0, [sp, #48]	; 0x30
   87456:	990d      	ldr	r1, [sp, #52]	; 0x34
   87458:	1c43      	adds	r3, r0, #1
   8745a:	2210      	movs	r2, #16
   8745c:	3110      	adds	r1, #16
   8745e:	2b07      	cmp	r3, #7
   87460:	f8c8 2004 	str.w	r2, [r8, #4]
   87464:	910d      	str	r1, [sp, #52]	; 0x34
   87466:	930c      	str	r3, [sp, #48]	; 0x30
   87468:	dc02      	bgt.n	87470 <_svfiprintf_r+0x6c2>
   8746a:	f108 0808 	add.w	r8, r8, #8
   8746e:	e009      	b.n	87484 <_svfiprintf_r+0x6d6>
   87470:	4658      	mov	r0, fp
   87472:	4649      	mov	r1, r9
   87474:	aa0b      	add	r2, sp, #44	; 0x2c
   87476:	f7ff fc1d 	bl	86cb4 <__ssprint_r>
   8747a:	2800      	cmp	r0, #0
   8747c:	f040 8085 	bne.w	8758a <_svfiprintf_r+0x7dc>
   87480:	f10d 0860 	add.w	r8, sp, #96	; 0x60
   87484:	3d10      	subs	r5, #16
   87486:	e7e0      	b.n	8744a <_svfiprintf_r+0x69c>
   87488:	9a0c      	ldr	r2, [sp, #48]	; 0x30
   8748a:	9b0d      	ldr	r3, [sp, #52]	; 0x34
   8748c:	1c51      	adds	r1, r2, #1
   8748e:	f8c8 5004 	str.w	r5, [r8, #4]
   87492:	2907      	cmp	r1, #7
   87494:	441d      	add	r5, r3
   87496:	950d      	str	r5, [sp, #52]	; 0x34
   87498:	910c      	str	r1, [sp, #48]	; 0x30
   8749a:	dc02      	bgt.n	874a2 <_svfiprintf_r+0x6f4>
   8749c:	f108 0808 	add.w	r8, r8, #8
   874a0:	e008      	b.n	874b4 <_svfiprintf_r+0x706>
   874a2:	4658      	mov	r0, fp
   874a4:	4649      	mov	r1, r9
   874a6:	aa0b      	add	r2, sp, #44	; 0x2c
   874a8:	f7ff fc04 	bl	86cb4 <__ssprint_r>
   874ac:	2800      	cmp	r0, #0
   874ae:	d16c      	bne.n	8758a <_svfiprintf_r+0x7dc>
   874b0:	f10d 0860 	add.w	r8, sp, #96	; 0x60
   874b4:	9b0c      	ldr	r3, [sp, #48]	; 0x30
   874b6:	980d      	ldr	r0, [sp, #52]	; 0x34
   874b8:	1c5a      	adds	r2, r3, #1
   874ba:	f8c8 4004 	str.w	r4, [r8, #4]
   874be:	2a07      	cmp	r2, #7
   874c0:	4404      	add	r4, r0
   874c2:	f8c8 a000 	str.w	sl, [r8]
   874c6:	940d      	str	r4, [sp, #52]	; 0x34
   874c8:	920c      	str	r2, [sp, #48]	; 0x30
   874ca:	dc02      	bgt.n	874d2 <_svfiprintf_r+0x724>
   874cc:	f108 0308 	add.w	r3, r8, #8
   874d0:	e007      	b.n	874e2 <_svfiprintf_r+0x734>
   874d2:	4658      	mov	r0, fp
   874d4:	4649      	mov	r1, r9
   874d6:	aa0b      	add	r2, sp, #44	; 0x2c
   874d8:	f7ff fbec 	bl	86cb4 <__ssprint_r>
   874dc:	2800      	cmp	r0, #0
   874de:	d154      	bne.n	8758a <_svfiprintf_r+0x7dc>
   874e0:	ab18      	add	r3, sp, #96	; 0x60
   874e2:	077a      	lsls	r2, r7, #29
   874e4:	d40b      	bmi.n	874fe <_svfiprintf_r+0x750>
   874e6:	9804      	ldr	r0, [sp, #16]
   874e8:	9b02      	ldr	r3, [sp, #8]
   874ea:	9a03      	ldr	r2, [sp, #12]
   874ec:	990d      	ldr	r1, [sp, #52]	; 0x34
   874ee:	4293      	cmp	r3, r2
   874f0:	bfac      	ite	ge
   874f2:	18c0      	addge	r0, r0, r3
   874f4:	1880      	addlt	r0, r0, r2
   874f6:	9004      	str	r0, [sp, #16]
   874f8:	2900      	cmp	r1, #0
   874fa:	d036      	beq.n	8756a <_svfiprintf_r+0x7bc>
   874fc:	e02f      	b.n	8755e <_svfiprintf_r+0x7b0>
   874fe:	9c03      	ldr	r4, [sp, #12]
   87500:	9902      	ldr	r1, [sp, #8]
   87502:	1a64      	subs	r4, r4, r1
   87504:	2c00      	cmp	r4, #0
   87506:	ddee      	ble.n	874e6 <_svfiprintf_r+0x738>
   87508:	481a      	ldr	r0, [pc, #104]	; (87574 <_svfiprintf_r+0x7c6>)
   8750a:	2c10      	cmp	r4, #16
   8750c:	6018      	str	r0, [r3, #0]
   8750e:	dd15      	ble.n	8753c <_svfiprintf_r+0x78e>
   87510:	990c      	ldr	r1, [sp, #48]	; 0x30
   87512:	2010      	movs	r0, #16
   87514:	9a0d      	ldr	r2, [sp, #52]	; 0x34
   87516:	6058      	str	r0, [r3, #4]
   87518:	1c48      	adds	r0, r1, #1
   8751a:	3210      	adds	r2, #16
   8751c:	2807      	cmp	r0, #7
   8751e:	920d      	str	r2, [sp, #52]	; 0x34
   87520:	900c      	str	r0, [sp, #48]	; 0x30
   87522:	dc01      	bgt.n	87528 <_svfiprintf_r+0x77a>
   87524:	3308      	adds	r3, #8
   87526:	e007      	b.n	87538 <_svfiprintf_r+0x78a>
   87528:	4658      	mov	r0, fp
   8752a:	4649      	mov	r1, r9
   8752c:	aa0b      	add	r2, sp, #44	; 0x2c
   8752e:	f7ff fbc1 	bl	86cb4 <__ssprint_r>
   87532:	2800      	cmp	r0, #0
   87534:	d129      	bne.n	8758a <_svfiprintf_r+0x7dc>
   87536:	ab18      	add	r3, sp, #96	; 0x60
   87538:	3c10      	subs	r4, #16
   8753a:	e7e5      	b.n	87508 <_svfiprintf_r+0x75a>
   8753c:	9a0c      	ldr	r2, [sp, #48]	; 0x30
   8753e:	605c      	str	r4, [r3, #4]
   87540:	9b0d      	ldr	r3, [sp, #52]	; 0x34
   87542:	1c51      	adds	r1, r2, #1
   87544:	191c      	adds	r4, r3, r4
   87546:	2907      	cmp	r1, #7
   87548:	940d      	str	r4, [sp, #52]	; 0x34
   8754a:	910c      	str	r1, [sp, #48]	; 0x30
   8754c:	ddcb      	ble.n	874e6 <_svfiprintf_r+0x738>
   8754e:	4658      	mov	r0, fp
   87550:	4649      	mov	r1, r9
   87552:	aa0b      	add	r2, sp, #44	; 0x2c
   87554:	f7ff fbae 	bl	86cb4 <__ssprint_r>
   87558:	2800      	cmp	r0, #0
   8755a:	d0c4      	beq.n	874e6 <_svfiprintf_r+0x738>
   8755c:	e015      	b.n	8758a <_svfiprintf_r+0x7dc>
   8755e:	4658      	mov	r0, fp
   87560:	4649      	mov	r1, r9
   87562:	aa0b      	add	r2, sp, #44	; 0x2c
   87564:	f7ff fba6 	bl	86cb4 <__ssprint_r>
   87568:	b978      	cbnz	r0, 8758a <_svfiprintf_r+0x7dc>
   8756a:	2500      	movs	r5, #0
   8756c:	950c      	str	r5, [sp, #48]	; 0x30
   8756e:	f10d 0860 	add.w	r8, sp, #96	; 0x60
   87572:	e445      	b.n	86e00 <_svfiprintf_r+0x52>
   87574:	00087f40 	.word	0x00087f40
   87578:	00087f50 	.word	0x00087f50
   8757c:	980d      	ldr	r0, [sp, #52]	; 0x34
   8757e:	b120      	cbz	r0, 8758a <_svfiprintf_r+0x7dc>
   87580:	4658      	mov	r0, fp
   87582:	4649      	mov	r1, r9
   87584:	aa0b      	add	r2, sp, #44	; 0x2c
   87586:	f7ff fb95 	bl	86cb4 <__ssprint_r>
   8758a:	f8b9 200c 	ldrh.w	r2, [r9, #12]
   8758e:	9b04      	ldr	r3, [sp, #16]
   87590:	f002 0140 	and.w	r1, r2, #64	; 0x40
   87594:	b208      	sxth	r0, r1
   87596:	2800      	cmp	r0, #0
   87598:	bf18      	it	ne
   8759a:	f04f 33ff 	movne.w	r3, #4294967295
   8759e:	4618      	mov	r0, r3
   875a0:	b029      	add	sp, #164	; 0xa4
   875a2:	e8bd 8ff0 	ldmia.w	sp!, {r4, r5, r6, r7, r8, r9, sl, fp, pc}
   875a6:	bf00      	nop

000875a8 <__swbuf_r>:
   875a8:	b570      	push	{r4, r5, r6, lr}
   875aa:	460d      	mov	r5, r1
   875ac:	4614      	mov	r4, r2
   875ae:	4606      	mov	r6, r0
   875b0:	b118      	cbz	r0, 875ba <__swbuf_r+0x12>
   875b2:	6b83      	ldr	r3, [r0, #56]	; 0x38
   875b4:	b90b      	cbnz	r3, 875ba <__swbuf_r+0x12>
   875b6:	f7fe fb2f 	bl	85c18 <__sinit>
   875ba:	89a1      	ldrh	r1, [r4, #12]
   875bc:	69a0      	ldr	r0, [r4, #24]
   875be:	f001 0208 	and.w	r2, r1, #8
   875c2:	b213      	sxth	r3, r2
   875c4:	60a0      	str	r0, [r4, #8]
   875c6:	b10b      	cbz	r3, 875cc <__swbuf_r+0x24>
   875c8:	6920      	ldr	r0, [r4, #16]
   875ca:	b958      	cbnz	r0, 875e4 <__swbuf_r+0x3c>
   875cc:	4630      	mov	r0, r6
   875ce:	4621      	mov	r1, r4
   875d0:	f7fe f9c4 	bl	8595c <__swsetup_r>
   875d4:	b130      	cbz	r0, 875e4 <__swbuf_r+0x3c>
   875d6:	89a5      	ldrh	r5, [r4, #12]
   875d8:	2009      	movs	r0, #9
   875da:	f045 0140 	orr.w	r1, r5, #64	; 0x40
   875de:	81a1      	strh	r1, [r4, #12]
   875e0:	6030      	str	r0, [r6, #0]
   875e2:	e017      	b.n	87614 <__swbuf_r+0x6c>
   875e4:	89a1      	ldrh	r1, [r4, #12]
   875e6:	b2ed      	uxtb	r5, r5
   875e8:	f401 5200 	and.w	r2, r1, #8192	; 0x2000
   875ec:	b213      	sxth	r3, r2
   875ee:	b933      	cbnz	r3, 875fe <__swbuf_r+0x56>
   875f0:	f441 5000 	orr.w	r0, r1, #8192	; 0x2000
   875f4:	6e61      	ldr	r1, [r4, #100]	; 0x64
   875f6:	81a0      	strh	r0, [r4, #12]
   875f8:	f421 5200 	bic.w	r2, r1, #8192	; 0x2000
   875fc:	6662      	str	r2, [r4, #100]	; 0x64
   875fe:	6820      	ldr	r0, [r4, #0]
   87600:	6923      	ldr	r3, [r4, #16]
   87602:	6961      	ldr	r1, [r4, #20]
   87604:	1ac0      	subs	r0, r0, r3
   87606:	4288      	cmp	r0, r1
   87608:	db07      	blt.n	8761a <__swbuf_r+0x72>
   8760a:	4630      	mov	r0, r6
   8760c:	4621      	mov	r1, r4
   8760e:	f7fe fa11 	bl	85a34 <_fflush_r>
   87612:	b110      	cbz	r0, 8761a <__swbuf_r+0x72>
   87614:	f04f 35ff 	mov.w	r5, #4294967295
   87618:	e015      	b.n	87646 <__swbuf_r+0x9e>
   8761a:	68a2      	ldr	r2, [r4, #8]
   8761c:	6821      	ldr	r1, [r4, #0]
   8761e:	1e53      	subs	r3, r2, #1
   87620:	60a3      	str	r3, [r4, #8]
   87622:	f801 5b01 	strb.w	r5, [r1], #1
   87626:	6962      	ldr	r2, [r4, #20]
   87628:	3001      	adds	r0, #1
   8762a:	4290      	cmp	r0, r2
   8762c:	6021      	str	r1, [r4, #0]
   8762e:	d004      	beq.n	8763a <__swbuf_r+0x92>
   87630:	89a3      	ldrh	r3, [r4, #12]
   87632:	07db      	lsls	r3, r3, #31
   87634:	d507      	bpl.n	87646 <__swbuf_r+0x9e>
   87636:	2d0a      	cmp	r5, #10
   87638:	d105      	bne.n	87646 <__swbuf_r+0x9e>
   8763a:	4630      	mov	r0, r6
   8763c:	4621      	mov	r1, r4
   8763e:	f7fe f9f9 	bl	85a34 <_fflush_r>
   87642:	2800      	cmp	r0, #0
   87644:	d1e6      	bne.n	87614 <__swbuf_r+0x6c>
   87646:	4628      	mov	r0, r5
   87648:	bd70      	pop	{r4, r5, r6, pc}

0008764a <__swbuf>:
   8764a:	460a      	mov	r2, r1
   8764c:	4902      	ldr	r1, [pc, #8]	; (87658 <__swbuf+0xe>)
   8764e:	4603      	mov	r3, r0
   87650:	6808      	ldr	r0, [r1, #0]
   87652:	4619      	mov	r1, r3
   87654:	f7ff bfa8 	b.w	875a8 <__swbuf_r>
   87658:	20070018 	.word	0x20070018

0008765c <_wcrtomb_r>:
   8765c:	e92d 41f0 	stmdb	sp!, {r4, r5, r6, r7, r8, lr}
   87660:	461d      	mov	r5, r3
   87662:	4b10      	ldr	r3, [pc, #64]	; (876a4 <_wcrtomb_r+0x48>)
   87664:	b086      	sub	sp, #24
   87666:	4604      	mov	r4, r0
   87668:	4690      	mov	r8, r2
   8766a:	460e      	mov	r6, r1
   8766c:	681f      	ldr	r7, [r3, #0]
   8766e:	b939      	cbnz	r1, 87680 <_wcrtomb_r+0x24>
   87670:	f7fe fe86 	bl	86380 <__locale_charset>
   87674:	9500      	str	r5, [sp, #0]
   87676:	4603      	mov	r3, r0
   87678:	a903      	add	r1, sp, #12
   8767a:	4620      	mov	r0, r4
   8767c:	4632      	mov	r2, r6
   8767e:	e006      	b.n	8768e <_wcrtomb_r+0x32>
   87680:	f7fe fe7e 	bl	86380 <__locale_charset>
   87684:	9500      	str	r5, [sp, #0]
   87686:	4603      	mov	r3, r0
   87688:	4631      	mov	r1, r6
   8768a:	4620      	mov	r0, r4
   8768c:	4642      	mov	r2, r8
   8768e:	47b8      	blx	r7
   87690:	1c43      	adds	r3, r0, #1
   87692:	d103      	bne.n	8769c <_wcrtomb_r+0x40>
   87694:	2100      	movs	r1, #0
   87696:	228a      	movs	r2, #138	; 0x8a
   87698:	6029      	str	r1, [r5, #0]
   8769a:	6022      	str	r2, [r4, #0]
   8769c:	b006      	add	sp, #24
   8769e:	e8bd 81f0 	ldmia.w	sp!, {r4, r5, r6, r7, r8, pc}
   876a2:	bf00      	nop
   876a4:	200708d4 	.word	0x200708d4

000876a8 <wcrtomb>:
   876a8:	b530      	push	{r4, r5, lr}
   876aa:	4613      	mov	r3, r2
   876ac:	4a04      	ldr	r2, [pc, #16]	; (876c0 <wcrtomb+0x18>)
   876ae:	4605      	mov	r5, r0
   876b0:	460c      	mov	r4, r1
   876b2:	6810      	ldr	r0, [r2, #0]
   876b4:	4629      	mov	r1, r5
   876b6:	4622      	mov	r2, r4
   876b8:	e8bd 4030 	ldmia.w	sp!, {r4, r5, lr}
   876bc:	f7ff bfce 	b.w	8765c <_wcrtomb_r>
   876c0:	20070018 	.word	0x20070018

000876c4 <__ascii_wctomb>:
   876c4:	b149      	cbz	r1, 876da <__ascii_wctomb+0x16>
   876c6:	2aff      	cmp	r2, #255	; 0xff
   876c8:	d904      	bls.n	876d4 <__ascii_wctomb+0x10>
   876ca:	238a      	movs	r3, #138	; 0x8a
   876cc:	6003      	str	r3, [r0, #0]
   876ce:	f04f 30ff 	mov.w	r0, #4294967295
   876d2:	4770      	bx	lr
   876d4:	700a      	strb	r2, [r1, #0]
   876d6:	2001      	movs	r0, #1
   876d8:	4770      	bx	lr
   876da:	4608      	mov	r0, r1
   876dc:	4770      	bx	lr

000876de <_wctomb_r>:
   876de:	e92d 41f3 	stmdb	sp!, {r0, r1, r4, r5, r6, r7, r8, lr}
   876e2:	4698      	mov	r8, r3
   876e4:	4b07      	ldr	r3, [pc, #28]	; (87704 <_wctomb_r+0x26>)
   876e6:	4605      	mov	r5, r0
   876e8:	460f      	mov	r7, r1
   876ea:	4616      	mov	r6, r2
   876ec:	681c      	ldr	r4, [r3, #0]
   876ee:	f7fe fe47 	bl	86380 <__locale_charset>
   876f2:	f8cd 8000 	str.w	r8, [sp]
   876f6:	4603      	mov	r3, r0
   876f8:	4639      	mov	r1, r7
   876fa:	4628      	mov	r0, r5
   876fc:	4632      	mov	r2, r6
   876fe:	47a0      	blx	r4
   87700:	e8bd 81fc 	ldmia.w	sp!, {r2, r3, r4, r5, r6, r7, r8, pc}
   87704:	200708d4 	.word	0x200708d4

00087708 <_write_r>:
   87708:	b538      	push	{r3, r4, r5, lr}
   8770a:	4c07      	ldr	r4, [pc, #28]	; (87728 <_write_r+0x20>)
   8770c:	4605      	mov	r5, r0
   8770e:	2000      	movs	r0, #0
   87710:	6020      	str	r0, [r4, #0]
   87712:	4608      	mov	r0, r1
   87714:	4611      	mov	r1, r2
   87716:	461a      	mov	r2, r3
   87718:	f7f8 fe7c 	bl	80414 <_write>
   8771c:	1c43      	adds	r3, r0, #1
   8771e:	d102      	bne.n	87726 <_write_r+0x1e>
   87720:	6823      	ldr	r3, [r4, #0]
   87722:	b103      	cbz	r3, 87726 <_write_r+0x1e>
   87724:	602b      	str	r3, [r5, #0]
   87726:	bd38      	pop	{r3, r4, r5, pc}
   87728:	20078ba8 	.word	0x20078ba8

0008772c <_close_r>:
   8772c:	b538      	push	{r3, r4, r5, lr}
   8772e:	4c06      	ldr	r4, [pc, #24]	; (87748 <_close_r+0x1c>)
   87730:	2300      	movs	r3, #0
   87732:	4605      	mov	r5, r0
   87734:	4608      	mov	r0, r1
   87736:	6023      	str	r3, [r4, #0]
   87738:	f7fb fe3a 	bl	833b0 <_close>
   8773c:	1c43      	adds	r3, r0, #1
   8773e:	d102      	bne.n	87746 <_close_r+0x1a>
   87740:	6821      	ldr	r1, [r4, #0]
   87742:	b101      	cbz	r1, 87746 <_close_r+0x1a>
   87744:	6029      	str	r1, [r5, #0]
   87746:	bd38      	pop	{r3, r4, r5, pc}
   87748:	20078ba8 	.word	0x20078ba8

0008774c <_fclose_r>:
   8774c:	b570      	push	{r4, r5, r6, lr}
   8774e:	4605      	mov	r5, r0
   87750:	460c      	mov	r4, r1
   87752:	2900      	cmp	r1, #0
   87754:	d039      	beq.n	877ca <_fclose_r+0x7e>
   87756:	f7fe fac3 	bl	85ce0 <__sfp_lock_acquire>
   8775a:	b125      	cbz	r5, 87766 <_fclose_r+0x1a>
   8775c:	6bab      	ldr	r3, [r5, #56]	; 0x38
   8775e:	b913      	cbnz	r3, 87766 <_fclose_r+0x1a>
   87760:	4628      	mov	r0, r5
   87762:	f7fe fa59 	bl	85c18 <__sinit>
   87766:	f9b4 600c 	ldrsh.w	r6, [r4, #12]
   8776a:	b35e      	cbz	r6, 877c4 <_fclose_r+0x78>
   8776c:	4628      	mov	r0, r5
   8776e:	4621      	mov	r1, r4
   87770:	f7fe f960 	bl	85a34 <_fflush_r>
   87774:	6ae2      	ldr	r2, [r4, #44]	; 0x2c
   87776:	4606      	mov	r6, r0
   87778:	b13a      	cbz	r2, 8778a <_fclose_r+0x3e>
   8777a:	4628      	mov	r0, r5
   8777c:	69e1      	ldr	r1, [r4, #28]
   8777e:	4790      	blx	r2
   87780:	ea36 0620 	bics.w	r6, r6, r0, asr #32
   87784:	bf28      	it	cs
   87786:	f04f 36ff 	movcs.w	r6, #4294967295
   8778a:	89a0      	ldrh	r0, [r4, #12]
   8778c:	f000 0180 	and.w	r1, r0, #128	; 0x80
   87790:	b20b      	sxth	r3, r1
   87792:	b11b      	cbz	r3, 8779c <_fclose_r+0x50>
   87794:	4628      	mov	r0, r5
   87796:	6921      	ldr	r1, [r4, #16]
   87798:	f7fe fb7c 	bl	85e94 <_free_r>
   8779c:	6b21      	ldr	r1, [r4, #48]	; 0x30
   8779e:	b141      	cbz	r1, 877b2 <_fclose_r+0x66>
   877a0:	f104 0240 	add.w	r2, r4, #64	; 0x40
   877a4:	4291      	cmp	r1, r2
   877a6:	d002      	beq.n	877ae <_fclose_r+0x62>
   877a8:	4628      	mov	r0, r5
   877aa:	f7fe fb73 	bl	85e94 <_free_r>
   877ae:	2000      	movs	r0, #0
   877b0:	6320      	str	r0, [r4, #48]	; 0x30
   877b2:	6c61      	ldr	r1, [r4, #68]	; 0x44
   877b4:	b121      	cbz	r1, 877c0 <_fclose_r+0x74>
   877b6:	4628      	mov	r0, r5
   877b8:	f7fe fb6c 	bl	85e94 <_free_r>
   877bc:	2100      	movs	r1, #0
   877be:	6461      	str	r1, [r4, #68]	; 0x44
   877c0:	2300      	movs	r3, #0
   877c2:	81a3      	strh	r3, [r4, #12]
   877c4:	f7fe fa8d 	bl	85ce2 <__sfp_lock_release>
   877c8:	e000      	b.n	877cc <_fclose_r+0x80>
   877ca:	460e      	mov	r6, r1
   877cc:	4630      	mov	r0, r6
   877ce:	bd70      	pop	{r4, r5, r6, pc}

000877d0 <fclose>:
   877d0:	4b02      	ldr	r3, [pc, #8]	; (877dc <fclose+0xc>)
   877d2:	4601      	mov	r1, r0
   877d4:	6818      	ldr	r0, [r3, #0]
   877d6:	f7ff bfb9 	b.w	8774c <_fclose_r>
   877da:	bf00      	nop
   877dc:	20070018 	.word	0x20070018

000877e0 <_fstat_r>:
   877e0:	b538      	push	{r3, r4, r5, lr}
   877e2:	4c07      	ldr	r4, [pc, #28]	; (87800 <_fstat_r+0x20>)
   877e4:	2300      	movs	r3, #0
   877e6:	4605      	mov	r5, r0
   877e8:	4608      	mov	r0, r1
   877ea:	4611      	mov	r1, r2
   877ec:	6023      	str	r3, [r4, #0]
   877ee:	f7fb fde3 	bl	833b8 <_fstat>
   877f2:	1c43      	adds	r3, r0, #1
   877f4:	d102      	bne.n	877fc <_fstat_r+0x1c>
   877f6:	6821      	ldr	r1, [r4, #0]
   877f8:	b101      	cbz	r1, 877fc <_fstat_r+0x1c>
   877fa:	6029      	str	r1, [r5, #0]
   877fc:	bd38      	pop	{r3, r4, r5, pc}
   877fe:	bf00      	nop
   87800:	20078ba8 	.word	0x20078ba8

00087804 <_isatty_r>:
   87804:	b538      	push	{r3, r4, r5, lr}
   87806:	4c06      	ldr	r4, [pc, #24]	; (87820 <_isatty_r+0x1c>)
   87808:	2300      	movs	r3, #0
   8780a:	4605      	mov	r5, r0
   8780c:	4608      	mov	r0, r1
   8780e:	6023      	str	r3, [r4, #0]
   87810:	f7fb fdd8 	bl	833c4 <_isatty>
   87814:	1c43      	adds	r3, r0, #1
   87816:	d102      	bne.n	8781e <_isatty_r+0x1a>
   87818:	6821      	ldr	r1, [r4, #0]
   8781a:	b101      	cbz	r1, 8781e <_isatty_r+0x1a>
   8781c:	6029      	str	r1, [r5, #0]
   8781e:	bd38      	pop	{r3, r4, r5, pc}
   87820:	20078ba8 	.word	0x20078ba8

00087824 <_lseek_r>:
   87824:	b538      	push	{r3, r4, r5, lr}
   87826:	4c07      	ldr	r4, [pc, #28]	; (87844 <_lseek_r+0x20>)
   87828:	4605      	mov	r5, r0
   8782a:	2000      	movs	r0, #0
   8782c:	6020      	str	r0, [r4, #0]
   8782e:	4608      	mov	r0, r1
   87830:	4611      	mov	r1, r2
   87832:	461a      	mov	r2, r3
   87834:	f7fb fdca 	bl	833cc <_lseek>
   87838:	1c43      	adds	r3, r0, #1
   8783a:	d102      	bne.n	87842 <_lseek_r+0x1e>
   8783c:	6823      	ldr	r3, [r4, #0]
   8783e:	b103      	cbz	r3, 87842 <_lseek_r+0x1e>
   87840:	602b      	str	r3, [r5, #0]
   87842:	bd38      	pop	{r3, r4, r5, pc}
   87844:	20078ba8 	.word	0x20078ba8

00087848 <_read_r>:
   87848:	b538      	push	{r3, r4, r5, lr}
   8784a:	4c07      	ldr	r4, [pc, #28]	; (87868 <_read_r+0x20>)
   8784c:	4605      	mov	r5, r0
   8784e:	2000      	movs	r0, #0
   87850:	6020      	str	r0, [r4, #0]
   87852:	4608      	mov	r0, r1
   87854:	4611      	mov	r1, r2
   87856:	461a      	mov	r2, r3
   87858:	f7f8 fd98 	bl	8038c <_read>
   8785c:	1c43      	adds	r3, r0, #1
   8785e:	d102      	bne.n	87866 <_read_r+0x1e>
   87860:	6823      	ldr	r3, [r4, #0]
   87862:	b103      	cbz	r3, 87866 <_read_r+0x1e>
   87864:	602b      	str	r3, [r5, #0]
   87866:	bd38      	pop	{r3, r4, r5, pc}
   87868:	20078ba8 	.word	0x20078ba8

0008786c <__aeabi_uldivmod>:
   8786c:	b94b      	cbnz	r3, 87882 <__aeabi_uldivmod+0x16>
   8786e:	b942      	cbnz	r2, 87882 <__aeabi_uldivmod+0x16>
   87870:	2900      	cmp	r1, #0
   87872:	bf08      	it	eq
   87874:	2800      	cmpeq	r0, #0
   87876:	d002      	beq.n	8787e <__aeabi_uldivmod+0x12>
   87878:	f04f 31ff 	mov.w	r1, #4294967295
   8787c:	4608      	mov	r0, r1
   8787e:	f000 b83b 	b.w	878f8 <__aeabi_idiv0>
   87882:	b082      	sub	sp, #8
   87884:	46ec      	mov	ip, sp
   87886:	e92d 5000 	stmdb	sp!, {ip, lr}
   8788a:	f000 f81d 	bl	878c8 <__gnu_uldivmod_helper>
   8788e:	f8dd e004 	ldr.w	lr, [sp, #4]
   87892:	b002      	add	sp, #8
   87894:	bc0c      	pop	{r2, r3}
   87896:	4770      	bx	lr

00087898 <__gnu_ldivmod_helper>:
   87898:	e92d 41f0 	stmdb	sp!, {r4, r5, r6, r7, r8, lr}
   8789c:	4616      	mov	r6, r2
   8789e:	4698      	mov	r8, r3
   878a0:	4604      	mov	r4, r0
   878a2:	460d      	mov	r5, r1
   878a4:	f000 f82a 	bl	878fc <__divdi3>
   878a8:	fb06 fc01 	mul.w	ip, r6, r1
   878ac:	fba6 2300 	umull	r2, r3, r6, r0
   878b0:	fb00 c708 	mla	r7, r0, r8, ip
   878b4:	18fb      	adds	r3, r7, r3
   878b6:	1aa2      	subs	r2, r4, r2
   878b8:	eb65 0303 	sbc.w	r3, r5, r3
   878bc:	9c06      	ldr	r4, [sp, #24]
   878be:	e9c4 2300 	strd	r2, r3, [r4]
   878c2:	e8bd 81f0 	ldmia.w	sp!, {r4, r5, r6, r7, r8, pc}
   878c6:	bf00      	nop

000878c8 <__gnu_uldivmod_helper>:
   878c8:	e92d 41f0 	stmdb	sp!, {r4, r5, r6, r7, r8, lr}
   878cc:	4690      	mov	r8, r2
   878ce:	4606      	mov	r6, r0
   878d0:	460f      	mov	r7, r1
   878d2:	461d      	mov	r5, r3
   878d4:	f000 f970 	bl	87bb8 <__udivdi3>
   878d8:	fb00 f305 	mul.w	r3, r0, r5
   878dc:	fba0 4508 	umull	r4, r5, r0, r8
   878e0:	fb08 3801 	mla	r8, r8, r1, r3
   878e4:	9b06      	ldr	r3, [sp, #24]
   878e6:	4445      	add	r5, r8
   878e8:	1b34      	subs	r4, r6, r4
   878ea:	eb67 0505 	sbc.w	r5, r7, r5
   878ee:	e9c3 4500 	strd	r4, r5, [r3]
   878f2:	e8bd 81f0 	ldmia.w	sp!, {r4, r5, r6, r7, r8, pc}
   878f6:	bf00      	nop

000878f8 <__aeabi_idiv0>:
   878f8:	4770      	bx	lr
   878fa:	bf00      	nop

000878fc <__divdi3>:
   878fc:	2900      	cmp	r1, #0
   878fe:	e92d 0ff0 	stmdb	sp!, {r4, r5, r6, r7, r8, r9, sl, fp}
   87902:	461d      	mov	r5, r3
   87904:	f2c0 809d 	blt.w	87a42 <__divdi3+0x146>
   87908:	2400      	movs	r4, #0
   8790a:	2d00      	cmp	r5, #0
   8790c:	f2c0 8094 	blt.w	87a38 <__divdi3+0x13c>
   87910:	4680      	mov	r8, r0
   87912:	460f      	mov	r7, r1
   87914:	4694      	mov	ip, r2
   87916:	461e      	mov	r6, r3
   87918:	bbe3      	cbnz	r3, 87994 <__divdi3+0x98>
   8791a:	428a      	cmp	r2, r1
   8791c:	d955      	bls.n	879ca <__divdi3+0xce>
   8791e:	fab2 f782 	clz	r7, r2
   87922:	b147      	cbz	r7, 87936 <__divdi3+0x3a>
   87924:	f1c7 0520 	rsb	r5, r7, #32
   87928:	fa20 f605 	lsr.w	r6, r0, r5
   8792c:	fa01 f107 	lsl.w	r1, r1, r7
   87930:	40ba      	lsls	r2, r7
   87932:	40b8      	lsls	r0, r7
   87934:	4331      	orrs	r1, r6
   87936:	0c17      	lsrs	r7, r2, #16
   87938:	fbb1 f6f7 	udiv	r6, r1, r7
   8793c:	fa1f fc82 	uxth.w	ip, r2
   87940:	fb07 1116 	mls	r1, r7, r6, r1
   87944:	fb0c f506 	mul.w	r5, ip, r6
   87948:	0c03      	lsrs	r3, r0, #16
   8794a:	ea43 4301 	orr.w	r3, r3, r1, lsl #16
   8794e:	429d      	cmp	r5, r3
   87950:	d908      	bls.n	87964 <__divdi3+0x68>
   87952:	1e71      	subs	r1, r6, #1
   87954:	189b      	adds	r3, r3, r2
   87956:	f080 8113 	bcs.w	87b80 <__divdi3+0x284>
   8795a:	429d      	cmp	r5, r3
   8795c:	f240 8110 	bls.w	87b80 <__divdi3+0x284>
   87960:	3e02      	subs	r6, #2
   87962:	189b      	adds	r3, r3, r2
   87964:	1b59      	subs	r1, r3, r5
   87966:	fbb1 f5f7 	udiv	r5, r1, r7
   8796a:	fb07 1315 	mls	r3, r7, r5, r1
   8796e:	fb0c fc05 	mul.w	ip, ip, r5
   87972:	b280      	uxth	r0, r0
   87974:	ea40 4103 	orr.w	r1, r0, r3, lsl #16
   87978:	458c      	cmp	ip, r1
   8797a:	d907      	bls.n	8798c <__divdi3+0x90>
   8797c:	1e6b      	subs	r3, r5, #1
   8797e:	188a      	adds	r2, r1, r2
   87980:	f080 8100 	bcs.w	87b84 <__divdi3+0x288>
   87984:	4594      	cmp	ip, r2
   87986:	f240 80fd 	bls.w	87b84 <__divdi3+0x288>
   8798a:	3d02      	subs	r5, #2
   8798c:	ea45 4106 	orr.w	r1, r5, r6, lsl #16
   87990:	2500      	movs	r5, #0
   87992:	e003      	b.n	8799c <__divdi3+0xa0>
   87994:	428b      	cmp	r3, r1
   87996:	d90c      	bls.n	879b2 <__divdi3+0xb6>
   87998:	2500      	movs	r5, #0
   8799a:	4629      	mov	r1, r5
   8799c:	460a      	mov	r2, r1
   8799e:	462b      	mov	r3, r5
   879a0:	b114      	cbz	r4, 879a8 <__divdi3+0xac>
   879a2:	4252      	negs	r2, r2
   879a4:	eb63 0343 	sbc.w	r3, r3, r3, lsl #1
   879a8:	4610      	mov	r0, r2
   879aa:	4619      	mov	r1, r3
   879ac:	e8bd 0ff0 	ldmia.w	sp!, {r4, r5, r6, r7, r8, r9, sl, fp}
   879b0:	4770      	bx	lr
   879b2:	fab3 f583 	clz	r5, r3
   879b6:	2d00      	cmp	r5, #0
   879b8:	f040 8087 	bne.w	87aca <__divdi3+0x1ce>
   879bc:	428b      	cmp	r3, r1
   879be:	d301      	bcc.n	879c4 <__divdi3+0xc8>
   879c0:	4282      	cmp	r2, r0
   879c2:	d8ea      	bhi.n	8799a <__divdi3+0x9e>
   879c4:	2500      	movs	r5, #0
   879c6:	2101      	movs	r1, #1
   879c8:	e7e8      	b.n	8799c <__divdi3+0xa0>
   879ca:	b912      	cbnz	r2, 879d2 <__divdi3+0xd6>
   879cc:	2601      	movs	r6, #1
   879ce:	fbb6 f2f2 	udiv	r2, r6, r2
   879d2:	fab2 f682 	clz	r6, r2
   879d6:	2e00      	cmp	r6, #0
   879d8:	d139      	bne.n	87a4e <__divdi3+0x152>
   879da:	1a8e      	subs	r6, r1, r2
   879dc:	0c13      	lsrs	r3, r2, #16
   879de:	fa1f fc82 	uxth.w	ip, r2
   879e2:	2501      	movs	r5, #1
   879e4:	fbb6 f7f3 	udiv	r7, r6, r3
   879e8:	fb03 6117 	mls	r1, r3, r7, r6
   879ec:	fb0c f807 	mul.w	r8, ip, r7
   879f0:	ea4f 4910 	mov.w	r9, r0, lsr #16
   879f4:	ea49 4601 	orr.w	r6, r9, r1, lsl #16
   879f8:	45b0      	cmp	r8, r6
   879fa:	d906      	bls.n	87a0a <__divdi3+0x10e>
   879fc:	1e79      	subs	r1, r7, #1
   879fe:	18b6      	adds	r6, r6, r2
   87a00:	d202      	bcs.n	87a08 <__divdi3+0x10c>
   87a02:	45b0      	cmp	r8, r6
   87a04:	f200 80d3 	bhi.w	87bae <__divdi3+0x2b2>
   87a08:	460f      	mov	r7, r1
   87a0a:	ebc8 0606 	rsb	r6, r8, r6
   87a0e:	fbb6 f1f3 	udiv	r1, r6, r3
   87a12:	fb03 6311 	mls	r3, r3, r1, r6
   87a16:	fb0c fc01 	mul.w	ip, ip, r1
   87a1a:	b280      	uxth	r0, r0
   87a1c:	ea40 4303 	orr.w	r3, r0, r3, lsl #16
   87a20:	459c      	cmp	ip, r3
   87a22:	d906      	bls.n	87a32 <__divdi3+0x136>
   87a24:	1e4e      	subs	r6, r1, #1
   87a26:	189a      	adds	r2, r3, r2
   87a28:	d202      	bcs.n	87a30 <__divdi3+0x134>
   87a2a:	4594      	cmp	ip, r2
   87a2c:	f200 80c2 	bhi.w	87bb4 <__divdi3+0x2b8>
   87a30:	4631      	mov	r1, r6
   87a32:	ea41 4107 	orr.w	r1, r1, r7, lsl #16
   87a36:	e7b1      	b.n	8799c <__divdi3+0xa0>
   87a38:	43e4      	mvns	r4, r4
   87a3a:	4252      	negs	r2, r2
   87a3c:	eb63 0343 	sbc.w	r3, r3, r3, lsl #1
   87a40:	e766      	b.n	87910 <__divdi3+0x14>
   87a42:	4240      	negs	r0, r0
   87a44:	eb61 0141 	sbc.w	r1, r1, r1, lsl #1
   87a48:	f04f 34ff 	mov.w	r4, #4294967295
   87a4c:	e75d      	b.n	8790a <__divdi3+0xe>
   87a4e:	40b2      	lsls	r2, r6
   87a50:	f1c6 0920 	rsb	r9, r6, #32
   87a54:	fa21 f709 	lsr.w	r7, r1, r9
   87a58:	fa20 f909 	lsr.w	r9, r0, r9
   87a5c:	fa01 f106 	lsl.w	r1, r1, r6
   87a60:	0c13      	lsrs	r3, r2, #16
   87a62:	fbb7 f8f3 	udiv	r8, r7, r3
   87a66:	fa1f fc82 	uxth.w	ip, r2
   87a6a:	fb03 7718 	mls	r7, r3, r8, r7
   87a6e:	fb0c f508 	mul.w	r5, ip, r8
   87a72:	ea49 0901 	orr.w	r9, r9, r1
   87a76:	ea4f 4119 	mov.w	r1, r9, lsr #16
   87a7a:	ea41 4707 	orr.w	r7, r1, r7, lsl #16
   87a7e:	40b0      	lsls	r0, r6
   87a80:	42bd      	cmp	r5, r7
   87a82:	d90a      	bls.n	87a9a <__divdi3+0x19e>
   87a84:	18bf      	adds	r7, r7, r2
   87a86:	f108 36ff 	add.w	r6, r8, #4294967295
   87a8a:	f080 808e 	bcs.w	87baa <__divdi3+0x2ae>
   87a8e:	42bd      	cmp	r5, r7
   87a90:	f240 808b 	bls.w	87baa <__divdi3+0x2ae>
   87a94:	f1a8 0802 	sub.w	r8, r8, #2
   87a98:	18bf      	adds	r7, r7, r2
   87a9a:	1b79      	subs	r1, r7, r5
   87a9c:	fbb1 f5f3 	udiv	r5, r1, r3
   87aa0:	fb03 1715 	mls	r7, r3, r5, r1
   87aa4:	fb0c f605 	mul.w	r6, ip, r5
   87aa8:	fa1f f989 	uxth.w	r9, r9
   87aac:	ea49 4107 	orr.w	r1, r9, r7, lsl #16
   87ab0:	428e      	cmp	r6, r1
   87ab2:	d906      	bls.n	87ac2 <__divdi3+0x1c6>
   87ab4:	1e6f      	subs	r7, r5, #1
   87ab6:	1889      	adds	r1, r1, r2
   87ab8:	d271      	bcs.n	87b9e <__divdi3+0x2a2>
   87aba:	428e      	cmp	r6, r1
   87abc:	d96f      	bls.n	87b9e <__divdi3+0x2a2>
   87abe:	3d02      	subs	r5, #2
   87ac0:	1889      	adds	r1, r1, r2
   87ac2:	1b8e      	subs	r6, r1, r6
   87ac4:	ea45 4508 	orr.w	r5, r5, r8, lsl #16
   87ac8:	e78c      	b.n	879e4 <__divdi3+0xe8>
   87aca:	f1c5 0120 	rsb	r1, r5, #32
   87ace:	fa22 f301 	lsr.w	r3, r2, r1
   87ad2:	fa06 f605 	lsl.w	r6, r6, r5
   87ad6:	fa27 f201 	lsr.w	r2, r7, r1
   87ada:	fa07 f705 	lsl.w	r7, r7, r5
   87ade:	fa20 f101 	lsr.w	r1, r0, r1
   87ae2:	431e      	orrs	r6, r3
   87ae4:	ea4f 4916 	mov.w	r9, r6, lsr #16
   87ae8:	fbb2 f8f9 	udiv	r8, r2, r9
   87aec:	fa1f fa86 	uxth.w	sl, r6
   87af0:	fb09 2218 	mls	r2, r9, r8, r2
   87af4:	fb0a fb08 	mul.w	fp, sl, r8
   87af8:	430f      	orrs	r7, r1
   87afa:	0c3b      	lsrs	r3, r7, #16
   87afc:	ea43 4202 	orr.w	r2, r3, r2, lsl #16
   87b00:	4593      	cmp	fp, r2
   87b02:	fa0c fc05 	lsl.w	ip, ip, r5
   87b06:	d908      	bls.n	87b1a <__divdi3+0x21e>
   87b08:	1992      	adds	r2, r2, r6
   87b0a:	f108 31ff 	add.w	r1, r8, #4294967295
   87b0e:	d24a      	bcs.n	87ba6 <__divdi3+0x2aa>
   87b10:	4593      	cmp	fp, r2
   87b12:	d948      	bls.n	87ba6 <__divdi3+0x2aa>
   87b14:	f1a8 0802 	sub.w	r8, r8, #2
   87b18:	1992      	adds	r2, r2, r6
   87b1a:	ebcb 0302 	rsb	r3, fp, r2
   87b1e:	fbb3 f1f9 	udiv	r1, r3, r9
   87b22:	fb09 3211 	mls	r2, r9, r1, r3
   87b26:	fb0a fa01 	mul.w	sl, sl, r1
   87b2a:	b2bf      	uxth	r7, r7
   87b2c:	ea47 4302 	orr.w	r3, r7, r2, lsl #16
   87b30:	459a      	cmp	sl, r3
   87b32:	d906      	bls.n	87b42 <__divdi3+0x246>
   87b34:	1e4a      	subs	r2, r1, #1
   87b36:	199b      	adds	r3, r3, r6
   87b38:	d233      	bcs.n	87ba2 <__divdi3+0x2a6>
   87b3a:	459a      	cmp	sl, r3
   87b3c:	d931      	bls.n	87ba2 <__divdi3+0x2a6>
   87b3e:	3902      	subs	r1, #2
   87b40:	199b      	adds	r3, r3, r6
   87b42:	ea41 4108 	orr.w	r1, r1, r8, lsl #16
   87b46:	0c0f      	lsrs	r7, r1, #16
   87b48:	fa1f f88c 	uxth.w	r8, ip
   87b4c:	fb08 f607 	mul.w	r6, r8, r7
   87b50:	b28a      	uxth	r2, r1
   87b52:	ea4f 4c1c 	mov.w	ip, ip, lsr #16
   87b56:	fb08 f802 	mul.w	r8, r8, r2
   87b5a:	fb0c 6202 	mla	r2, ip, r2, r6
   87b5e:	fb0c fc07 	mul.w	ip, ip, r7
   87b62:	eb02 4218 	add.w	r2, r2, r8, lsr #16
   87b66:	4296      	cmp	r6, r2
   87b68:	bf88      	it	hi
   87b6a:	f50c 3c80 	addhi.w	ip, ip, #65536	; 0x10000
   87b6e:	ebca 0303 	rsb	r3, sl, r3
   87b72:	eb0c 4c12 	add.w	ip, ip, r2, lsr #16
   87b76:	4563      	cmp	r3, ip
   87b78:	d30e      	bcc.n	87b98 <__divdi3+0x29c>
   87b7a:	d005      	beq.n	87b88 <__divdi3+0x28c>
   87b7c:	2500      	movs	r5, #0
   87b7e:	e70d      	b.n	8799c <__divdi3+0xa0>
   87b80:	460e      	mov	r6, r1
   87b82:	e6ef      	b.n	87964 <__divdi3+0x68>
   87b84:	461d      	mov	r5, r3
   87b86:	e701      	b.n	8798c <__divdi3+0x90>
   87b88:	fa00 f005 	lsl.w	r0, r0, r5
   87b8c:	fa1f f888 	uxth.w	r8, r8
   87b90:	eb08 4502 	add.w	r5, r8, r2, lsl #16
   87b94:	42a8      	cmp	r0, r5
   87b96:	d2f1      	bcs.n	87b7c <__divdi3+0x280>
   87b98:	3901      	subs	r1, #1
   87b9a:	2500      	movs	r5, #0
   87b9c:	e6fe      	b.n	8799c <__divdi3+0xa0>
   87b9e:	463d      	mov	r5, r7
   87ba0:	e78f      	b.n	87ac2 <__divdi3+0x1c6>
   87ba2:	4611      	mov	r1, r2
   87ba4:	e7cd      	b.n	87b42 <__divdi3+0x246>
   87ba6:	4688      	mov	r8, r1
   87ba8:	e7b7      	b.n	87b1a <__divdi3+0x21e>
   87baa:	46b0      	mov	r8, r6
   87bac:	e775      	b.n	87a9a <__divdi3+0x19e>
   87bae:	3f02      	subs	r7, #2
   87bb0:	18b6      	adds	r6, r6, r2
   87bb2:	e72a      	b.n	87a0a <__divdi3+0x10e>
   87bb4:	3902      	subs	r1, #2
   87bb6:	e73c      	b.n	87a32 <__divdi3+0x136>

00087bb8 <__udivdi3>:
   87bb8:	e92d 07f0 	stmdb	sp!, {r4, r5, r6, r7, r8, r9, sl}
   87bbc:	4614      	mov	r4, r2
   87bbe:	4605      	mov	r5, r0
   87bc0:	460e      	mov	r6, r1
   87bc2:	2b00      	cmp	r3, #0
   87bc4:	d13d      	bne.n	87c42 <__udivdi3+0x8a>
   87bc6:	428a      	cmp	r2, r1
   87bc8:	d949      	bls.n	87c5e <__udivdi3+0xa6>
   87bca:	fab2 f782 	clz	r7, r2
   87bce:	b147      	cbz	r7, 87be2 <__udivdi3+0x2a>
   87bd0:	f1c7 0120 	rsb	r1, r7, #32
   87bd4:	fa20 f201 	lsr.w	r2, r0, r1
   87bd8:	fa06 f607 	lsl.w	r6, r6, r7
   87bdc:	40bc      	lsls	r4, r7
   87bde:	40bd      	lsls	r5, r7
   87be0:	4316      	orrs	r6, r2
   87be2:	0c22      	lsrs	r2, r4, #16
   87be4:	fbb6 f0f2 	udiv	r0, r6, r2
   87be8:	b2a1      	uxth	r1, r4
   87bea:	fb02 6610 	mls	r6, r2, r0, r6
   87bee:	fb01 f300 	mul.w	r3, r1, r0
   87bf2:	0c2f      	lsrs	r7, r5, #16
   87bf4:	ea47 4606 	orr.w	r6, r7, r6, lsl #16
   87bf8:	42b3      	cmp	r3, r6
   87bfa:	d908      	bls.n	87c0e <__udivdi3+0x56>
   87bfc:	1e47      	subs	r7, r0, #1
   87bfe:	1936      	adds	r6, r6, r4
   87c00:	f080 80fa 	bcs.w	87df8 <__udivdi3+0x240>
   87c04:	42b3      	cmp	r3, r6
   87c06:	f240 80f7 	bls.w	87df8 <__udivdi3+0x240>
   87c0a:	3802      	subs	r0, #2
   87c0c:	1936      	adds	r6, r6, r4
   87c0e:	1af6      	subs	r6, r6, r3
   87c10:	fbb6 f3f2 	udiv	r3, r6, r2
   87c14:	fb02 6213 	mls	r2, r2, r3, r6
   87c18:	fb01 f103 	mul.w	r1, r1, r3
   87c1c:	b2ad      	uxth	r5, r5
   87c1e:	ea45 4202 	orr.w	r2, r5, r2, lsl #16
   87c22:	4291      	cmp	r1, r2
   87c24:	d907      	bls.n	87c36 <__udivdi3+0x7e>
   87c26:	1e5e      	subs	r6, r3, #1
   87c28:	1912      	adds	r2, r2, r4
   87c2a:	f080 80e7 	bcs.w	87dfc <__udivdi3+0x244>
   87c2e:	4291      	cmp	r1, r2
   87c30:	f240 80e4 	bls.w	87dfc <__udivdi3+0x244>
   87c34:	3b02      	subs	r3, #2
   87c36:	ea43 4000 	orr.w	r0, r3, r0, lsl #16
   87c3a:	2100      	movs	r1, #0
   87c3c:	e8bd 07f0 	ldmia.w	sp!, {r4, r5, r6, r7, r8, r9, sl}
   87c40:	4770      	bx	lr
   87c42:	428b      	cmp	r3, r1
   87c44:	d843      	bhi.n	87cce <__udivdi3+0x116>
   87c46:	fab3 f483 	clz	r4, r3
   87c4a:	2c00      	cmp	r4, #0
   87c4c:	d142      	bne.n	87cd4 <__udivdi3+0x11c>
   87c4e:	428b      	cmp	r3, r1
   87c50:	d302      	bcc.n	87c58 <__udivdi3+0xa0>
   87c52:	4282      	cmp	r2, r0
   87c54:	f200 80e1 	bhi.w	87e1a <__udivdi3+0x262>
   87c58:	2100      	movs	r1, #0
   87c5a:	2001      	movs	r0, #1
   87c5c:	e7ee      	b.n	87c3c <__udivdi3+0x84>
   87c5e:	b912      	cbnz	r2, 87c66 <__udivdi3+0xae>
   87c60:	2701      	movs	r7, #1
   87c62:	fbb7 f4f2 	udiv	r4, r7, r2
   87c66:	fab4 f284 	clz	r2, r4
   87c6a:	2a00      	cmp	r2, #0
   87c6c:	f040 8089 	bne.w	87d82 <__udivdi3+0x1ca>
   87c70:	1b0a      	subs	r2, r1, r4
   87c72:	0c23      	lsrs	r3, r4, #16
   87c74:	b2a7      	uxth	r7, r4
   87c76:	2101      	movs	r1, #1
   87c78:	fbb2 f6f3 	udiv	r6, r2, r3
   87c7c:	fb03 2216 	mls	r2, r3, r6, r2
   87c80:	fb07 f006 	mul.w	r0, r7, r6
   87c84:	ea4f 4c15 	mov.w	ip, r5, lsr #16
   87c88:	ea4c 4202 	orr.w	r2, ip, r2, lsl #16
   87c8c:	4290      	cmp	r0, r2
   87c8e:	d907      	bls.n	87ca0 <__udivdi3+0xe8>
   87c90:	1912      	adds	r2, r2, r4
   87c92:	f106 3cff 	add.w	ip, r6, #4294967295
   87c96:	d202      	bcs.n	87c9e <__udivdi3+0xe6>
   87c98:	4290      	cmp	r0, r2
   87c9a:	f200 80d0 	bhi.w	87e3e <__udivdi3+0x286>
   87c9e:	4666      	mov	r6, ip
   87ca0:	1a12      	subs	r2, r2, r0
   87ca2:	fbb2 f0f3 	udiv	r0, r2, r3
   87ca6:	fb03 2310 	mls	r3, r3, r0, r2
   87caa:	fb07 f700 	mul.w	r7, r7, r0
   87cae:	b2ad      	uxth	r5, r5
   87cb0:	ea45 4303 	orr.w	r3, r5, r3, lsl #16
   87cb4:	429f      	cmp	r7, r3
   87cb6:	d907      	bls.n	87cc8 <__udivdi3+0x110>
   87cb8:	1e42      	subs	r2, r0, #1
   87cba:	191b      	adds	r3, r3, r4
   87cbc:	f080 80a0 	bcs.w	87e00 <__udivdi3+0x248>
   87cc0:	429f      	cmp	r7, r3
   87cc2:	f240 809d 	bls.w	87e00 <__udivdi3+0x248>
   87cc6:	3802      	subs	r0, #2
   87cc8:	ea40 4006 	orr.w	r0, r0, r6, lsl #16
   87ccc:	e7b6      	b.n	87c3c <__udivdi3+0x84>
   87cce:	2100      	movs	r1, #0
   87cd0:	4608      	mov	r0, r1
   87cd2:	e7b3      	b.n	87c3c <__udivdi3+0x84>
   87cd4:	f1c4 0620 	rsb	r6, r4, #32
   87cd8:	fa22 f706 	lsr.w	r7, r2, r6
   87cdc:	fa03 f304 	lsl.w	r3, r3, r4
   87ce0:	fa21 f506 	lsr.w	r5, r1, r6
   87ce4:	fa01 f104 	lsl.w	r1, r1, r4
   87ce8:	fa20 f606 	lsr.w	r6, r0, r6
   87cec:	433b      	orrs	r3, r7
   87cee:	ea4f 4c13 	mov.w	ip, r3, lsr #16
   87cf2:	fbb5 f7fc 	udiv	r7, r5, ip
   87cf6:	fa1f f883 	uxth.w	r8, r3
   87cfa:	fb0c 5517 	mls	r5, ip, r7, r5
   87cfe:	fb08 f907 	mul.w	r9, r8, r7
   87d02:	ea46 0a01 	orr.w	sl, r6, r1
   87d06:	ea4f 411a 	mov.w	r1, sl, lsr #16
   87d0a:	ea41 4505 	orr.w	r5, r1, r5, lsl #16
   87d0e:	45a9      	cmp	r9, r5
   87d10:	fa02 f204 	lsl.w	r2, r2, r4
   87d14:	d904      	bls.n	87d20 <__udivdi3+0x168>
   87d16:	1e7e      	subs	r6, r7, #1
   87d18:	18ed      	adds	r5, r5, r3
   87d1a:	f0c0 8081 	bcc.w	87e20 <__udivdi3+0x268>
   87d1e:	4637      	mov	r7, r6
   87d20:	ebc9 0105 	rsb	r1, r9, r5
   87d24:	fbb1 f6fc 	udiv	r6, r1, ip
   87d28:	fb0c 1516 	mls	r5, ip, r6, r1
   87d2c:	fb08 f806 	mul.w	r8, r8, r6
   87d30:	fa1f fa8a 	uxth.w	sl, sl
   87d34:	ea4a 4105 	orr.w	r1, sl, r5, lsl #16
   87d38:	4588      	cmp	r8, r1
   87d3a:	d903      	bls.n	87d44 <__udivdi3+0x18c>
   87d3c:	1e75      	subs	r5, r6, #1
   87d3e:	18c9      	adds	r1, r1, r3
   87d40:	d374      	bcc.n	87e2c <__udivdi3+0x274>
   87d42:	462e      	mov	r6, r5
   87d44:	ea46 4607 	orr.w	r6, r6, r7, lsl #16
   87d48:	0c37      	lsrs	r7, r6, #16
   87d4a:	fa1f fc82 	uxth.w	ip, r2
   87d4e:	fb0c f507 	mul.w	r5, ip, r7
   87d52:	0c12      	lsrs	r2, r2, #16
   87d54:	b2b3      	uxth	r3, r6
   87d56:	fb0c fc03 	mul.w	ip, ip, r3
   87d5a:	fb02 5303 	mla	r3, r2, r3, r5
   87d5e:	fb02 f207 	mul.w	r2, r2, r7
   87d62:	eb03 431c 	add.w	r3, r3, ip, lsr #16
   87d66:	429d      	cmp	r5, r3
   87d68:	bf88      	it	hi
   87d6a:	f502 3280 	addhi.w	r2, r2, #65536	; 0x10000
   87d6e:	ebc8 0101 	rsb	r1, r8, r1
   87d72:	eb02 4213 	add.w	r2, r2, r3, lsr #16
   87d76:	4291      	cmp	r1, r2
   87d78:	d34c      	bcc.n	87e14 <__udivdi3+0x25c>
   87d7a:	d043      	beq.n	87e04 <__udivdi3+0x24c>
   87d7c:	4630      	mov	r0, r6
   87d7e:	2100      	movs	r1, #0
   87d80:	e75c      	b.n	87c3c <__udivdi3+0x84>
   87d82:	4094      	lsls	r4, r2
   87d84:	f1c2 0520 	rsb	r5, r2, #32
   87d88:	fa21 f605 	lsr.w	r6, r1, r5
   87d8c:	fa20 f505 	lsr.w	r5, r0, r5
   87d90:	fa01 f102 	lsl.w	r1, r1, r2
   87d94:	0c23      	lsrs	r3, r4, #16
   87d96:	fbb6 fcf3 	udiv	ip, r6, r3
   87d9a:	b2a7      	uxth	r7, r4
   87d9c:	fb03 661c 	mls	r6, r3, ip, r6
   87da0:	fb07 f80c 	mul.w	r8, r7, ip
   87da4:	4329      	orrs	r1, r5
   87da6:	0c0d      	lsrs	r5, r1, #16
   87da8:	ea45 4606 	orr.w	r6, r5, r6, lsl #16
   87dac:	45b0      	cmp	r8, r6
   87dae:	fa00 f502 	lsl.w	r5, r0, r2
   87db2:	d908      	bls.n	87dc6 <__udivdi3+0x20e>
   87db4:	1936      	adds	r6, r6, r4
   87db6:	f10c 30ff 	add.w	r0, ip, #4294967295
   87dba:	d23e      	bcs.n	87e3a <__udivdi3+0x282>
   87dbc:	45b0      	cmp	r8, r6
   87dbe:	d93c      	bls.n	87e3a <__udivdi3+0x282>
   87dc0:	f1ac 0c02 	sub.w	ip, ip, #2
   87dc4:	1936      	adds	r6, r6, r4
   87dc6:	ebc8 0206 	rsb	r2, r8, r6
   87dca:	fbb2 f0f3 	udiv	r0, r2, r3
   87dce:	fb03 2610 	mls	r6, r3, r0, r2
   87dd2:	fb07 f800 	mul.w	r8, r7, r0
   87dd6:	b289      	uxth	r1, r1
   87dd8:	ea41 4206 	orr.w	r2, r1, r6, lsl #16
   87ddc:	4590      	cmp	r8, r2
   87dde:	d906      	bls.n	87dee <__udivdi3+0x236>
   87de0:	1e46      	subs	r6, r0, #1
   87de2:	1912      	adds	r2, r2, r4
   87de4:	d227      	bcs.n	87e36 <__udivdi3+0x27e>
   87de6:	4590      	cmp	r8, r2
   87de8:	d925      	bls.n	87e36 <__udivdi3+0x27e>
   87dea:	3802      	subs	r0, #2
   87dec:	1912      	adds	r2, r2, r4
   87dee:	ebc8 0202 	rsb	r2, r8, r2
   87df2:	ea40 410c 	orr.w	r1, r0, ip, lsl #16
   87df6:	e73f      	b.n	87c78 <__udivdi3+0xc0>
   87df8:	4638      	mov	r0, r7
   87dfa:	e708      	b.n	87c0e <__udivdi3+0x56>
   87dfc:	4633      	mov	r3, r6
   87dfe:	e71a      	b.n	87c36 <__udivdi3+0x7e>
   87e00:	4610      	mov	r0, r2
   87e02:	e761      	b.n	87cc8 <__udivdi3+0x110>
   87e04:	fa00 f004 	lsl.w	r0, r0, r4
   87e08:	fa1f fc8c 	uxth.w	ip, ip
   87e0c:	eb0c 4303 	add.w	r3, ip, r3, lsl #16
   87e10:	4298      	cmp	r0, r3
   87e12:	d2b3      	bcs.n	87d7c <__udivdi3+0x1c4>
   87e14:	1e70      	subs	r0, r6, #1
   87e16:	2100      	movs	r1, #0
   87e18:	e710      	b.n	87c3c <__udivdi3+0x84>
   87e1a:	4621      	mov	r1, r4
   87e1c:	4620      	mov	r0, r4
   87e1e:	e70d      	b.n	87c3c <__udivdi3+0x84>
   87e20:	45a9      	cmp	r9, r5
   87e22:	f67f af7c 	bls.w	87d1e <__udivdi3+0x166>
   87e26:	3f02      	subs	r7, #2
   87e28:	18ed      	adds	r5, r5, r3
   87e2a:	e779      	b.n	87d20 <__udivdi3+0x168>
   87e2c:	4588      	cmp	r8, r1
   87e2e:	d988      	bls.n	87d42 <__udivdi3+0x18a>
   87e30:	3e02      	subs	r6, #2
   87e32:	18c9      	adds	r1, r1, r3
   87e34:	e786      	b.n	87d44 <__udivdi3+0x18c>
   87e36:	4630      	mov	r0, r6
   87e38:	e7d9      	b.n	87dee <__udivdi3+0x236>
   87e3a:	4684      	mov	ip, r0
   87e3c:	e7c3      	b.n	87dc6 <__udivdi3+0x20e>
   87e3e:	3e02      	subs	r6, #2
   87e40:	1912      	adds	r2, r2, r4
   87e42:	e72d      	b.n	87ca0 <__udivdi3+0xe8>
   87e44:	000a6425 	.word	0x000a6425

00087e48 <TC_CLK>:
   87e48:	0000001b 0000001e 00000021              ........!...

00087e54 <TC_INS>:
   87e54:	40080000 40084000 40088000 09097325     ...@.@.@...@%s..
   87e64:	25096325 75250975 0d752509 0000000a     %c.%u.%u.%u.....
   87e74:	454c4449 00000000 00000a0d 20726d54     IDLE........Tmr 
   87e84:	00637653 0c040800 0e060a02 0d050901     Svc.............
   87e94:	0f070b03 00006425 00000042 0000704b     ....%d..B...Kp..
   87ea4:	00006954 00006454 6b736154 00000031     Ti..Td..Task1...
   87eb4:	6b736154 00000032 6b736154 00000033     Task2...Task3...
   87ec4:	0000002a 00000020 0000002b              *... ...+...

00087ed0 <_global_impure_ptr>:
   87ed0:	20070020 20200043                                 .. C.

00087ed6 <blanks.6650>:
   87ed6:	20202020 20202020 20202020 20202020                     

00087ee6 <zeroes.6651>:
   87ee6:	30303030 30303030 30303030 30303030     0000000000000000
   87ef6:	33323130 37363534 42413938 46454443     0123456789ABCDEF
   87f06:	32313000 36353433 61393837 65646362     .0123456789abcde
   87f16:	20200066                                         f.

00087f18 <blanks.6678>:
   87f18:	20202020 20202020 20202020 20202020                     

00087f28 <zeroes.6679>:
   87f28:	30303030 30303030 30303030 30303030     0000000000000000
   87f38:	49534f50 002e0058                       POSIX...

00087f40 <blanks.6664>:
   87f40:	20202020 20202020 20202020 20202020                     

00087f50 <zeroes.6665>:
   87f50:	30303030 30303030 30303030 30303030     0000000000000000

00087f60 <_init>:
   87f60:	b5f8      	push	{r3, r4, r5, r6, r7, lr}
   87f62:	bf00      	nop
   87f64:	bcf8      	pop	{r3, r4, r5, r6, r7}
   87f66:	bc08      	pop	{r3}
   87f68:	469e      	mov	lr, r3
   87f6a:	4770      	bx	lr

00087f6c <__init_array_start>:
   87f6c:	00085a15 	.word	0x00085a15

00087f70 <__frame_dummy_init_array_entry>:
   87f70:	0008016d                                m...

00087f74 <_fini>:
   87f74:	b5f8      	push	{r3, r4, r5, r6, r7, lr}
   87f76:	bf00      	nop
   87f78:	bcf8      	pop	{r3, r4, r5, r6, r7}
   87f7a:	bc08      	pop	{r3}
   87f7c:	469e      	mov	lr, r3
   87f7e:	4770      	bx	lr

00087f80 <__fini_array_start>:
   87f80:	00080145 	.word	0x00080145
